0x401850: 31 ED                      xor	%ebp, %ebp
0x401852: 49 89 D1                   mov	%rdx, %r9
0x401855: 5E                         pop	%rsi
0x401856: 48 89 E2                   mov	%rsp, %rdx
0x401859: 48 83 E4 F0                and	$0xfffffffffffffff0, %rsp
0x40185d: 50                         push	%rax
0x40185e: 54                         push	%rsp
0x40185f: 49 C7 C0 B0 A8 40 00       mov	$0x40a8b0, %r8
0x401866: 48 C7 C1 C0 A8 40 00       mov	$0x40a8c0, %rcx
0x40186d: 48 C7 C7 60 1B 40 00       mov	$0x401b60, %rdi
0x401874: E8 07 FD FF FF             callq	0x0000000000401580
0x401879: F4                         hlt	
0x40187a: 90                         nop	
0x40187b: 90                         nop	
0x40187c: 48 83 EC 08                sub	$0x8, %rsp
0x401880: 48 8B 05 51 B7 20 00       mov	0x20b751(%rip), %rax	#  0x000000000060cfd8
0x401887: 48 85 C0                   test	%rax, %rax
0x40188a: 74 02                      je	0x000000000040188e
0x40188c: FF D0                      callq	*%rax
0x40188e: 48 83 C4 08                add	$0x8, %rsp
0x401892: C3                         retq	
0x401893: 90                         nop	
0x401894: 90                         nop	
0x401895: 90                         nop	
0x401896: 90                         nop	
0x401897: 90                         nop	
0x401898: 90                         nop	
0x401899: 90                         nop	
0x40189a: 90                         nop	
0x40189b: 90                         nop	
0x40189c: 90                         nop	
0x40189d: 90                         nop	
0x40189e: 90                         nop	
0x40189f: 90                         nop	
0x4018a0: 55                         push	%rbp
0x4018a1: 48 89 E5                   mov	%rsp, %rbp
0x4018a4: 53                         push	%rbx
0x4018a5: 48 83 EC 08                sub	$0x8, %rsp
0x4018a9: 80 3D C8 B9 20 00 00       cmpb	$0x0, 0x20b9c8(%rip)	#  0x000000000060d278
0x4018b0: 75 4B                      jne	0x00000000004018fd
0x4018b2: B8 28 CE 60 00             mov	$0x60ce28, %eax
0x4018b7: 48 8B 15 C2 B9 20 00       mov	0x20b9c2(%rip), %rdx	#  0x000000000060d280
0x4018be: 48 2D 20 CE 60 00          sub	$0x60ce20, %rax
0x4018c4: 48 C1 F8 03                sar	$0x3, %rax
0x4018c8: 48 8D 58 FF                lea	-0x1(%rax), %rbx
0x4018cc: 48 39 DA                   cmp	%rbx, %rdx
0x4018cf: 73 25                      jae	0x00000000004018f6
0x4018d1: 0F 1F 80 00 00 00 00       nopl	0x0(%rax)
0x4018d8: 48 83 C2 01                add	$0x1, %rdx
0x4018dc: 48 89 15 9D B9 20 00       mov	%rdx, 0x20b99d(%rip)	#  0x000000000060d280
0x4018e3: FF 14 D5 20 CE 60 00       callq	*0x60ce20(,%rdx,8)
0x4018ea: 48 8B 15 8F B9 20 00       mov	0x20b98f(%rip), %rdx	#  0x000000000060d280
0x4018f1: 48 39 DA                   cmp	%rbx, %rdx
0x4018f4: 72 E2                      jb	0x00000000004018d8
0x4018f6: C6 05 7B B9 20 00 01       movb	$0x1, 0x20b97b(%rip)	#  0x000000000060d278
0x4018fd: 48 83 C4 08                add	$0x8, %rsp
0x401901: 5B                         pop	%rbx
0x401902: C9                         leaveq	
0x401903: C3                         retq	
0x401904: 66 66 66 2E 0F 1F 84 00    nopw	%cs:0x0(%rax,%rax,1)
          00 00 00 00
0x401910: 55                         push	%rbp
0x401911: 48 83 3D 17 B5 20 00 00    cmpq	$0x0, 0x20b517(%rip)	#  0x000000000060ce30
0x401919: 48 89 E5                   mov	%rsp, %rbp
0x40191c: 74 12                      je	0x0000000000401930
0x40191e: B8 00 00 00 00             mov	$0x0, %eax
0x401923: 48 85 C0                   test	%rax, %rax
0x401926: 74 08                      je	0x0000000000401930
0x401928: BF 30 CE 60 00             mov	$0x60ce30, %edi
0x40192d: C9                         leaveq	
0x40192e: FF E0                      jmpq	*%rax
0x401930: C9                         leaveq	
0x401931: C3                         retq	
0x401932: 90                         nop	
0x401933: 90                         nop	
0x401934: 90                         nop	
0x401935: 90                         nop	
0x401936: 90                         nop	
0x401937: 90                         nop	
0x401938: 90                         nop	
0x401939: 90                         nop	
0x40193a: 90                         nop	
0x40193b: 90                         nop	
0x40193c: 90                         nop	
0x40193d: 90                         nop	
0x40193e: 90                         nop	
0x40193f: 90                         nop	
0x401940: 55                         push	%rbp
0x401941: 53                         push	%rbx
0x401942: 89 FB                      mov	%edi, %ebx
0x401944: 48 83 EC 08                sub	$0x8, %rsp
0x401948: 85 FF                      test	%edi, %edi
0x40194a: 74 3C                      je	0x0000000000401988
0x40194c: 48 8B 2D 4D B9 20 00       mov	0x20b94d(%rip), %rbp	#  0x000000000060d2a0
0x401953: BA 05 00 00 00             mov	$0x5, %edx
0x401958: BE C8 A9 40 00             mov	$0x40a9c8, %esi
0x40195d: 31 FF                      xor	%edi, %edi
0x40195f: E8 CC FD FF FF             callq	0x0000000000401730
0x401964: 48 8B 3D FD B8 20 00       mov	0x20b8fd(%rip), %rdi	#  0x000000000060d268
0x40196b: 48 89 C2                   mov	%rax, %rdx
0x40196e: 48 89 E9                   mov	%rbp, %rcx
0x401971: BE 01 00 00 00             mov	$0x1, %esi
0x401976: 31 C0                      xor	%eax, %eax
0x401978: E8 73 FB FF FF             callq	0x00000000004014f0
0x40197d: 89 DF                      mov	%ebx, %edi
0x40197f: E8 8C FB FF FF             callq	0x0000000000401510
0x401984: 0F 1F 40 00                nopl	0x0(%rax)
0x401988: 48 8B 2D 11 B9 20 00       mov	0x20b911(%rip), %rbp	#  0x000000000060d2a0
0x40198f: 31 FF                      xor	%edi, %edi
0x401991: BA 05 00 00 00             mov	$0x5, %edx
0x401996: BE F0 A9 40 00             mov	$0x40a9f0, %esi
0x40199b: E8 90 FD FF FF             callq	0x0000000000401730
0x4019a0: 48 89 EA                   mov	%rbp, %rdx
0x4019a3: 48 89 C6                   mov	%rax, %rsi
0x4019a6: BF 01 00 00 00             mov	$0x1, %edi
0x4019ab: 31 C0                      xor	%eax, %eax
0x4019ad: E8 7E FB FF FF             callq	0x0000000000401530
0x4019b2: 48 8B 2D B7 B8 20 00       mov	0x20b8b7(%rip), %rbp	#  0x000000000060d270
0x4019b9: BA 05 00 00 00             mov	$0x5, %edx
0x4019be: 31 FF                      xor	%edi, %edi
0x4019c0: BE 18 AA 40 00             mov	$0x40aa18, %esi
0x4019c5: E8 66 FD FF FF             callq	0x0000000000401730
0x4019ca: 48 89 EE                   mov	%rbp, %rsi
0x4019cd: 48 89 C7                   mov	%rax, %rdi
0x4019d0: E8 5B FC FF FF             callq	0x0000000000401630
0x4019d5: 48 8B 2D 94 B8 20 00       mov	0x20b894(%rip), %rbp	#  0x000000000060d270
0x4019dc: BA 05 00 00 00             mov	$0x5, %edx
0x4019e1: 31 FF                      xor	%edi, %edi
0x4019e3: BE 98 AB 40 00             mov	$0x40ab98, %esi
0x4019e8: E8 43 FD FF FF             callq	0x0000000000401730
0x4019ed: 48 89 EE                   mov	%rbp, %rsi
0x4019f0: 48 89 C7                   mov	%rax, %rdi
0x4019f3: E8 38 FC FF FF             callq	0x0000000000401630
0x4019f8: 48 8B 2D 71 B8 20 00       mov	0x20b871(%rip), %rbp	#  0x000000000060d270
0x4019ff: BA 05 00 00 00             mov	$0x5, %edx
0x401a04: 31 FF                      xor	%edi, %edi
0x401a06: BE 70 AC 40 00             mov	$0x40ac70, %esi
0x401a0b: E8 20 FD FF FF             callq	0x0000000000401730
0x401a10: 48 89 EE                   mov	%rbp, %rsi
0x401a13: 48 89 C7                   mov	%rax, %rdi
0x401a16: E8 15 FC FF FF             callq	0x0000000000401630
0x401a1b: 48 8B 2D 4E B8 20 00       mov	0x20b84e(%rip), %rbp	#  0x000000000060d270
0x401a22: BA 05 00 00 00             mov	$0x5, %edx
0x401a27: 31 FF                      xor	%edi, %edi
0x401a29: BE A0 AC 40 00             mov	$0x40aca0, %esi
0x401a2e: E8 FD FC FF FF             callq	0x0000000000401730
0x401a33: 48 89 EE                   mov	%rbp, %rsi
0x401a36: 48 89 C7                   mov	%rax, %rdi
0x401a39: E8 F2 FB FF FF             callq	0x0000000000401630
0x401a3e: 48 8B 2D 2B B8 20 00       mov	0x20b82b(%rip), %rbp	#  0x000000000060d270
0x401a45: BA 05 00 00 00             mov	$0x5, %edx
0x401a4a: 31 FF                      xor	%edi, %edi
0x401a4c: BE D8 AC 40 00             mov	$0x40acd8, %esi
0x401a51: E8 DA FC FF FF             callq	0x0000000000401730
0x401a56: 48 89 EE                   mov	%rbp, %rsi
0x401a59: 48 89 C7                   mov	%rax, %rdi
0x401a5c: E8 CF FB FF FF             callq	0x0000000000401630
0x401a61: 48 8B 2D 38 B8 20 00       mov	0x20b838(%rip), %rbp	#  0x000000000060d2a0
0x401a68: 31 FF                      xor	%edi, %edi
0x401a6a: BA 05 00 00 00             mov	$0x5, %edx
0x401a6f: BE 10 AD 40 00             mov	$0x40ad10, %esi
0x401a74: E8 B7 FC FF FF             callq	0x0000000000401730
0x401a79: 48 89 E9                   mov	%rbp, %rcx
0x401a7c: 48 89 EA                   mov	%rbp, %rdx
0x401a7f: 48 89 C6                   mov	%rax, %rsi
0x401a82: BF 01 00 00 00             mov	$0x1, %edi
0x401a87: 31 C0                      xor	%eax, %eax
0x401a89: E8 A2 FA FF FF             callq	0x0000000000401530
0x401a8e: 48 8B 3D 0B B8 20 00       mov	0x20b80b(%rip), %rdi	#  0x000000000060d2a0
0x401a95: E8 86 25 00 00             callq	0x0000000000404020
0x401a9a: 31 FF                      xor	%edi, %edi
0x401a9c: 48 89 C5                   mov	%rax, %rbp
0x401a9f: BA 05 00 00 00             mov	$0x5, %edx
0x401aa4: BE 5D AE 40 00             mov	$0x40ae5d, %esi
0x401aa9: E8 82 FC FF FF             callq	0x0000000000401730
0x401aae: B9 74 AE 40 00             mov	$0x40ae74, %ecx
0x401ab3: 48 89 EA                   mov	%rbp, %rdx
0x401ab6: 48 89 C6                   mov	%rax, %rsi
0x401ab9: BF 01 00 00 00             mov	$0x1, %edi
0x401abe: 31 C0                      xor	%eax, %eax
0x401ac0: E8 6B FA FF FF             callq	0x0000000000401530
0x401ac5: 31 FF                      xor	%edi, %edi
0x401ac7: BA 05 00 00 00             mov	$0x5, %edx
0x401acc: BE A0 AD 40 00             mov	$0x40ada0, %esi
0x401ad1: E8 5A FC FF FF             callq	0x0000000000401730
0x401ad6: B9 8E AE 40 00             mov	$0x40ae8e, %ecx
0x401adb: 48 89 C6                   mov	%rax, %rsi
0x401ade: BA 8A AE 40 00             mov	$0x40ae8a, %edx
0x401ae3: BF 01 00 00 00             mov	$0x1, %edi
0x401ae8: 31 C0                      xor	%eax, %eax
0x401aea: E8 41 FA FF FF             callq	0x0000000000401530
0x401aef: 48 8B 2D 7A B7 20 00       mov	0x20b77a(%rip), %rbp	#  0x000000000060d270
0x401af6: BA 05 00 00 00             mov	$0x5, %edx
0x401afb: BE D8 AD 40 00             mov	$0x40add8, %esi
0x401b00: 31 FF                      xor	%edi, %edi
0x401b02: E8 29 FC FF FF             callq	0x0000000000401730
0x401b07: 48 89 EE                   mov	%rbp, %rsi
0x401b0a: 48 89 C7                   mov	%rax, %rdi
0x401b0d: E8 1E FB FF FF             callq	0x0000000000401630
0x401b12: BF 05 00 00 00             mov	$0x5, %edi
0x401b17: E8 34 27 00 00             callq	0x0000000000404250
0x401b1c: 84 C0                      test	%al, %al
0x401b1e: 0F 84 59 FE FF FF          je	0x000000000040197d
0x401b24: 48 8B 3D 75 B7 20 00       mov	0x20b775(%rip), %rdi	#  0x000000000060d2a0
0x401b2b: E8 F0 24 00 00             callq	0x0000000000404020
0x401b30: 31 FF                      xor	%edi, %edi
0x401b32: 48 89 C5                   mov	%rax, %rbp
0x401b35: BA 05 00 00 00             mov	$0x5, %edx
0x401b3a: BE 18 AE 40 00             mov	$0x40ae18, %esi
0x401b3f: E8 EC FB FF FF             callq	0x0000000000401730
0x401b44: 48 89 EA                   mov	%rbp, %rdx
0x401b47: 48 89 C6                   mov	%rax, %rsi
0x401b4a: BF 01 00 00 00             mov	$0x1, %edi
0x401b4f: 31 C0                      xor	%eax, %eax
0x401b51: E8 DA F9 FF FF             callq	0x0000000000401530
0x401b56: E9 22 FE FF FF             jmpq	0x000000000040197d
0x401b5b: 0F 1F 44 00 00             nopl	0x0(%rax,%rax,1)
0x401b60: 41 57                      push	%r15
0x401b62: 41 56                      push	%r14
0x401b64: 41 55                      push	%r13
0x401b66: 45 31 ED                   xor	%r13d, %r13d
0x401b69: 41 54                      push	%r12
0x401b6b: 55                         push	%rbp
0x401b6c: 48 89 F5                   mov	%rsi, %rbp
0x401b6f: 53                         push	%rbx
0x401b70: 31 DB                      xor	%ebx, %ebx
0x401b72: 48 81 EC 08 02 00 00       sub	$0x208, %rsp
0x401b79: 89 7C 24 60                mov	%edi, 0x60(%rsp)
0x401b7d: E8 EE FA FF FF             callq	0x0000000000401670
0x401b82: 48 8B 7D 00                mov	0x0(%rbp), %rdi
0x401b86: 48 98                      cltq	
0x401b88: 48 89 44 24 78             mov	%rax, 0x78(%rsp)
0x401b8d: E8 AE 0D 00 00             callq	0x0000000000402940
0x401b92: BE B8 B1 40 00             mov	$0x40b1b8, %esi
0x401b97: BF 06 00 00 00             mov	$0x6, %edi
0x401b9c: E8 3F FC FF FF             callq	0x00000000004017e0
0x401ba1: BE 98 AE 40 00             mov	$0x40ae98, %esi
0x401ba6: BF 8E AE 40 00             mov	$0x40ae8e, %edi
0x401bab: E8 90 F9 FF FF             callq	0x0000000000401540
0x401bb0: BF 8E AE 40 00             mov	$0x40ae8e, %edi
0x401bb5: E8 46 F9 FF FF             callq	0x0000000000401500
0x401bba: BF A0 41 40 00             mov	$0x4041a0, %edi
0x401bbf: E8 8C 8D 00 00             callq	0x000000000040a950
0x401bc4: C6 44 24 57 00             movb	$0x0, 0x57(%rsp)
0x401bc9: C6 44 24 66 00             movb	$0x0, 0x66(%rsp)
0x401bce: C6 44 24 77 00             movb	$0x0, 0x77(%rsp)
0x401bd3: C6 44 24 65 00             movb	$0x0, 0x65(%rsp)
0x401bd8: 8B 7C 24 60                mov	0x60(%rsp), %edi
0x401bdc: 45 31 C0                   xor	%r8d, %r8d
0x401bdf: B9 C0 AF 40 00             mov	$0x40afc0, %ecx
0x401be4: BA E7 AE 40 00             mov	$0x40aee7, %edx
0x401be9: 48 89 EE                   mov	%rbp, %rsi
0x401bec: E8 EF FA FF FF             callq	0x00000000004016e0
0x401bf1: 83 F8 FF                   cmp	$0xffffffffffffffff, %eax
0x401bf4: 0F 84 30 01 00 00          je	0x0000000000401d2a
0x401bfa: 83 F8 62                   cmp	$0x62, %eax
0x401bfd: 0F 84 0D 01 00 00          je	0x0000000000401d10
0x401c03: 0F 1F 44 00 00             nopl	0x0(%rax,%rax,1)
0x401c08: 7F 36                      jg	0x0000000000401c40
0x401c0a: 83 F8 41                   cmp	$0x41, %eax
0x401c0d: 0F 1F 00                   nopl	(%rax)
0x401c10: 74 53                      je	0x0000000000401c65
0x401c12: 66 0F 1F 44 00 00          nopw	0x0(%rax,%rax,1)
0x401c18: 7F 7B                      jg	0x0000000000401c95
0x401c1a: 3D 7D FF FF FF             cmp	$0xffffff7d, %eax
0x401c1f: 90                         nop	
0x401c20: 0F 84 95 00 00 00          je	0x0000000000401cbb
0x401c26: 3D 7E FF FF FF             cmp	$0xffffff7e, %eax
0x401c2b: 0F 1F 44 00 00             nopl	0x0(%rax,%rax,1)
0x401c30: 75 70                      jne	0x0000000000401ca2
0x401c32: 31 FF                      xor	%edi, %edi
0x401c34: E8 07 FD FF FF             callq	0x0000000000401940
0x401c39: 0F 1F 80 00 00 00 00       nopl	0x0(%rax)
0x401c40: 83 F8 73                   cmp	$0x73, %eax
0x401c43: 0F 84 D7 00 00 00          je	0x0000000000401d20
0x401c49: 7F 2E                      jg	0x0000000000401c79
0x401c4b: 83 F8 65                   cmp	$0x65, %eax
0x401c4e: 66 90                      xchg	%ax, %ax
0x401c50: 74 18                      je	0x0000000000401c6a
0x401c52: 83 F8 6E                   cmp	$0x6e, %eax
0x401c55: 0F 1F 00                   nopl	(%rax)
0x401c58: 75 48                      jne	0x0000000000401ca2
0x401c5a: C6 44 24 65 01             movb	$0x1, 0x65(%rsp)
0x401c5f: 90                         nop	
0x401c60: E9 73 FF FF FF             jmpq	0x0000000000401bd8
0x401c65: BB 01 00 00 00             mov	$0x1, %ebx
0x401c6a: C6 44 24 57 01             movb	$0x1, 0x57(%rsp)
0x401c6f: C6 44 24 66 01             movb	$0x1, 0x66(%rsp)
0x401c74: E9 5F FF FF FF             jmpq	0x0000000000401bd8
0x401c79: 83 F8 75                   cmp	$0x75, %eax
0x401c7c: 0F 84 56 FF FF FF          je	0x0000000000401bd8
0x401c82: 7C 28                      jl	0x0000000000401cac
0x401c84: 83 F8 76                   cmp	$0x76, %eax
0x401c87: 90                         nop	
0x401c88: 75 18                      jne	0x0000000000401ca2
0x401c8a: C6 44 24 57 01             movb	$0x1, 0x57(%rsp)
0x401c8f: 90                         nop	
0x401c90: E9 43 FF FF FF             jmpq	0x0000000000401bd8
0x401c95: 83 F8 45                   cmp	$0x45, %eax
0x401c98: 74 D5                      je	0x0000000000401c6f
0x401c9a: 83 F8 54                   cmp	$0x54, %eax
0x401c9d: 0F 1F 00                   nopl	(%rax)
0x401ca0: 74 5F                      je	0x0000000000401d01
0x401ca2: BF 01 00 00 00             mov	$0x1, %edi
0x401ca7: E8 94 FC FF FF             callq	0x0000000000401940
0x401cac: BB 01 00 00 00             mov	$0x1, %ebx
0x401cb1: C6 44 24 57 01             movb	$0x1, 0x57(%rsp)
0x401cb6: E9 1D FF FF FF             jmpq	0x0000000000401bd8
0x401cbb: BE AA AE 40 00             mov	$0x40aeaa, %esi
0x401cc0: BF BD AE 40 00             mov	$0x40aebd, %edi
0x401cc5: E8 C6 16 00 00             callq	0x0000000000403390
0x401cca: 48 8B 3D 9F B5 20 00       mov	0x20b59f(%rip), %rdi	#  0x000000000060d270
0x401cd1: 48 8B 0D 58 B5 20 00       mov	0x20b558(%rip), %rcx	#  0x000000000060d230
0x401cd8: 49 89 C0                   mov	%rax, %r8
0x401cdb: 41 B9 CF AE 40 00          mov	$0x40aecf, %r9d
0x401ce1: BA 8A AE 40 00             mov	$0x40ae8a, %edx
0x401ce6: BE E3 AE 40 00             mov	$0x40aee3, %esi
0x401ceb: 31 C0                      xor	%eax, %eax
0x401ced: 48 C7 04 24 00 00 00 00    movq	$0x0, (%rsp)
0x401cf5: E8 C6 21 00 00             callq	0x0000000000403ec0
0x401cfa: 31 FF                      xor	%edi, %edi
0x401cfc: E8 0F F8 FF FF             callq	0x0000000000401510
0x401d01: BB 01 00 00 00             mov	$0x1, %ebx
0x401d06: E9 CD FE FF FF             jmpq	0x0000000000401bd8
0x401d0b: 0F 1F 44 00 00             nopl	0x0(%rax,%rax,1)
0x401d10: 41 BD 01 00 00 00          mov	$0x1, %r13d
0x401d16: C6 44 24 65 01             movb	$0x1, 0x65(%rsp)
0x401d1b: E9 B8 FE FF FF             jmpq	0x0000000000401bd8
0x401d20: C6 44 24 77 01             movb	$0x1, 0x77(%rsp)
0x401d25: E9 AE FE FF FF             jmpq	0x0000000000401bd8
0x401d2a: 48 8D 84 24 60 01 00 00    lea	0x160(%rsp), %rax
0x401d32: BE 01 00 00 00             mov	$0x1, %esi
0x401d37: BF 01 00 00 00             mov	$0x1, %edi
0x401d3c: 48 89 C2                   mov	%rax, %rdx
0x401d3f: 48 89 44 24 10             mov	%rax, 0x10(%rsp)
0x401d44: E8 A7 F9 FF FF             callq	0x00000000004016f0
0x401d49: 85 C0                      test	%eax, %eax
0x401d4b: 0F 88 FB 0A 00 00          js	0x000000000040284c
0x401d51: 48 8D 94 24 D0 00 00 00    lea	0xd0(%rsp), %rdx
0x401d59: B9 12 00 00 00             mov	$0x12, %ecx
0x401d5e: 48 8B 74 24 10             mov	0x10(%rsp), %rsi
0x401d63: 48 89 D7                   mov	%rdx, %rdi
0x401d66: 48 89 54 24 18             mov	%rdx, 0x18(%rsp)
0x401d6b: 48 BA 00 80 FF FF FF FF    mov	$0x1fffffffffff8000, %rdx
          FF 1F
0x401d75: F3 48 A5                   rep  movsq	%ds:(%rsi), %es:(%rdi)
0x401d78: 4C 8B A4 24 08 01 00 00    mov	0x108(%rsp), %r12
0x401d80: 49 8D 84 24 00 80 FF FF    lea	-0x8000(%r12), %rax
0x401d88: 48 39 D0                   cmp	%rdx, %rax
0x401d8b: 0F 86 E3 08 00 00          jbe	0x0000000000402674
0x401d91: 41 BC 00 80 00 00          mov	$0x8000, %r12d
0x401d97: 8B 84 24 78 01 00 00       mov	0x178(%rsp), %eax
0x401d9e: C6 84 24 B2 00 00 00 00    movb	$0x0, 0xb2(%rsp)
0x401da6: 25 00 F0 00 00             and	$0xf000, %eax
0x401dab: 3D 00 80 00 00             cmp	$0x8000, %eax
0x401db0: 0F 84 2B 0A 00 00          je	0x00000000004027e1
0x401db6: 8B 05 A4 B4 20 00          mov	0x20b4a4(%rip), %eax	#  0x000000000060d260
0x401dbc: 0F B6 54 24 65             movzbl	0x65(%rsp), %edx
0x401dc1: 41 83 F5 01                xor	$0x1, %r13d
0x401dc5: 48 C7 05 C0 B4 20 00 16    movq	$0x40b116, 0x20b4c0(%rip)	#  0x000000000060d290
          B1 40 00
0x401dd0: C6 84 24 B3 00 00 00 00    movb	$0x0, 0xb3(%rsp)
0x401dd8: C6 84 24 9F 00 00 00 01    movb	$0x1, 0x9f(%rsp)
0x401de0: 89 84 24 80 00 00 00       mov	%eax, 0x80(%rsp)
0x401de7: 48 98                      cltq	
0x401de9: 48 8D 44 C5 00             lea	0x0(%rbp,%rax,8), %rax
0x401dee: 89 94 24 B4 00 00 00       mov	%edx, 0xb4(%rsp)
0x401df5: 48 8B 54 24 78             mov	0x78(%rsp), %rdx
0x401dfa: 48 89 84 24 88 00 00 00    mov	%rax, 0x88(%rsp)
0x401e02: 48 8B 44 24 78             mov	0x78(%rsp), %rax
0x401e07: 48 83 EA 01                sub	$0x1, %rdx
0x401e0b: 48 89 94 24 A0 00 00 00    mov	%rdx, 0xa0(%rsp)
0x401e13: 4A 8D 44 20 12             lea	0x12(%rax,%r12,1), %rax
0x401e18: 48 89 84 24 C0 00 00 00    mov	%rax, 0xc0(%rsp)
0x401e20: 8B 84 24 B4 00 00 00       mov	0xb4(%rsp), %eax
0x401e27: 44 21 E8                   and	%r13d, %eax
0x401e2a: 89 84 24 84 00 00 00       mov	%eax, 0x84(%rsp)
0x401e31: 8B 54 24 60                mov	0x60(%rsp), %edx
0x401e35: 39 94 24 80 00 00 00       cmp	%edx, 0x80(%rsp)
0x401e3c: 0F 8C 2C 06 00 00          jl	0x000000000040246e
0x401e42: 48 8B 3D 47 B4 20 00       mov	0x20b447(%rip), %rdi	#  0x000000000060d290
0x401e49: 0F B6 07                   movzbl	(%rdi), %eax
0x401e4c: 3A 05 C4 92 00 00          cmp	0x92c4(%rip), %al	#  0x000000000040b116
0x401e52: 0F 84 ED 05 00 00          je	0x0000000000402445
0x401e58: 31 F6                      xor	%esi, %esi
0x401e5a: 31 C0                      xor	%eax, %eax
0x401e5c: E8 BF F9 FF FF             callq	0x0000000000401820
0x401e61: 85 C0                      test	%eax, %eax
0x401e63: 89 C6                      mov	%eax, %esi
0x401e65: 89 05 2D B4 20 00          mov	%eax, 0x20b42d(%rip)	#  0x000000000060d298
0x401e6b: 0F 88 23 08 00 00          js	0x0000000000402694
0x401e71: 48 8D 94 24 60 01 00 00    lea	0x160(%rsp), %rdx
0x401e79: BF 01 00 00 00             mov	$0x1, %edi
0x401e7e: E8 6D F8 FF FF             callq	0x00000000004016f0
0x401e83: 85 C0                      test	%eax, %eax
0x401e85: 0F 88 24 07 00 00          js	0x00000000004025af
0x401e8b: B9 12 00 00 00             mov	$0x12, %ecx
0x401e90: 48 8B 7C 24 18             mov	0x18(%rsp), %rdi
0x401e95: 48 8B 74 24 10             mov	0x10(%rsp), %rsi
0x401e9a: F3 48 A5                   rep  movsq	%ds:(%rsi), %es:(%rdi)
0x401e9d: 48 B8 00 80 FF FF FF FF    mov	$0x1fffffffffff8000, %rax
          FF 1F
0x401ea7: 48 8B 94 24 08 01 00 00    mov	0x108(%rsp), %rdx
0x401eaf: 48 89 54 24 58             mov	%rdx, 0x58(%rsp)
0x401eb4: 48 81 EA 00 80 00 00       sub	$0x8000, %rdx
0x401ebb: 48 39 C2                   cmp	%rax, %rdx
0x401ebe: 0F 86 C1 05 00 00          jbe	0x0000000000402485
0x401ec4: 48 C7 44 24 58 00 80 00    movq	$0x8000, 0x58(%rsp)
          00
0x401ecd: 80 BC 24 B2 00 00 00 00    cmpb	$0x0, 0xb2(%rsp)
0x401ed5: 74 16                      je	0x0000000000401eed
0x401ed7: 48 8B 84 24 B8 00 00 00    mov	0xb8(%rsp), %rax
0x401edf: 48 39 84 24 60 01 00 00    cmp	%rax, 0x160(%rsp)
0x401ee7: 0F 84 EB 06 00 00          je	0x00000000004025d8
0x401eed: 80 7C 24 66 00             cmpb	$0x0, 0x66(%rsp)
0x401ef2: 75 1A                      jne	0x0000000000401f0e
0x401ef4: 8B 8C 24 B4 00 00 00       mov	0xb4(%rsp), %ecx
0x401efb: 85 C9                      test	%ecx, %ecx
0x401efd: 75 0F                      jne	0x0000000000401f0e
0x401eff: 80 7C 24 57 00             cmpb	$0x0, 0x57(%rsp)
0x401f04: 75 08                      jne	0x0000000000401f0e
0x401f06: 84 DB                      test	%bl, %bl
0x401f08: 0F 84 F9 07 00 00          je	0x0000000000402707
0x401f0e: 48 8B 7C 24 58             mov	0x58(%rsp), %rdi
0x401f13: 48 03 7C 24 78             add	0x78(%rsp), %rdi
0x401f18: E8 53 38 00 00             callq	0x0000000000405770
0x401f1d: 48 8B 94 24 C0 00 00 00    mov	0xc0(%rsp), %rdx
0x401f25: 48 89 84 24 90 00 00 00    mov	%rax, 0x90(%rsp)
0x401f2d: 48 8B 44 24 58             mov	0x58(%rsp), %rax
0x401f32: 48 8D 3C 82                lea	(%rdx,%rax,4), %rdi
0x401f36: E8 35 38 00 00             callq	0x0000000000405770
0x401f3b: 48 89 C1                   mov	%rax, %rcx
0x401f3e: 48 03 8C 24 A0 00 00 00    add	0xa0(%rsp), %rcx
0x401f46: 48 89 84 24 A8 00 00 00    mov	%rax, 0xa8(%rsp)
0x401f4e: 31 D2                      xor	%edx, %edx
0x401f50: 44 8B 2D 31 B3 20 00       mov	0x20b331(%rip), %r13d	#  0x000000000060d288
0x401f57: 88 5C 24 64                mov	%bl, 0x64(%rsp)
0x401f5b: C6 44 24 67 01             movb	$0x1, 0x67(%rsp)
0x401f60: 48 89 C8                   mov	%rcx, %rax
0x401f63: 48 F7 74 24 78             divq	0x78(%rsp)
0x401f68: 48 29 D1                   sub	%rdx, %rcx
0x401f6b: 31 D2                      xor	%edx, %edx
0x401f6d: 48 89 4C 24 30             mov	%rcx, 0x30(%rsp)
0x401f72: 48 8B 8C 24 90 00 00 00    mov	0x90(%rsp), %rcx
0x401f7a: 48 03 8C 24 A0 00 00 00    add	0xa0(%rsp), %rcx
0x401f82: 48 8B 6C 24 30             mov	0x30(%rsp), %rbp
0x401f87: 49 89 EE                   mov	%rbp, %r14
0x401f8a: 48 89 C8                   mov	%rcx, %rax
0x401f8d: 48 F7 74 24 78             divq	0x78(%rsp)
0x401f92: 48 29 D1                   sub	%rdx, %rcx
0x401f95: 48 8B 54 24 30             mov	0x30(%rsp), %rdx
0x401f9a: 48 89 C8                   mov	%rcx, %rax
0x401f9d: 48 89 4C 24 48             mov	%rcx, 0x48(%rsp)
0x401fa2: 48 89 4C 24 38             mov	%rcx, 0x38(%rsp)
0x401fa7: 48 83 C0 01                add	$0x1, %rax
0x401fab: 48 89 44 24 68             mov	%rax, 0x68(%rsp)
0x401fb0: 4C 89 E0                   mov	%r12, %rax
0x401fb3: 4C 8B 7C 24 68             mov	0x68(%rsp), %r15
0x401fb8: 4C 01 E2                   add	%r12, %rdx
0x401fbb: 48 F7 D8                   neg	%rax
0x401fbe: 48 89 54 24 40             mov	%rdx, 0x40(%rsp)
0x401fc3: 48 89 C3                   mov	%rax, %rbx
0x401fc6: 66 2E 0F 1F 84 00 00 00    nopw	%cs:0x0(%rax,%rax,1)
          00 00
0x401fd0: 4C 39 74 24 40             cmp	%r14, 0x40(%rsp)
0x401fd5: 77 7B                      ja	0x0000000000402052
0x401fd7: 4C 2B 74 24 40             sub	0x40(%rsp), %r14
0x401fdc: 48 8B 6C 24 30             mov	0x30(%rsp), %rbp
0x401fe1: EB 08                      jmp	0x0000000000401feb
0x401fe3: 0F 1F 44 00 00             nopl	0x0(%rax,%rax,1)
0x401fe8: 49 89 C6                   mov	%rax, %r14
0x401feb: 4C 89 E2                   mov	%r12, %rdx
0x401fee: 48 89 EE                   mov	%rbp, %rsi
0x401ff1: BF 01 00 00 00             mov	$0x1, %edi
0x401ff6: E8 D5 08 00 00             callq	0x00000000004028d0
0x401ffb: 49 39 C4                   cmp	%rax, %r12
0x401ffe: 74 2E                      je	0x000000000040202e
0x402000: BA 05 00 00 00             mov	$0x5, %edx
0x402005: BE 20 AF 40 00             mov	$0x40af20, %esi
0x40200a: 31 FF                      xor	%edi, %edi
0x40200c: E8 1F F7 FF FF             callq	0x0000000000401730
0x402011: 48 89 44 24 28             mov	%rax, 0x28(%rsp)
0x402016: E8 05 F7 FF FF             callq	0x0000000000401720
0x40201b: 48 8B 54 24 28             mov	0x28(%rsp), %rdx
0x402020: 8B 30                      mov	(%rax), %esi
0x402022: BF 01 00 00 00             mov	$0x1, %edi
0x402027: 31 C0                      xor	%eax, %eax
0x402029: E8 D2 F7 FF FF             callq	0x0000000000401800
0x40202e: 49 8D 04 1E                lea	(%r14,%rbx,1), %rax
0x402032: 4C 01 E5                   add	%r12, %rbp
0x402035: 48 89 C2                   mov	%rax, %rdx
0x402038: 4C 01 E2                   add	%r12, %rdx
0x40203b: 73 AB                      jae	0x0000000000401fe8
0x40203d: 48 8B 7C 24 30             mov	0x30(%rsp), %rdi
0x402042: 4C 89 F2                   mov	%r14, %rdx
0x402045: 48 89 EE                   mov	%rbp, %rsi
0x402048: E8 73 F6 FF FF             callq	0x00000000004016c0
0x40204d: 4C 03 74 24 30             add	0x30(%rsp), %r14
0x402052: 4C 3B 7C 24 38             cmp	0x38(%rsp), %r15
0x402057: 0F 86 D3 01 00 00          jbe	0x0000000000402230
0x40205d: 80 7C 24 67 00             cmpb	$0x0, 0x67(%rsp)
0x402062: C7 84 24 FC 01 00 00 00    movl	$0x0, 0x1fc(%rsp)
          00 00 00
0x40206d: 0F 85 ED 02 00 00          jne	0x0000000000402360
0x402073: 4C 89 F5                   mov	%r14, %rbp
0x402076: 48 2B 6C 24 30             sub	0x30(%rsp), %rbp
0x40207b: 0F 85 3F 03 00 00          jne	0x00000000004023c0
0x402081: 48 8B 54 24 58             mov	0x58(%rsp), %rdx
0x402086: 48 8B 74 24 48             mov	0x48(%rsp), %rsi
0x40208b: 8B 3D 07 B2 20 00          mov	0x20b207(%rip), %edi	#  0x000000000060d298
0x402091: E8 5A 34 00 00             callq	0x00000000004054f0
0x402096: 48 83 F8 FF                cmp	$0xffffffffffffffff, %rax
0x40209a: 0F 84 1C 04 00 00          je	0x00000000004024bc
0x4020a0: 48 85 C0                   test	%rax, %rax
0x4020a3: 0F 84 E7 04 00 00          je	0x0000000000402590
0x4020a9: 48 03 44 24 48             add	0x48(%rsp), %rax
0x4020ae: 48 89 44 24 38             mov	%rax, 0x38(%rsp)
0x4020b3: C6 00 0A                   movb	$0xa, (%rax)
0x4020b6: 48 8B 54 24 68             mov	0x68(%rsp), %rdx
0x4020bb: 4C 8B 7C 24 48             mov	0x48(%rsp), %r15
0x4020c0: 41 0F B6 2F                movzbl	(%r15), %ebp
0x4020c4: 40 80 FD 0A                cmp	$0xa, %bpl
0x4020c8: 0F 84 28 01 00 00          je	0x00000000004021f6
0x4020ce: 45 85 ED                   test	%r13d, %r13d
0x4020d1: 0F 88 82 00 00 00          js	0x0000000000402159
0x4020d7: 80 7C 24 65 00             cmpb	$0x0, 0x65(%rsp)
0x4020dc: 74 7B                      je	0x0000000000402159
0x4020de: 48 8B 05 1B 90 00 00       mov	0x901b(%rip), %rax	#  0x000000000040b100
0x4020e5: 0F 1F 00                   nopl	(%rax)
0x4020e8: 0F B6 08                   movzbl	(%rax), %ecx
0x4020eb: 8D 71 01                   lea	0x1(%rcx), %esi
0x4020ee: 80 F9 38                   cmp	$0x38, %cl
0x4020f1: 40 88 30                   mov	%sil, (%rax)
0x4020f4: 0F 8E B2 02 00 00          jle	0x00000000004023ac
0x4020fa: C6 00 30                   movb	$0x30, (%rax)
0x4020fd: 48 8B 0D 24 B1 20 00       mov	0x20b124(%rip), %rcx	#  0x000000000060d228
0x402104: 48 83 E8 01                sub	$0x1, %rax
0x402108: 48 39 C8                   cmp	%rcx, %rax
0x40210b: 73 DB                      jae	0x00000000004020e8
0x40210d: 48 81 F9 10 D2 60 00       cmp	$0x60d210, %rcx
0x402114: 0F 86 86 02 00 00          jbe	0x00000000004023a0
0x40211a: 48 8D 41 FF                lea	-0x1(%rcx), %rax
0x40211e: 48 89 05 03 B1 20 00       mov	%rax, 0x20b103(%rip)	#  0x000000000060d228
0x402125: C6 41 FF 31                movb	$0x31, -0x1(%rcx)
0x402129: 48 8B 35 D0 B0 20 00       mov	0x20b0d0(%rip), %rsi	#  0x000000000060d200
0x402130: 48 39 35 F1 B0 20 00       cmp	%rsi, 0x20b0f1(%rip)	#  0x000000000060d228
0x402137: 73 0B                      jae	0x0000000000402144
0x402139: 48 83 EE 01                sub	$0x1, %rsi
0x40213d: 48 89 35 BC B0 20 00       mov	%rsi, 0x20b0bc(%rip)	#  0x000000000060d200
0x402144: 4C 89 F7                   mov	%r14, %rdi
0x402147: 48 89 54 24 28             mov	%rdx, 0x28(%rsp)
0x40214c: E8 7F F3 FF FF             callq	0x00000000004014d0
0x402151: 48 8B 54 24 28             mov	0x28(%rsp), %rdx
0x402156: 49 89 C6                   mov	%rax, %r14
0x402159: 80 7C 24 57 00             cmpb	$0x0, 0x57(%rsp)
0x40215e: 0F 84 9C 01 00 00          je	0x0000000000402300
0x402164: 0F B6 4C 24 64             movzbl	0x64(%rsp), %ecx
0x402169: EB 19                      jmp	0x0000000000402184
0x40216b: 0F 1F 44 00 00             nopl	0x0(%rax,%rax,1)
0x402170: 40 80 FD 7E                cmp	$0x7e, %bpl
0x402174: 77 3A                      ja	0x00000000004021b0
0x402176: 41 88 2E                   mov	%bpl, (%r14)
0x402179: 49 83 C6 01                add	$0x1, %r14
0x40217d: 0F B6 2A                   movzbl	(%rdx), %ebp
0x402180: 48 83 C2 01                add	$0x1, %rdx
0x402184: 40 80 FD 1F                cmp	$0x1f, %bpl
0x402188: 77 E6                      ja	0x0000000000402170
0x40218a: 40 80 FD 09                cmp	$0x9, %bpl
0x40218e: 74 50                      je	0x00000000004021e0
0x402190: 40 80 FD 0A                cmp	$0xa, %bpl
0x402194: 74 5A                      je	0x00000000004021f0
0x402196: 83 C5 40                   add	$0x40, %ebp
0x402199: 41 C6 06 5E                movb	$0x5e, (%r14)
0x40219d: 41 88 6E 01                mov	%bpl, 0x1(%r14)
0x4021a1: 49 83 C6 02                add	$0x2, %r14
0x4021a5: EB D6                      jmp	0x000000000040217d
0x4021a7: 66 0F 1F 84 00 00 00 00    nopw	0x0(%rax,%rax,1)
          00
0x4021b0: 40 80 FD 7F                cmp	$0x7f, %bpl
0x4021b4: 74 62                      je	0x0000000000402218
0x4021b6: 40 80 FD 9F                cmp	$0x9f, %bpl
0x4021ba: 41 C6 06 4D                movb	$0x4d, (%r14)
0x4021be: 41 C6 46 01 2D             movb	$0x2d, 0x1(%r14)
0x4021c3: 49 8D 46 02                lea	0x2(%r14), %rax
0x4021c7: 76 37                      jbe	0x0000000000402200
0x4021c9: 40 80 FD FF                cmp	$0xff, %bpl
0x4021cd: 0F 84 75 01 00 00          je	0x0000000000402348
0x4021d3: 83 C5 80                   add	$0xffffffffffffff80, %ebp
0x4021d6: 49 83 C6 03                add	$0x3, %r14
0x4021da: 40 88 28                   mov	%bpl, (%rax)
0x4021dd: EB 9E                      jmp	0x000000000040217d
0x4021df: 90                         nop	
0x4021e0: 84 C9                      test	%cl, %cl
0x4021e2: 75 B2                      jne	0x0000000000402196
0x4021e4: 41 C6 06 09                movb	$0x9, (%r14)
0x4021e8: 49 83 C6 01                add	$0x1, %r14
0x4021ec: EB 8F                      jmp	0x000000000040217d
0x4021ee: 66 90                      xchg	%ax, %ax
0x4021f0: 41 BD FF FF FF FF          mov	$0xffffffff, %r13d
0x4021f6: 49 89 D7                   mov	%rdx, %r15
0x4021f9: E9 D2 FD FF FF             jmpq	0x0000000000401fd0
0x4021fe: 66 90                      xchg	%ax, %ax
0x402200: 83 ED 40                   sub	$0x40, %ebp
0x402203: 41 C6 46 02 5E             movb	$0x5e, 0x2(%r14)
0x402208: 41 88 6E 03                mov	%bpl, 0x3(%r14)
0x40220c: 49 83 C6 04                add	$0x4, %r14
0x402210: E9 68 FF FF FF             jmpq	0x000000000040217d
0x402215: 0F 1F 00                   nopl	(%rax)
0x402218: 41 C6 06 5E                movb	$0x5e, (%r14)
0x40221c: 41 C6 46 01 3F             movb	$0x3f, 0x1(%r14)
0x402221: 49 83 C6 02                add	$0x2, %r14
0x402225: E9 53 FF FF FF             jmpq	0x000000000040217d
0x40222a: 66 0F 1F 44 00 00          nopw	0x0(%rax,%rax,1)
0x402230: 41 83 C5 01                add	$0x1, %r13d
0x402234: 45 85 ED                   test	%r13d, %r13d
0x402237: 0F 8E A1 00 00 00          jle	0x00000000004022de
0x40223d: 41 83 FD 01                cmp	$0x1, %r13d
0x402241: 74 1D                      je	0x0000000000402260
0x402243: 80 7C 24 77 00             cmpb	$0x0, 0x77(%rsp)
0x402248: 41 BD 02 00 00 00          mov	$0x2, %r13d
0x40224e: 74 10                      je	0x0000000000402260
0x402250: 41 0F B6 2F                movzbl	(%r15), %ebp
0x402254: 49 8D 57 01                lea	0x1(%r15), %rdx
0x402258: E9 67 FE FF FF             jmpq	0x00000000004020c4
0x40225d: 0F 1F 00                   nopl	(%rax)
0x402260: 8B 84 24 84 00 00 00       mov	0x84(%rsp), %eax
0x402267: 85 C0                      test	%eax, %eax
0x402269: 74 73                      je	0x00000000004022de
0x40226b: 48 8B 05 8E 8E 00 00       mov	0x8e8e(%rip), %rax	#  0x000000000040b100
0x402272: 66 0F 1F 44 00 00          nopw	0x0(%rax,%rax,1)
0x402278: 0F B6 10                   movzbl	(%rax), %edx
0x40227b: 8D 4A 01                   lea	0x1(%rdx), %ecx
0x40227e: 80 FA 38                   cmp	$0x38, %dl
0x402281: 88 08                      mov	%cl, (%rax)
0x402283: 0F 8E 27 02 00 00          jle	0x00000000004024b0
0x402289: C6 00 30                   movb	$0x30, (%rax)
0x40228c: 48 8B 15 95 AF 20 00       mov	0x20af95(%rip), %rdx	#  0x000000000060d228
0x402293: 48 83 E8 01                sub	$0x1, %rax
0x402297: 48 39 D0                   cmp	%rdx, %rax
0x40229a: 73 DC                      jae	0x0000000000402278
0x40229c: 48 81 FA 10 D2 60 00       cmp	$0x60d210, %rdx
0x4022a3: 0F 86 62 01 00 00          jbe	0x000000000040240b
0x4022a9: 48 8D 42 FF                lea	-0x1(%rdx), %rax
0x4022ad: 48 89 05 74 AF 20 00       mov	%rax, 0x20af74(%rip)	#  0x000000000060d228
0x4022b4: C6 42 FF 31                movb	$0x31, -0x1(%rdx)
0x4022b8: 48 8B 35 41 AF 20 00       mov	0x20af41(%rip), %rsi	#  0x000000000060d200
0x4022bf: 48 39 35 62 AF 20 00       cmp	%rsi, 0x20af62(%rip)	#  0x000000000060d228
0x4022c6: 73 0B                      jae	0x00000000004022d3
0x4022c8: 48 83 EE 01                sub	$0x1, %rsi
0x4022cc: 48 89 35 2D AF 20 00       mov	%rsi, 0x20af2d(%rip)	#  0x000000000060d200
0x4022d3: 4C 89 F7                   mov	%r14, %rdi
0x4022d6: E8 F5 F1 FF FF             callq	0x00000000004014d0
0x4022db: 49 89 C6                   mov	%rax, %r14
0x4022de: 80 7C 24 66 00             cmpb	$0x0, 0x66(%rsp)
0x4022e3: 74 08                      je	0x00000000004022ed
0x4022e5: 41 C6 06 24                movb	$0x24, (%r14)
0x4022e9: 49 83 C6 01                add	$0x1, %r14
0x4022ed: 41 C6 06 0A                movb	$0xa, (%r14)
0x4022f1: 49 8D 57 01                lea	0x1(%r15), %rdx
0x4022f5: 49 83 C6 01                add	$0x1, %r14
0x4022f9: E9 C2 FD FF FF             jmpq	0x00000000004020c0
0x4022fe: 66 90                      xchg	%ax, %ax
0x402300: 0F B6 44 24 64             movzbl	0x64(%rsp), %eax
0x402305: EB 21                      jmp	0x0000000000402328
0x402307: 66 0F 1F 84 00 00 00 00    nopw	0x0(%rax,%rax,1)
          00
0x402310: 40 80 FD 0A                cmp	$0xa, %bpl
0x402314: 0F 84 D6 FE FF FF          je	0x00000000004021f0
0x40231a: 41 88 2E                   mov	%bpl, (%r14)
0x40231d: 49 83 C6 01                add	$0x1, %r14
0x402321: 0F B6 2A                   movzbl	(%rdx), %ebp
0x402324: 48 83 C2 01                add	$0x1, %rdx
0x402328: 40 80 FD 09                cmp	$0x9, %bpl
0x40232c: 75 E2                      jne	0x0000000000402310
0x40232e: 84 C0                      test	%al, %al
0x402330: 74 E8                      je	0x000000000040231a
0x402332: 41 C6 06 5E                movb	$0x5e, (%r14)
0x402336: 41 C6 46 01 49             movb	$0x49, 0x1(%r14)
0x40233b: 49 83 C6 02                add	$0x2, %r14
0x40233f: EB E0                      jmp	0x0000000000402321
0x402341: 0F 1F 80 00 00 00 00       nopl	0x0(%rax)
0x402348: C6 00 5E                   movb	$0x5e, (%rax)
0x40234b: 41 C6 46 03 3F             movb	$0x3f, 0x3(%r14)
0x402350: 49 83 C6 04                add	$0x4, %r14
0x402354: E9 24 FE FF FF             jmpq	0x000000000040217d
0x402359: 0F 1F 80 00 00 00 00       nopl	0x0(%rax)
0x402360: 8B 3D 32 AF 20 00          mov	0x20af32(%rip), %edi	#  0x000000000060d298
0x402366: 48 8D 94 24 FC 01 00 00    lea	0x1fc(%rsp), %rdx
0x40236e: 31 C0                      xor	%eax, %eax
0x402370: BE 1B 54 00 00             mov	$0x541b, %esi
0x402375: E8 26 F1 FF FF             callq	0x00000000004014a0
0x40237a: 85 C0                      test	%eax, %eax
0x40237c: 0F 88 95 00 00 00          js	0x0000000000402417
0x402382: 8B 94 24 FC 01 00 00       mov	0x1fc(%rsp), %edx
0x402389: 85 D2                      test	%edx, %edx
0x40238b: 0F 85 F0 FC FF FF          jne	0x0000000000402081
0x402391: E9 DD FC FF FF             jmpq	0x0000000000402073
0x402396: 66 2E 0F 1F 84 00 00 00    nopw	%cs:0x0(%rax,%rax,1)
          00 00
0x4023a0: C6 05 69 AE 20 00 3E       movb	$0x3e, 0x20ae69(%rip)	#  0x000000000060d210
0x4023a7: E9 7D FD FF FF             jmpq	0x0000000000402129
0x4023ac: 48 8B 35 4D AE 20 00       mov	0x20ae4d(%rip), %rsi	#  0x000000000060d200
0x4023b3: E9 8C FD FF FF             jmpq	0x0000000000402144
0x4023b8: 0F 1F 84 00 00 00 00 00    nopl	0x0(%rax,%rax,1)
0x4023c0: 48 8B 74 24 30             mov	0x30(%rsp), %rsi
0x4023c5: 48 89 EA                   mov	%rbp, %rdx
0x4023c8: BF 01 00 00 00             mov	$0x1, %edi
0x4023cd: E8 FE 04 00 00             callq	0x00000000004028d0
0x4023d2: 48 39 C5                   cmp	%rax, %rbp
0x4023d5: 74 2A                      je	0x0000000000402401
0x4023d7: BA 05 00 00 00             mov	$0x5, %edx
0x4023dc: BE 20 AF 40 00             mov	$0x40af20, %esi
0x4023e1: 31 FF                      xor	%edi, %edi
0x4023e3: E8 48 F3 FF FF             callq	0x0000000000401730
0x4023e8: 48 89 C5                   mov	%rax, %rbp
0x4023eb: E8 30 F3 FF FF             callq	0x0000000000401720
0x4023f0: 8B 30                      mov	(%rax), %esi
0x4023f2: 48 89 EA                   mov	%rbp, %rdx
0x4023f5: BF 01 00 00 00             mov	$0x1, %edi
0x4023fa: 31 C0                      xor	%eax, %eax
0x4023fc: E8 FF F3 FF FF             callq	0x0000000000401800
0x402401: 4C 8B 74 24 30             mov	0x30(%rsp), %r14
0x402406: E9 76 FC FF FF             jmpq	0x0000000000402081
0x40240b: C6 05 FE AD 20 00 3E       movb	$0x3e, 0x20adfe(%rip)	#  0x000000000060d210
0x402412: E9 A1 FE FF FF             jmpq	0x00000000004022b8
0x402417: E8 04 F3 FF FF             callq	0x0000000000401720
0x40241c: 8B 10                      mov	(%rax), %edx
0x40241e: 83 FA 19                   cmp	$0x19, %edx
0x402421: 74 18                      je	0x000000000040243b
0x402423: 83 FA 5F                   cmp	$0x5f, %edx
0x402426: 74 13                      je	0x000000000040243b
0x402428: 83 FA 16                   cmp	$0x16, %edx
0x40242b: 74 0E                      je	0x000000000040243b
0x40242d: 83 FA 13                   cmp	$0x13, %edx
0x402430: 74 09                      je	0x000000000040243b
0x402432: 83 FA 26                   cmp	$0x26, %edx
0x402435: 0F 85 40 04 00 00          jne	0x000000000040287b
0x40243b: C6 44 24 67 00             movb	$0x0, 0x67(%rsp)
0x402440: E9 3D FF FF FF             jmpq	0x0000000000402382
0x402445: 0F B6 47 01                movzbl	0x1(%rdi), %eax
0x402449: 3A 05 C8 8C 00 00          cmp	0x8cc8(%rip), %al	#  0x000000000040b117
0x40244f: 0F 85 03 FA FF FF          jne	0x0000000000401e58
0x402455: C7 05 39 AE 20 00 00 00    movl	$0x0, 0x20ae39(%rip)	#  0x000000000060d298
          00 00
0x40245f: 31 F6                      xor	%esi, %esi
0x402461: C6 84 24 B3 00 00 00 01    movb	$0x1, 0xb3(%rsp)
0x402469: E9 03 FA FF FF             jmpq	0x0000000000401e71
0x40246e: 48 8B 84 24 88 00 00 00    mov	0x88(%rsp), %rax
0x402476: 48 8B 38                   mov	(%rax), %rdi
0x402479: 48 89 3D 10 AE 20 00       mov	%rdi, 0x20ae10(%rip)	#  0x000000000060d290
0x402480: E9 C4 F9 FF FF             jmpq	0x0000000000401e49
0x402485: 48 8B 54 24 58             mov	0x58(%rsp), %rdx
0x40248a: 48 B8 FF FF FF FF FF FF    mov	$0x1fffffffffffffff, %rax
          FF 1F
0x402494: 48 83 EA 01                sub	$0x1, %rdx
0x402498: 48 39 C2                   cmp	%rax, %rdx
0x40249b: B8 00 02 00 00             mov	$0x200, %eax
0x4024a0: 48 0F 46 44 24 58          cmovbe	0x58(%rsp), %rax
0x4024a6: 48 89 44 24 58             mov	%rax, 0x58(%rsp)
0x4024ab: E9 1D FA FF FF             jmpq	0x0000000000401ecd
0x4024b0: 48 8B 35 49 AD 20 00       mov	0x20ad49(%rip), %rsi	#  0x000000000060d200
0x4024b7: E9 17 FE FF FF             jmpq	0x00000000004022d3
0x4024bc: E8 5F F2 FF FF             callq	0x0000000000401720
0x4024c1: 48 8B 0D C8 AD 20 00       mov	0x20adc8(%rip), %rcx	#  0x000000000060d290
0x4024c8: 8B 30                      mov	(%rax), %esi
0x4024ca: 4C 89 F5                   mov	%r14, %rbp
0x4024cd: 31 FF                      xor	%edi, %edi
0x4024cf: 49 89 C6                   mov	%rax, %r14
0x4024d2: BA 44 B5 40 00             mov	$0x40b544, %edx
0x4024d7: 31 C0                      xor	%eax, %eax
0x4024d9: 0F B6 5C 24 64             movzbl	0x64(%rsp), %ebx
0x4024de: E8 1D F3 FF FF             callq	0x0000000000401800
0x4024e3: 48 2B 6C 24 30             sub	0x30(%rsp), %rbp
0x4024e8: 0F 85 43 01 00 00          jne	0x0000000000402631
0x4024ee: 44 89 2D 93 AD 20 00       mov	%r13d, 0x20ad93(%rip)	#  0x000000000060d288
0x4024f5: C6 84 24 9F 00 00 00 00    movb	$0x0, 0x9f(%rsp)
0x4024fd: 48 8B BC 24 A8 00 00 00    mov	0xa8(%rsp), %rdi
0x402505: E8 F6 F0 FF FF             callq	0x0000000000401600
0x40250a: 48 8B BC 24 90 00 00 00    mov	0x90(%rsp), %rdi
0x402512: E8 E9 F0 FF FF             callq	0x0000000000401600
0x402517: 48 8B 05 72 AD 20 00       mov	0x20ad72(%rip), %rax	#  0x000000000060d290
0x40251e: 0F B6 10                   movzbl	(%rax), %edx
0x402521: 3A 15 EF 8B 00 00          cmp	0x8bef(%rip), %dl	#  0x000000000040b116
0x402527: 74 59                      je	0x0000000000402582
0x402529: 8B 3D 69 AD 20 00          mov	0x20ad69(%rip), %edi	#  0x000000000060d298
0x40252f: E8 5C EF FF FF             callq	0x0000000000401490
0x402534: 85 C0                      test	%eax, %eax
0x402536: 0F 88 58 01 00 00          js	0x0000000000402694
0x40253c: 83 84 24 80 00 00 00 01    addl	$0x1, 0x80(%rsp)
0x402544: 48 83 84 24 88 00 00 00    addq	$0x8, 0x88(%rsp)
          08
0x40254d: 8B 84 24 80 00 00 00       mov	0x80(%rsp), %eax
0x402554: 39 44 24 60                cmp	%eax, 0x60(%rsp)
0x402558: 0F 8F D3 F8 FF FF          jg	0x0000000000401e31
0x40255e: 80 BC 24 B3 00 00 00 00    cmpb	$0x0, 0xb3(%rsp)
0x402566: 0F 85 A2 02 00 00          jne	0x000000000040280e
0x40256c: BF 01 00 00 00             mov	$0x1, %edi
0x402571: 40 32 BC 24 9F 00 00 00    xor	0x9f(%rsp), %dil
0x402579: 40 0F B6 FF                movzbl	%dil, %edi
0x40257d: E8 8E EF FF FF             callq	0x0000000000401510
0x402582: 0F B6 40 01                movzbl	0x1(%rax), %eax
0x402586: 3A 05 8B 8B 00 00          cmp	0x8b8b(%rip), %al	#  0x000000000040b117
0x40258c: 74 AE                      je	0x000000000040253c
0x40258e: EB 99                      jmp	0x0000000000402529
0x402590: 4C 89 F5                   mov	%r14, %rbp
0x402593: 48 2B 6C 24 30             sub	0x30(%rsp), %rbp
0x402598: 0F B6 5C 24 64             movzbl	0x64(%rsp), %ebx
0x40259d: 0F 85 1A 01 00 00          jne	0x00000000004026bd
0x4025a3: 44 89 2D DE AC 20 00       mov	%r13d, 0x20acde(%rip)	#  0x000000000060d288
0x4025aa: E9 4E FF FF FF             jmpq	0x00000000004024fd
0x4025af: E8 6C F1 FF FF             callq	0x0000000000401720
0x4025b4: 48 8B 0D D5 AC 20 00       mov	0x20acd5(%rip), %rcx	#  0x000000000060d290
0x4025bb: 8B 30                      mov	(%rax), %esi
0x4025bd: BA 44 B5 40 00             mov	$0x40b544, %edx
0x4025c2: 31 FF                      xor	%edi, %edi
0x4025c4: 31 C0                      xor	%eax, %eax
0x4025c6: E8 35 F2 FF FF             callq	0x0000000000401800
0x4025cb: C6 84 24 9F 00 00 00 00    movb	$0x0, 0x9f(%rsp)
0x4025d3: E9 3F FF FF FF             jmpq	0x0000000000402517
0x4025d8: 48 8B 94 24 C8 00 00 00    mov	0xc8(%rsp), %rdx
0x4025e0: 48 39 94 24 68 01 00 00    cmp	%rdx, 0x168(%rsp)
0x4025e8: 0F 85 FF F8 FF FF          jne	0x0000000000401eed
0x4025ee: 83 3D A3 AC 20 00 00       cmpl	$0x0, 0x20aca3(%rip)	#  0x000000000060d298
0x4025f5: 0F 84 F2 F8 FF FF          je	0x0000000000401eed
0x4025fb: 48 8B 2D 8E AC 20 00       mov	0x20ac8e(%rip), %rbp	#  0x000000000060d290
0x402602: BA 05 00 00 00             mov	$0x5, %edx
0x402607: BE 02 AF 40 00             mov	$0x40af02, %esi
0x40260c: 31 FF                      xor	%edi, %edi
0x40260e: E8 1D F1 FF FF             callq	0x0000000000401730
0x402613: 48 89 E9                   mov	%rbp, %rcx
0x402616: 48 89 C2                   mov	%rax, %rdx
0x402619: 31 F6                      xor	%esi, %esi
0x40261b: 31 FF                      xor	%edi, %edi
0x40261d: 31 C0                      xor	%eax, %eax
0x40261f: E8 DC F1 FF FF             callq	0x0000000000401800
0x402624: C6 84 24 9F 00 00 00 00    movb	$0x0, 0x9f(%rsp)
0x40262c: E9 E6 FE FF FF             jmpq	0x0000000000402517
0x402631: 48 8B 74 24 30             mov	0x30(%rsp), %rsi
0x402636: 48 89 EA                   mov	%rbp, %rdx
0x402639: BF 01 00 00 00             mov	$0x1, %edi
0x40263e: E8 8D 02 00 00             callq	0x00000000004028d0
0x402643: 48 39 C5                   cmp	%rax, %rbp
0x402646: 0F 84 A2 FE FF FF          je	0x00000000004024ee
0x40264c: 31 FF                      xor	%edi, %edi
0x40264e: BA 05 00 00 00             mov	$0x5, %edx
0x402653: BE 20 AF 40 00             mov	$0x40af20, %esi
0x402658: E8 D3 F0 FF FF             callq	0x0000000000401730
0x40265d: 41 8B 36                   mov	(%r14), %esi
0x402660: 48 89 C2                   mov	%rax, %rdx
0x402663: BF 01 00 00 00             mov	$0x1, %edi
0x402668: 31 C0                      xor	%eax, %eax
0x40266a: E8 91 F1 FF FF             callq	0x0000000000401800
0x40266f: E9 7A FE FF FF             jmpq	0x00000000004024ee
0x402674: 49 8D 44 24 FF             lea	-0x1(%r12), %rax
0x402679: 48 BA FF FF FF FF FF FF    mov	$0x1fffffffffffffff, %rdx
          FF 1F
0x402683: 48 39 D0                   cmp	%rdx, %rax
0x402686: B8 00 02 00 00             mov	$0x200, %eax
0x40268b: 4C 0F 47 E0                cmova	%rax, %r12
0x40268f: E9 03 F7 FF FF             jmpq	0x0000000000401d97
0x402694: E8 87 F0 FF FF             callq	0x0000000000401720
0x402699: 48 8B 0D F0 AB 20 00       mov	0x20abf0(%rip), %rcx	#  0x000000000060d290
0x4026a0: 8B 30                      mov	(%rax), %esi
0x4026a2: BA 44 B5 40 00             mov	$0x40b544, %edx
0x4026a7: 31 FF                      xor	%edi, %edi
0x4026a9: 31 C0                      xor	%eax, %eax
0x4026ab: E8 50 F1 FF FF             callq	0x0000000000401800
0x4026b0: C6 84 24 9F 00 00 00 00    movb	$0x0, 0x9f(%rsp)
0x4026b8: E9 7F FE FF FF             jmpq	0x000000000040253c
0x4026bd: 48 8B 74 24 30             mov	0x30(%rsp), %rsi
0x4026c2: 48 89 EA                   mov	%rbp, %rdx
0x4026c5: BF 01 00 00 00             mov	$0x1, %edi
0x4026ca: E8 01 02 00 00             callq	0x00000000004028d0
0x4026cf: 48 39 C5                   cmp	%rax, %rbp
0x4026d2: 0F 84 CB FE FF FF          je	0x00000000004025a3
0x4026d8: 31 FF                      xor	%edi, %edi
0x4026da: BA 05 00 00 00             mov	$0x5, %edx
0x4026df: BE 20 AF 40 00             mov	$0x40af20, %esi
0x4026e4: E8 47 F0 FF FF             callq	0x0000000000401730
0x4026e9: 48 89 C5                   mov	%rax, %rbp
0x4026ec: E8 2F F0 FF FF             callq	0x0000000000401720
0x4026f1: 8B 30                      mov	(%rax), %esi
0x4026f3: 48 89 EA                   mov	%rbp, %rdx
0x4026f6: BF 01 00 00 00             mov	$0x1, %edi
0x4026fb: 31 C0                      xor	%eax, %eax
0x4026fd: E8 FE F0 FF FF             callq	0x0000000000401800
0x402702: E9 9C FE FF FF             jmpq	0x00000000004025a3
0x402707: 80 7C 24 77 00             cmpb	$0x0, 0x77(%rsp)
0x40270c: 0F 85 FC F7 FF FF          jne	0x0000000000401f0e
0x402712: 4C 39 64 24 58             cmp	%r12, 0x58(%rsp)
0x402717: 4C 8B 74 24 58             mov	0x58(%rsp), %r14
0x40271c: 48 8B BC 24 A0 00 00 00    mov	0xa0(%rsp), %rdi
0x402724: 4D 0F 42 F4                cmovb	%r12, %r14
0x402728: 4C 01 F7                   add	%r14, %rdi
0x40272b: E8 40 30 00 00             callq	0x0000000000405770
0x402730: 49 89 C5                   mov	%rax, %r13
0x402733: 4C 03 AC 24 A0 00 00 00    add	0xa0(%rsp), %r13
0x40273b: 48 89 84 24 90 00 00 00    mov	%rax, 0x90(%rsp)
0x402743: 31 D2                      xor	%edx, %edx
0x402745: 4C 89 E8                   mov	%r13, %rax
0x402748: 48 F7 74 24 78             divq	0x78(%rsp)
0x40274d: 49 29 D5                   sub	%rdx, %r13
0x402750: 8B 3D 42 AB 20 00          mov	0x20ab42(%rip), %edi	#  0x000000000060d298
0x402756: 4C 89 F2                   mov	%r14, %rdx
0x402759: 4C 89 EE                   mov	%r13, %rsi
0x40275c: E8 8F 2D 00 00             callq	0x00000000004054f0
0x402761: 48 83 F8 FF                cmp	$0xffffffffffffffff, %rax
0x402765: 48 89 C5                   mov	%rax, %rbp
0x402768: 74 46                      je	0x00000000004027b0
0x40276a: 48 85 C0                   test	%rax, %rax
0x40276d: 74 6B                      je	0x00000000004027da
0x40276f: 48 89 C2                   mov	%rax, %rdx
0x402772: 4C 89 EE                   mov	%r13, %rsi
0x402775: BF 01 00 00 00             mov	$0x1, %edi
0x40277a: E8 51 01 00 00             callq	0x00000000004028d0
0x40277f: 48 39 C5                   cmp	%rax, %rbp
0x402782: 74 CC                      je	0x0000000000402750
0x402784: 31 FF                      xor	%edi, %edi
0x402786: BA 05 00 00 00             mov	$0x5, %edx
0x40278b: BE 20 AF 40 00             mov	$0x40af20, %esi
0x402790: E8 9B EF FF FF             callq	0x0000000000401730
0x402795: 48 89 C5                   mov	%rax, %rbp
0x402798: E8 83 EF FF FF             callq	0x0000000000401720
0x40279d: 8B 30                      mov	(%rax), %esi
0x40279f: 48 89 EA                   mov	%rbp, %rdx
0x4027a2: BF 01 00 00 00             mov	$0x1, %edi
0x4027a7: 31 C0                      xor	%eax, %eax
0x4027a9: E8 52 F0 FF FF             callq	0x0000000000401800
0x4027ae: EB A0                      jmp	0x0000000000402750
0x4027b0: E8 6B EF FF FF             callq	0x0000000000401720
0x4027b5: 48 8B 0D D4 AA 20 00       mov	0x20aad4(%rip), %rcx	#  0x000000000060d290
0x4027bc: 8B 30                      mov	(%rax), %esi
0x4027be: BA 44 B5 40 00             mov	$0x40b544, %edx
0x4027c3: 31 C0                      xor	%eax, %eax
0x4027c5: 31 FF                      xor	%edi, %edi
0x4027c7: E8 34 F0 FF FF             callq	0x0000000000401800
0x4027cc: 31 C0                      xor	%eax, %eax
0x4027ce: 20 84 24 9F 00 00 00       and	%al, 0x9f(%rsp)
0x4027d5: E9 30 FD FF FF             jmpq	0x000000000040250a
0x4027da: B8 01 00 00 00             mov	$0x1, %eax
0x4027df: EB ED                      jmp	0x00000000004027ce
0x4027e1: 48 8B 84 24 60 01 00 00    mov	0x160(%rsp), %rax
0x4027e9: 48 8B 94 24 68 01 00 00    mov	0x168(%rsp), %rdx
0x4027f1: C6 84 24 B2 00 00 00 01    movb	$0x1, 0xb2(%rsp)
0x4027f9: 48 89 84 24 B8 00 00 00    mov	%rax, 0xb8(%rsp)
0x402801: 48 89 94 24 C8 00 00 00    mov	%rdx, 0xc8(%rsp)
0x402809: E9 A8 F5 FF FF             jmpq	0x0000000000401db6
0x40280e: 31 FF                      xor	%edi, %edi
0x402810: E8 7B EC FF FF             callq	0x0000000000401490
0x402815: 85 C0                      test	%eax, %eax
0x402817: 0F 89 4F FD FF FF          jns	0x000000000040256c
0x40281d: 31 FF                      xor	%edi, %edi
0x40281f: BA 05 00 00 00             mov	$0x5, %edx
0x402824: BE 42 AF 40 00             mov	$0x40af42, %esi
0x402829: E8 02 EF FF FF             callq	0x0000000000401730
0x40282e: 48 89 C3                   mov	%rax, %rbx
0x402831: E8 EA EE FF FF             callq	0x0000000000401720
0x402836: 8B 30                      mov	(%rax), %esi
0x402838: 48 89 DA                   mov	%rbx, %rdx
0x40283b: BF 01 00 00 00             mov	$0x1, %edi
0x402840: 31 C0                      xor	%eax, %eax
0x402842: E8 B9 EF FF FF             callq	0x0000000000401800
0x402847: E9 20 FD FF FF             jmpq	0x000000000040256c
0x40284c: 31 FF                      xor	%edi, %edi
0x40284e: BA 05 00 00 00             mov	$0x5, %edx
0x402853: BE F2 AE 40 00             mov	$0x40aef2, %esi
0x402858: E8 D3 EE FF FF             callq	0x0000000000401730
0x40285d: 49 89 C4                   mov	%rax, %r12
0x402860: E8 BB EE FF FF             callq	0x0000000000401720
0x402865: 8B 30                      mov	(%rax), %esi
0x402867: 4C 89 E2                   mov	%r12, %rdx
0x40286a: BF 01 00 00 00             mov	$0x1, %edi
0x40286f: 31 C0                      xor	%eax, %eax
0x402871: E8 8A EF FF FF             callq	0x0000000000401800
0x402876: E9 D6 F4 FF FF             jmpq	0x0000000000401d51
0x40287b: 48 8B 3D 0E AA 20 00       mov	0x20aa0e(%rip), %rdi	#  0x000000000060d290
0x402882: 49 89 C6                   mov	%rax, %r14
0x402885: 0F B6 5C 24 64             movzbl	0x64(%rsp), %ebx
0x40288a: E8 31 1A 00 00             callq	0x00000000004042c0
0x40288f: BA 05 00 00 00             mov	$0x5, %edx
0x402894: BE 2C AF 40 00             mov	$0x40af2c, %esi
0x402899: 31 FF                      xor	%edi, %edi
0x40289b: 48 89 C5                   mov	%rax, %rbp
0x40289e: E8 8D EE FF FF             callq	0x0000000000401730
0x4028a3: 41 8B 36                   mov	(%r14), %esi
0x4028a6: 48 89 C2                   mov	%rax, %rdx
0x4028a9: 48 89 E9                   mov	%rbp, %rcx
0x4028ac: 31 FF                      xor	%edi, %edi
0x4028ae: 31 C0                      xor	%eax, %eax
0x4028b0: E8 4B EF FF FF             callq	0x0000000000401800
0x4028b5: 44 89 2D CC A9 20 00       mov	%r13d, 0x20a9cc(%rip)	#  0x000000000060d288
0x4028bc: C6 84 24 9F 00 00 00 00    movb	$0x0, 0x9f(%rsp)
0x4028c4: E9 34 FC FF FF             jmpq	0x00000000004024fd
0x4028c9: 90                         nop	
0x4028ca: 90                         nop	
0x4028cb: 90                         nop	
0x4028cc: 90                         nop	
0x4028cd: 90                         nop	
0x4028ce: 90                         nop	
0x4028cf: 90                         nop	
0x4028d0: 41 55                      push	%r13
0x4028d2: 41 89 FD                   mov	%edi, %r13d
0x4028d5: 41 54                      push	%r12
0x4028d7: 45 31 E4                   xor	%r12d, %r12d
0x4028da: 55                         push	%rbp
0x4028db: 53                         push	%rbx
0x4028dc: 48 89 D3                   mov	%rdx, %rbx
0x4028df: 48 83 EC 08                sub	$0x8, %rsp
0x4028e3: 48 85 D2                   test	%rdx, %rdx
0x4028e6: 74 2C                      je	0x0000000000402914
0x4028e8: 48 89 F5                   mov	%rsi, %rbp
0x4028eb: EB 13                      jmp	0x0000000000402900
0x4028ed: 0F 1F 00                   nopl	(%rax)
0x4028f0: 48 85 C0                   test	%rax, %rax
0x4028f3: 74 33                      je	0x0000000000402928
0x4028f5: 49 01 C4                   add	%rax, %r12
0x4028f8: 48 29 C3                   sub	%rax, %rbx
0x4028fb: 74 17                      je	0x0000000000402914
0x4028fd: 48 01 C5                   add	%rax, %rbp
0x402900: 48 89 DA                   mov	%rbx, %rdx
0x402903: 48 89 EE                   mov	%rbp, %rsi
0x402906: 44 89 EF                   mov	%r13d, %edi
0x402909: E8 42 2C 00 00             callq	0x0000000000405550
0x40290e: 48 83 F8 FF                cmp	$0xffffffffffffffff, %rax
0x402912: 75 DC                      jne	0x00000000004028f0
0x402914: 48 83 C4 08                add	$0x8, %rsp
0x402918: 4C 89 E0                   mov	%r12, %rax
0x40291b: 5B                         pop	%rbx
0x40291c: 5D                         pop	%rbp
0x40291d: 41 5C                      pop	%r12
0x40291f: 41 5D                      pop	%r13
0x402921: C3                         retq	
0x402922: 66 0F 1F 44 00 00          nopw	0x0(%rax,%rax,1)
0x402928: E8 F3 ED FF FF             callq	0x0000000000401720
0x40292d: C7 00 1C 00 00 00          movl	$0x1c, (%rax)
0x402933: EB DF                      jmp	0x0000000000402914
0x402935: 90                         nop	
0x402936: 90                         nop	
0x402937: 90                         nop	
0x402938: 90                         nop	
0x402939: 90                         nop	
0x40293a: 90                         nop	
0x40293b: 90                         nop	
0x40293c: 90                         nop	
0x40293d: 90                         nop	
0x40293e: 90                         nop	
0x40293f: 90                         nop	
0x402940: 53                         push	%rbx
0x402941: BE 2F 00 00 00             mov	$0x2f, %esi
0x402946: 48 89 FB                   mov	%rdi, %rbx
0x402949: E8 12 ED FF FF             callq	0x0000000000401660
0x40294e: 48 85 C0                   test	%rax, %rax
0x402951: 74 43                      je	0x0000000000402996
0x402953: 48 8D 50 01                lea	0x1(%rax), %rdx
0x402957: 48 89 D1                   mov	%rdx, %rcx
0x40295a: 48 29 D9                   sub	%rbx, %rcx
0x40295d: 48 83 F9 06                cmp	$0x6, %rcx
0x402961: 7E 33                      jle	0x0000000000402996
0x402963: 48 8D 70 FA                lea	-0x6(%rax), %rsi
0x402967: BF 0C B1 40 00             mov	$0x40b10c, %edi
0x40296c: B9 07 00 00 00             mov	$0x7, %ecx
0x402971: F3 A6                      repz  cmpsb	%es:(%rdi), %ds:(%rsi)
0x402973: 75 21                      jne	0x0000000000402996
0x402975: B9 03 00 00 00             mov	$0x3, %ecx
0x40297a: 48 89 D6                   mov	%rdx, %rsi
0x40297d: BF 14 B1 40 00             mov	$0x40b114, %edi
0x402982: F3 A6                      repz  cmpsb	%es:(%rdi), %ds:(%rsi)
0x402984: 48 8D 58 04                lea	0x4(%rax), %rbx
0x402988: 40 0F 97 C6                seta	%sil
0x40298c: 0F 92 C1                   setb	%cl
0x40298f: 40 38 CE                   cmp	%cl, %sil
0x402992: 48 0F 45 DA                cmovne	%rdx, %rbx
0x402996: 48 89 1D 03 A9 20 00       mov	%rbx, 0x20a903(%rip)	#  0x000000000060d2a0
0x40299d: 5B                         pop	%rbx
0x40299e: C3                         retq	
0x40299f: 90                         nop	
0x4029a0: 41 57                      push	%r15
0x4029a2: 41 56                      push	%r14
0x4029a4: 41 55                      push	%r13
0x4029a6: 41 54                      push	%r12
0x4029a8: 55                         push	%rbp
0x4029a9: 53                         push	%rbx
0x4029aa: 48 81 EC E8 00 00 00       sub	$0xe8, %rsp
0x4029b1: 4C 8D 6C 24 60             lea	0x60(%rsp), %r13
0x4029b6: 4C 8D 74 24 20             lea	0x20(%rsp), %r14
0x4029bb: 48 89 7C 24 10             mov	%rdi, 0x10(%rsp)
0x4029c0: 48 89 F7                   mov	%rsi, %rdi
0x4029c3: BE 02 00 00 00             mov	$0x2, %esi
0x4029c8: 64 48 8B 04 25 28 00 00    mov	%fs:0x28, %rax
          00
0x4029d1: 48 89 84 24 D8 00 00 00    mov	%rax, 0xd8(%rsp)
0x4029d9: 31 C0                      xor	%eax, %eax
0x4029db: 49 8D 5D 04                lea	0x4(%r13), %rbx
0x4029df: 49 8D 6E 04                lea	0x4(%r14), %rbp
0x4029e3: 49 83 C5 24                add	$0x24, %r13
0x4029e7: E8 04 0D 00 00             callq	0x00000000004036f0
0x4029ec: 49 83 C6 24                add	$0x24, %r14
0x4029f0: 49 89 C7                   mov	%rax, %r15
0x4029f3: 0F 1F 44 00 00             nopl	0x0(%rax,%rax,1)
0x4029f8: 48 8B 44 24 10             mov	0x10(%rsp), %rax
0x4029fd: 80 38 00                   cmpb	$0x0, (%rax)
0x402a00: 0F 84 4A 04 00 00          je	0x0000000000402e50
0x402a06: 48 8B 7C 24 10             mov	0x10(%rsp), %rdi
0x402a0b: 4C 89 FE                   mov	%r15, %rsi
0x402a0e: E8 6D 3F 00 00             callq	0x0000000000406980
0x402a13: 48 85 C0                   test	%rax, %rax
0x402a16: 49 89 C4                   mov	%rax, %r12
0x402a19: 0F 84 31 04 00 00          je	0x0000000000402e50
0x402a1f: E8 FC EB FF FF             callq	0x0000000000401620
0x402a24: 48 83 F8 01                cmp	$0x1, %rax
0x402a28: 0F 86 62 06 00 00          jbe	0x0000000000403090
0x402a2e: 48 8B 54 24 10             mov	0x10(%rsp), %rdx
0x402a33: C6 44 24 60 00             movb	$0x0, 0x60(%rsp)
0x402a38: 48 C7 03 00 00 00 00       movq	$0x0, (%rbx)
0x402a3f: C6 44 24 6C 00             movb	$0x0, 0x6c(%rsp)
0x402a44: 49 39 D4                   cmp	%rdx, %r12
0x402a47: 48 89 54 24 70             mov	%rdx, 0x70(%rsp)
0x402a4c: 0F 86 E2 00 00 00          jbe	0x0000000000402b34
0x402a52: 80 7C 24 60 00             cmpb	$0x0, 0x60(%rsp)
0x402a57: 0F 85 68 05 00 00          jne	0x0000000000402fc5
0x402a5d: 48 8B 54 24 70             mov	0x70(%rsp), %rdx
0x402a62: 0F B6 02                   movzbl	(%rdx), %eax
0x402a65: 89 C1                      mov	%eax, %ecx
0x402a67: C0 E9 05                   shr	$0x5, %cl
0x402a6a: 0F B6 C9                   movzbl	%cl, %ecx
0x402a6d: 8B 0C 8D A0 BA 40 00       mov	0x40baa0(,%rcx,4), %ecx
0x402a74: 0F A3 C1                   bt	%eax, %ecx
0x402a77: 0F 83 33 05 00 00          jae	0x0000000000402fb0
0x402a7d: 48 C7 44 24 78 01 00 00    movq	$0x1, 0x78(%rsp)
          00
0x402a86: 0F BE 02                   movsbl	(%rdx), %eax
0x402a89: C6 84 24 80 00 00 00 01    movb	$0x1, 0x80(%rsp)
0x402a91: 89 84 24 84 00 00 00       mov	%eax, 0x84(%rsp)
0x402a98: 80 BC 24 80 00 00 00 00    cmpb	$0x0, 0x80(%rsp)
0x402aa0: C6 44 24 6C 01             movb	$0x1, 0x6c(%rsp)
0x402aa5: 0F 85 BD 04 00 00          jne	0x0000000000402f68
0x402aab: 48 8B 8C 24 88 00 00 00    mov	0x88(%rsp), %rcx
0x402ab3: 48 8B 54 24 70             mov	0x70(%rsp), %rdx
0x402ab8: 48 8B 44 24 78             mov	0x78(%rsp), %rax
0x402abd: 48 8B BC 24 80 00 00 00    mov	0x80(%rsp), %rdi
0x402ac5: C6 44 24 6C 00             movb	$0x0, 0x6c(%rsp)
0x402aca: 48 89 8C 24 B8 00 00 00    mov	%rcx, 0xb8(%rsp)
0x402ad2: 48 8B 8C 24 90 00 00 00    mov	0x90(%rsp), %rcx
0x402ada: 48 89 84 24 A8 00 00 00    mov	%rax, 0xa8(%rsp)
0x402ae2: 48 8D 04 02                lea	(%rdx,%rax,1), %rax
0x402ae6: 48 89 BC 24 B0 00 00 00    mov	%rdi, 0xb0(%rsp)
0x402aee: 48 89 94 24 A0 00 00 00    mov	%rdx, 0xa0(%rsp)
0x402af6: 48 89 8C 24 C0 00 00 00    mov	%rcx, 0xc0(%rsp)
0x402afe: 48 8B 8C 24 98 00 00 00    mov	0x98(%rsp), %rcx
0x402b06: 48 89 44 24 70             mov	%rax, 0x70(%rsp)
0x402b0b: 48 89 8C 24 C8 00 00 00    mov	%rcx, 0xc8(%rsp)
0x402b13: 89 F9                      mov	%edi, %ecx
0x402b15: 48 C1 EF 20                shr	$0x20, %rdi
0x402b19: 49 39 C4                   cmp	%rax, %r12
0x402b1c: 0F 87 30 FF FF FF          ja	0x0000000000402a52
0x402b22: 84 C9                      test	%cl, %cl
0x402b24: 74 0E                      je	0x0000000000402b34
0x402b26: E8 25 EB FF FF             callq	0x0000000000401650
0x402b2b: 85 C0                      test	%eax, %eax
0x402b2d: C6 44 24 10 00             movb	$0x0, 0x10(%rsp)
0x402b32: 75 05                      jne	0x0000000000402b39
0x402b34: C6 44 24 10 01             movb	$0x1, 0x10(%rsp)
0x402b39: C6 44 24 20 00             movb	$0x0, 0x20(%rsp)
0x402b3e: 80 7C 24 20 00             cmpb	$0x0, 0x20(%rsp)
0x402b43: 4C 89 64 24 70             mov	%r12, 0x70(%rsp)
0x402b48: C6 44 24 60 00             movb	$0x0, 0x60(%rsp)
0x402b4d: 48 C7 03 00 00 00 00       movq	$0x0, (%rbx)
0x402b54: C6 44 24 6C 00             movb	$0x0, 0x6c(%rsp)
0x402b59: 4C 89 7C 24 30             mov	%r15, 0x30(%rsp)
0x402b5e: 48 C7 45 00 00 00 00 00    movq	$0x0, 0x0(%rbp)
0x402b66: C6 44 24 2C 00             movb	$0x0, 0x2c(%rsp)
0x402b6b: 0F 85 D5 00 00 00          jne	0x0000000000402c46
0x402b71: 0F 1F 80 00 00 00 00       nopl	0x0(%rax)
0x402b78: 48 8B 54 24 30             mov	0x30(%rsp), %rdx
0x402b7d: 0F B6 02                   movzbl	(%rdx), %eax
0x402b80: 89 C1                      mov	%eax, %ecx
0x402b82: C0 E9 05                   shr	$0x5, %cl
0x402b85: 0F B6 C9                   movzbl	%cl, %ecx
0x402b88: 8B 0C 8D A0 BA 40 00       mov	0x40baa0(,%rcx,4), %ecx
0x402b8f: 0F A3 C1                   bt	%eax, %ecx
0x402b92: 0F 83 B0 03 00 00          jae	0x0000000000402f48
0x402b98: 48 C7 44 24 38 01 00 00    movq	$0x1, 0x38(%rsp)
          00
0x402ba1: 0F BE 02                   movsbl	(%rdx), %eax
0x402ba4: C6 44 24 40 01             movb	$0x1, 0x40(%rsp)
0x402ba9: 89 44 24 44                mov	%eax, 0x44(%rsp)
0x402bad: 80 7C 24 40 00             cmpb	$0x0, 0x40(%rsp)
0x402bb2: C6 44 24 2C 01             movb	$0x1, 0x2c(%rsp)
0x402bb7: 0F 85 23 01 00 00          jne	0x0000000000402ce0
0x402bbd: 80 7C 24 6C 00             cmpb	$0x0, 0x6c(%rsp)
0x402bc2: 75 4B                      jne	0x0000000000402c0f
0x402bc4: 80 7C 24 60 00             cmpb	$0x0, 0x60(%rsp)
0x402bc9: 0F 85 E6 02 00 00          jne	0x0000000000402eb5
0x402bcf: 48 8B 54 24 70             mov	0x70(%rsp), %rdx
0x402bd4: 0F B6 02                   movzbl	(%rdx), %eax
0x402bd7: 89 C1                      mov	%eax, %ecx
0x402bd9: C0 E9 05                   shr	$0x5, %cl
0x402bdc: 0F B6 C9                   movzbl	%cl, %ecx
0x402bdf: 8B 0C 8D A0 BA 40 00       mov	0x40baa0(,%rcx,4), %ecx
0x402be6: 0F A3 C1                   bt	%eax, %ecx
0x402be9: 0F 83 B1 02 00 00          jae	0x0000000000402ea0
0x402bef: 48 C7 44 24 78 01 00 00    movq	$0x1, 0x78(%rsp)
          00
0x402bf8: 0F BE 02                   movsbl	(%rdx), %eax
0x402bfb: C6 84 24 80 00 00 00 01    movb	$0x1, 0x80(%rsp)
0x402c03: 89 84 24 84 00 00 00       mov	%eax, 0x84(%rsp)
0x402c0a: C6 44 24 6C 01             movb	$0x1, 0x6c(%rsp)
0x402c0f: 80 BC 24 80 00 00 00 00    cmpb	$0x0, 0x80(%rsp)
0x402c17: 0F 85 6B 02 00 00          jne	0x0000000000402e88
0x402c1d: 48 8B 44 24 78             mov	0x78(%rsp), %rax
0x402c22: 48 01 44 24 70             add	%rax, 0x70(%rsp)
0x402c27: 48 8B 44 24 38             mov	0x38(%rsp), %rax
0x402c2c: 48 01 44 24 30             add	%rax, 0x30(%rsp)
0x402c31: 80 7C 24 20 00             cmpb	$0x0, 0x20(%rsp)
0x402c36: C6 44 24 6C 00             movb	$0x0, 0x6c(%rsp)
0x402c3b: C6 44 24 2C 00             movb	$0x0, 0x2c(%rsp)
0x402c40: 0F 84 32 FF FF FF          je	0x0000000000402b78
0x402c46: E8 D5 E9 FF FF             callq	0x0000000000401620
0x402c4b: 48 8B 7C 24 30             mov	0x30(%rsp), %rdi
0x402c50: 48 89 C6                   mov	%rax, %rsi
0x402c53: E8 58 0A 00 00             callq	0x00000000004036b0
0x402c58: 48 8B 74 24 30             mov	0x30(%rsp), %rsi
0x402c5d: 48 89 E9                   mov	%rbp, %rcx
0x402c60: 48 89 C2                   mov	%rax, %rdx
0x402c63: 4C 89 F7                   mov	%r14, %rdi
0x402c66: E8 15 E8 FF FF             callq	0x0000000000401480
0x402c6b: 48 83 F8 FF                cmp	$0xffffffffffffffff, %rax
0x402c6f: 48 89 44 24 38             mov	%rax, 0x38(%rsp)
0x402c74: 0F 84 06 03 00 00          je	0x0000000000402f80
0x402c7a: 48 83 F8 FE                cmp	$0xfffffffffffffffe, %rax
0x402c7e: 0F 84 CC 03 00 00          je	0x0000000000403050
0x402c84: 48 85 C0                   test	%rax, %rax
0x402c87: 75 25                      jne	0x0000000000402cae
0x402c89: 48 8B 44 24 30             mov	0x30(%rsp), %rax
0x402c8e: 48 C7 44 24 38 01 00 00    movq	$0x1, 0x38(%rsp)
          00
0x402c97: 80 38 00                   cmpb	$0x0, (%rax)
0x402c9a: 0F 85 CC 06 00 00          jne	0x000000000040336c
0x402ca0: 44 8B 44 24 44             mov	0x44(%rsp), %r8d
0x402ca5: 45 85 C0                   test	%r8d, %r8d
0x402ca8: 0F 85 A5 06 00 00          jne	0x0000000000403353
0x402cae: 48 89 EF                   mov	%rbp, %rdi
0x402cb1: C6 44 24 40 01             movb	$0x1, 0x40(%rsp)
0x402cb6: E8 55 EA FF FF             callq	0x0000000000401710
0x402cbb: 85 C0                      test	%eax, %eax
0x402cbd: 0F 84 EA FE FF FF          je	0x0000000000402bad
0x402cc3: 80 7C 24 40 00             cmpb	$0x0, 0x40(%rsp)
0x402cc8: C6 44 24 20 00             movb	$0x0, 0x20(%rsp)
0x402ccd: C6 44 24 2C 01             movb	$0x1, 0x2c(%rsp)
0x402cd2: 0F 84 E5 FE FF FF          je	0x0000000000402bbd
0x402cd8: 0F 1F 84 00 00 00 00 00    nopl	0x0(%rax,%rax,1)
0x402ce0: 8B 7C 24 44                mov	0x44(%rsp), %edi
0x402ce4: 85 FF                      test	%edi, %edi
0x402ce6: 0F 85 D1 FE FF FF          jne	0x0000000000402bbd
0x402cec: 80 7C 24 6C 00             cmpb	$0x0, 0x6c(%rsp)
0x402cf1: 75 4B                      jne	0x0000000000402d3e
0x402cf3: 80 7C 24 60 00             cmpb	$0x0, 0x60(%rsp)
0x402cf8: 0F 85 A7 04 00 00          jne	0x00000000004031a5
0x402cfe: 48 8B 54 24 70             mov	0x70(%rsp), %rdx
0x402d03: 0F B6 02                   movzbl	(%rdx), %eax
0x402d06: 89 C1                      mov	%eax, %ecx
0x402d08: C0 E9 05                   shr	$0x5, %cl
0x402d0b: 0F B6 C9                   movzbl	%cl, %ecx
0x402d0e: 8B 0C 8D A0 BA 40 00       mov	0x40baa0(,%rcx,4), %ecx
0x402d15: 0F A3 C1                   bt	%eax, %ecx
0x402d18: 0F 83 72 04 00 00          jae	0x0000000000403190
0x402d1e: 48 C7 44 24 78 01 00 00    movq	$0x1, 0x78(%rsp)
          00
0x402d27: 0F BE 02                   movsbl	(%rdx), %eax
0x402d2a: C6 84 24 80 00 00 00 01    movb	$0x1, 0x80(%rsp)
0x402d32: 89 84 24 84 00 00 00       mov	%eax, 0x84(%rsp)
0x402d39: C6 44 24 6C 01             movb	$0x1, 0x6c(%rsp)
0x402d3e: 80 BC 24 80 00 00 00 00    cmpb	$0x0, 0x80(%rsp)
0x402d46: 0F 85 F4 03 00 00          jne	0x0000000000403140
0x402d4c: 48 8B 44 24 70             mov	0x70(%rsp), %rax
0x402d51: 48 8B 94 24 88 00 00 00    mov	0x88(%rsp), %rdx
0x402d59: 48 89 84 24 A0 00 00 00    mov	%rax, 0xa0(%rsp)
0x402d61: 48 8B 44 24 78             mov	0x78(%rsp), %rax
0x402d66: 48 89 94 24 B8 00 00 00    mov	%rdx, 0xb8(%rsp)
0x402d6e: 48 8B 94 24 90 00 00 00    mov	0x90(%rsp), %rdx
0x402d76: 48 89 84 24 A8 00 00 00    mov	%rax, 0xa8(%rsp)
0x402d7e: 48 8B 84 24 80 00 00 00    mov	0x80(%rsp), %rax
0x402d86: 48 89 94 24 C0 00 00 00    mov	%rdx, 0xc0(%rsp)
0x402d8e: 48 8B 94 24 98 00 00 00    mov	0x98(%rsp), %rdx
0x402d96: 48 89 C7                   mov	%rax, %rdi
0x402d99: 48 89 84 24 B0 00 00 00    mov	%rax, 0xb0(%rsp)
0x402da1: 48 C1 EF 20                shr	$0x20, %rdi
0x402da5: 84 C0                      test	%al, %al
0x402da7: 48 89 94 24 C8 00 00 00    mov	%rdx, 0xc8(%rsp)
0x402daf: 74 0B                      je	0x0000000000402dbc
0x402db1: E8 9A E8 FF FF             callq	0x0000000000401650
0x402db6: 31 D2                      xor	%edx, %edx
0x402db8: 85 C0                      test	%eax, %eax
0x402dba: 75 05                      jne	0x0000000000402dc1
0x402dbc: BA 01 00 00 00             mov	$0x1, %edx
0x402dc1: 80 7C 24 10 00             cmpb	$0x0, 0x10(%rsp)
0x402dc6: 74 08                      je	0x0000000000402dd0
0x402dc8: 84 D2                      test	%dl, %dl
0x402dca: 0F 85 60 05 00 00          jne	0x0000000000403330
0x402dd0: 4C 89 64 24 70             mov	%r12, 0x70(%rsp)
0x402dd5: C6 44 24 60 00             movb	$0x0, 0x60(%rsp)
0x402dda: 48 C7 03 00 00 00 00       movq	$0x0, (%rbx)
0x402de1: C6 44 24 6C 00             movb	$0x0, 0x6c(%rsp)
0x402de6: 41 0F B6 04 24             movzbl	(%r12), %eax
0x402deb: 89 C2                      mov	%eax, %edx
0x402ded: C0 EA 05                   shr	$0x5, %dl
0x402df0: 0F B6 D2                   movzbl	%dl, %edx
0x402df3: 8B 14 95 A0 BA 40 00       mov	0x40baa0(,%rdx,4), %edx
0x402dfa: 0F A3 C2                   bt	%eax, %edx
0x402dfd: 0F 83 2D 04 00 00          jae	0x0000000000403230
0x402e03: 48 C7 44 24 78 01 00 00    movq	$0x1, 0x78(%rsp)
          00
0x402e0c: 41 0F BE 04 24             movsbl	(%r12), %eax
0x402e11: C6 84 24 80 00 00 00 01    movb	$0x1, 0x80(%rsp)
0x402e19: 89 84 24 84 00 00 00       mov	%eax, 0x84(%rsp)
0x402e20: 80 BC 24 80 00 00 00 00    cmpb	$0x0, 0x80(%rsp)
0x402e28: C6 44 24 6C 01             movb	$0x1, 0x6c(%rsp)
0x402e2d: 0F 85 25 03 00 00          jne	0x0000000000403158
0x402e33: 4C 03 64 24 78             add	0x78(%rsp), %r12
0x402e38: 4C 89 64 24 10             mov	%r12, 0x10(%rsp)
0x402e3d: 48 8B 44 24 10             mov	0x10(%rsp), %rax
0x402e42: 80 38 00                   cmpb	$0x0, (%rax)
0x402e45: 0F 85 BB FB FF FF          jne	0x0000000000402a06
0x402e4b: 0F 1F 44 00 00             nopl	0x0(%rax,%rax,1)
0x402e50: 31 DB                      xor	%ebx, %ebx
0x402e52: 4C 89 FF                   mov	%r15, %rdi
0x402e55: E8 A6 E7 FF FF             callq	0x0000000000401600
0x402e5a: 48 8B 94 24 D8 00 00 00    mov	0xd8(%rsp), %rdx
0x402e62: 64 48 33 14 25 28 00 00    xor	%fs:0x28, %rdx
          00
0x402e6b: 89 D8                      mov	%ebx, %eax
0x402e6d: 0F 85 12 05 00 00          jne	0x0000000000403385
0x402e73: 48 81 C4 E8 00 00 00       add	$0xe8, %rsp
0x402e7a: 5B                         pop	%rbx
0x402e7b: 5D                         pop	%rbp
0x402e7c: 41 5C                      pop	%r12
0x402e7e: 41 5D                      pop	%r13
0x402e80: 41 5E                      pop	%r14
0x402e82: 41 5F                      pop	%r15
0x402e84: C3                         retq	
0x402e85: 0F 1F 00                   nopl	(%rax)
0x402e88: 44 8B 8C 24 84 00 00 00    mov	0x84(%rsp), %r9d
0x402e90: 45 85 C9                   test	%r9d, %r9d
0x402e93: 0F 85 84 FD FF FF          jne	0x0000000000402c1d
0x402e99: E8 12 E6 FF FF             callq	0x00000000004014b0
0x402e9e: 66 90                      xchg	%ax, %ax
0x402ea0: 48 89 DF                   mov	%rbx, %rdi
0x402ea3: E8 68 E8 FF FF             callq	0x0000000000401710
0x402ea8: 85 C0                      test	%eax, %eax
0x402eaa: 0F 84 8A 04 00 00          je	0x000000000040333a
0x402eb0: C6 44 24 60 01             movb	$0x1, 0x60(%rsp)
0x402eb5: E8 66 E7 FF FF             callq	0x0000000000401620
0x402eba: 48 8B 7C 24 70             mov	0x70(%rsp), %rdi
0x402ebf: 48 89 C6                   mov	%rax, %rsi
0x402ec2: E8 E9 07 00 00             callq	0x00000000004036b0
0x402ec7: 48 8B 74 24 70             mov	0x70(%rsp), %rsi
0x402ecc: 48 89 D9                   mov	%rbx, %rcx
0x402ecf: 48 89 C2                   mov	%rax, %rdx
0x402ed2: 4C 89 EF                   mov	%r13, %rdi
0x402ed5: E8 A6 E5 FF FF             callq	0x0000000000401480
0x402eda: 48 83 F8 FF                cmp	$0xffffffffffffffff, %rax
0x402ede: 48 89 44 24 78             mov	%rax, 0x78(%rsp)
0x402ee3: 0F 84 AF 00 00 00          je	0x0000000000402f98
0x402ee9: 48 83 F8 FE                cmp	$0xfffffffffffffffe, %rax
0x402eed: 0F 84 7D 01 00 00          je	0x0000000000403070
0x402ef3: 48 85 C0                   test	%rax, %rax
0x402ef6: 75 28                      jne	0x0000000000402f20
0x402ef8: 48 8B 44 24 70             mov	0x70(%rsp), %rax
0x402efd: 48 C7 44 24 78 01 00 00    movq	$0x1, 0x78(%rsp)
          00
0x402f06: 80 38 00                   cmpb	$0x0, (%rax)
0x402f09: 0F 85 5D 04 00 00          jne	0x000000000040336c
0x402f0f: 44 8B 94 24 84 00 00 00    mov	0x84(%rsp), %r10d
0x402f17: 45 85 D2                   test	%r10d, %r10d
0x402f1a: 0F 85 33 04 00 00          jne	0x0000000000403353
0x402f20: 48 89 DF                   mov	%rbx, %rdi
0x402f23: C6 84 24 80 00 00 00 01    movb	$0x1, 0x80(%rsp)
0x402f2b: E8 E0 E7 FF FF             callq	0x0000000000401710
0x402f30: 85 C0                      test	%eax, %eax
0x402f32: 0F 84 D2 FC FF FF          je	0x0000000000402c0a
0x402f38: C6 44 24 60 00             movb	$0x0, 0x60(%rsp)
0x402f3d: E9 C8 FC FF FF             jmpq	0x0000000000402c0a
0x402f42: 66 0F 1F 44 00 00          nopw	0x0(%rax,%rax,1)
0x402f48: 48 89 EF                   mov	%rbp, %rdi
0x402f4b: E8 C0 E7 FF FF             callq	0x0000000000401710
0x402f50: 85 C0                      test	%eax, %eax
0x402f52: 0F 84 E2 03 00 00          je	0x000000000040333a
0x402f58: C6 44 24 20 01             movb	$0x1, 0x20(%rsp)
0x402f5d: E9 E4 FC FF FF             jmpq	0x0000000000402c46
0x402f62: 66 0F 1F 44 00 00          nopw	0x0(%rax,%rax,1)
0x402f68: 44 8B 9C 24 84 00 00 00    mov	0x84(%rsp), %r11d
0x402f70: 45 85 DB                   test	%r11d, %r11d
0x402f73: 0F 84 20 FF FF FF          je	0x0000000000402e99
0x402f79: E9 2D FB FF FF             jmpq	0x0000000000402aab
0x402f7e: 66 90                      xchg	%ax, %ax
0x402f80: 48 C7 44 24 38 01 00 00    movq	$0x1, 0x38(%rsp)
          00
0x402f89: C6 44 24 40 00             movb	$0x0, 0x40(%rsp)
0x402f8e: E9 1A FC FF FF             jmpq	0x0000000000402bad
0x402f93: 0F 1F 44 00 00             nopl	0x0(%rax,%rax,1)
0x402f98: 48 C7 44 24 78 01 00 00    movq	$0x1, 0x78(%rsp)
          00
0x402fa1: C6 84 24 80 00 00 00 00    movb	$0x0, 0x80(%rsp)
0x402fa9: E9 5C FC FF FF             jmpq	0x0000000000402c0a
0x402fae: 66 90                      xchg	%ax, %ax
0x402fb0: 48 89 DF                   mov	%rbx, %rdi
0x402fb3: E8 58 E7 FF FF             callq	0x0000000000401710
0x402fb8: 85 C0                      test	%eax, %eax
0x402fba: 0F 84 7A 03 00 00          je	0x000000000040333a
0x402fc0: C6 44 24 60 01             movb	$0x1, 0x60(%rsp)
0x402fc5: E8 56 E6 FF FF             callq	0x0000000000401620
0x402fca: 48 8B 7C 24 70             mov	0x70(%rsp), %rdi
0x402fcf: 48 89 C6                   mov	%rax, %rsi
0x402fd2: E8 D9 06 00 00             callq	0x00000000004036b0
0x402fd7: 48 8B 74 24 70             mov	0x70(%rsp), %rsi
0x402fdc: 48 89 D9                   mov	%rbx, %rcx
0x402fdf: 48 89 C2                   mov	%rax, %rdx
0x402fe2: 4C 89 EF                   mov	%r13, %rdi
0x402fe5: E8 96 E4 FF FF             callq	0x0000000000401480
0x402fea: 48 83 F8 FF                cmp	$0xffffffffffffffff, %rax
0x402fee: 48 89 44 24 78             mov	%rax, 0x78(%rsp)
0x402ff3: 0F 84 27 01 00 00          je	0x0000000000403120
0x402ff9: 48 83 F8 FE                cmp	$0xfffffffffffffffe, %rax
0x402ffd: 0F 84 6D 01 00 00          je	0x0000000000403170
0x403003: 48 85 C0                   test	%rax, %rax
0x403006: 75 26                      jne	0x000000000040302e
0x403008: 48 8B 44 24 70             mov	0x70(%rsp), %rax
0x40300d: 48 C7 44 24 78 01 00 00    movq	$0x1, 0x78(%rsp)
          00
0x403016: 80 38 00                   cmpb	$0x0, (%rax)
0x403019: 0F 85 4D 03 00 00          jne	0x000000000040336c
0x40301f: 8B 84 24 84 00 00 00       mov	0x84(%rsp), %eax
0x403026: 85 C0                      test	%eax, %eax
0x403028: 0F 85 25 03 00 00          jne	0x0000000000403353
0x40302e: 48 89 DF                   mov	%rbx, %rdi
0x403031: C6 84 24 80 00 00 00 01    movb	$0x1, 0x80(%rsp)
0x403039: E8 D2 E6 FF FF             callq	0x0000000000401710
0x40303e: 85 C0                      test	%eax, %eax
0x403040: 0F 84 52 FA FF FF          je	0x0000000000402a98
0x403046: C6 44 24 60 00             movb	$0x0, 0x60(%rsp)
0x40304b: E9 48 FA FF FF             jmpq	0x0000000000402a98
0x403050: 48 8B 7C 24 30             mov	0x30(%rsp), %rdi
0x403055: E8 B6 E5 FF FF             callq	0x0000000000401610
0x40305a: C6 44 24 40 00             movb	$0x0, 0x40(%rsp)
0x40305f: 48 89 44 24 38             mov	%rax, 0x38(%rsp)
0x403064: E9 44 FB FF FF             jmpq	0x0000000000402bad
0x403069: 0F 1F 80 00 00 00 00       nopl	0x0(%rax)
0x403070: 48 8B 7C 24 70             mov	0x70(%rsp), %rdi
0x403075: E8 96 E5 FF FF             callq	0x0000000000401610
0x40307a: C6 84 24 80 00 00 00 00    movb	$0x0, 0x80(%rsp)
0x403082: 48 89 44 24 78             mov	%rax, 0x78(%rsp)
0x403087: E9 7E FB FF FF             jmpq	0x0000000000402c0a
0x40308c: 0F 1F 40 00                nopl	0x0(%rax)
0x403090: 4C 39 64 24 10             cmp	%r12, 0x10(%rsp)
0x403095: C6 44 24 1F 01             movb	$0x1, 0x1f(%rsp)
0x40309a: 73 1F                      jae	0x00000000004030bb
0x40309c: E8 9F E5 FF FF             callq	0x0000000000401640
0x4030a1: 41 0F B6 54 24 FF          movzbl	-0x1(%r12), %edx
0x4030a7: 48 8B 00                   mov	(%rax), %rax
0x4030aa: 0F B7 04 50                movzwl	(%rax,%rdx,2), %eax
0x4030ae: C1 E8 03                   shr	$0x3, %eax
0x4030b1: 83 F0 01                   xor	$0x1, %eax
0x4030b4: 83 E0 01                   and	$0x1, %eax
0x4030b7: 88 44 24 1F                mov	%al, 0x1f(%rsp)
0x4030bb: 4C 89 FF                   mov	%r15, %rdi
0x4030be: E8 4D E5 FF FF             callq	0x0000000000401610
0x4030c3: 41 0F B6 14 04             movzbl	(%r12,%rax,1), %edx
0x4030c8: B8 01 00 00 00             mov	$0x1, %eax
0x4030cd: 84 D2                      test	%dl, %dl
0x4030cf: 74 21                      je	0x00000000004030f2
0x4030d1: 88 54 24 08                mov	%dl, 0x8(%rsp)
0x4030d5: E8 66 E5 FF FF             callq	0x0000000000401640
0x4030da: 0F B6 54 24 08             movzbl	0x8(%rsp), %edx
0x4030df: 48 8B 00                   mov	(%rax), %rax
0x4030e2: 0F B6 D2                   movzbl	%dl, %edx
0x4030e5: 0F B7 04 50                movzwl	(%rax,%rdx,2), %eax
0x4030e9: C1 E8 03                   shr	$0x3, %eax
0x4030ec: 83 F0 01                   xor	$0x1, %eax
0x4030ef: 83 E0 01                   and	$0x1, %eax
0x4030f2: 80 7C 24 1F 00             cmpb	$0x0, 0x1f(%rsp)
0x4030f7: 74 08                      je	0x0000000000403101
0x4030f9: 84 C0                      test	%al, %al
0x4030fb: 0F 85 2F 02 00 00          jne	0x0000000000403330
0x403101: 41 80 3C 24 00             cmpb	$0x0, (%r12)
0x403106: 0F 84 44 FD FF FF          je	0x0000000000402e50
0x40310c: 49 83 C4 01                add	$0x1, %r12
0x403110: 4C 89 64 24 10             mov	%r12, 0x10(%rsp)
0x403115: E9 DE F8 FF FF             jmpq	0x00000000004029f8
0x40311a: 66 0F 1F 44 00 00          nopw	0x0(%rax,%rax,1)
0x403120: 48 C7 44 24 78 01 00 00    movq	$0x1, 0x78(%rsp)
          00
0x403129: C6 84 24 80 00 00 00 00    movb	$0x0, 0x80(%rsp)
0x403131: E9 62 F9 FF FF             jmpq	0x0000000000402a98
0x403136: 66 2E 0F 1F 84 00 00 00    nopw	%cs:0x0(%rax,%rax,1)
          00 00
0x403140: 8B 8C 24 84 00 00 00       mov	0x84(%rsp), %ecx
0x403147: 85 C9                      test	%ecx, %ecx
0x403149: 0F 84 6D FC FF FF          je	0x0000000000402dbc
0x40314f: E9 F8 FB FF FF             jmpq	0x0000000000402d4c
0x403154: 0F 1F 40 00                nopl	0x0(%rax)
0x403158: 8B 84 24 84 00 00 00       mov	0x84(%rsp), %eax
0x40315f: 85 C0                      test	%eax, %eax
0x403161: 0F 84 E9 FC FF FF          je	0x0000000000402e50
0x403167: E9 C7 FC FF FF             jmpq	0x0000000000402e33
0x40316c: 0F 1F 40 00                nopl	0x0(%rax)
0x403170: 48 8B 7C 24 70             mov	0x70(%rsp), %rdi
0x403175: E8 96 E4 FF FF             callq	0x0000000000401610
0x40317a: C6 84 24 80 00 00 00 00    movb	$0x0, 0x80(%rsp)
0x403182: 48 89 44 24 78             mov	%rax, 0x78(%rsp)
0x403187: E9 0C F9 FF FF             jmpq	0x0000000000402a98
0x40318c: 0F 1F 40 00                nopl	0x0(%rax)
0x403190: 48 89 DF                   mov	%rbx, %rdi
0x403193: E8 78 E5 FF FF             callq	0x0000000000401710
0x403198: 85 C0                      test	%eax, %eax
0x40319a: 0F 84 9A 01 00 00          je	0x000000000040333a
0x4031a0: C6 44 24 60 01             movb	$0x1, 0x60(%rsp)
0x4031a5: E8 76 E4 FF FF             callq	0x0000000000401620
0x4031aa: 48 8B 7C 24 70             mov	0x70(%rsp), %rdi
0x4031af: 48 89 C6                   mov	%rax, %rsi
0x4031b2: E8 F9 04 00 00             callq	0x00000000004036b0
0x4031b7: 48 8B 74 24 70             mov	0x70(%rsp), %rsi
0x4031bc: 48 89 D9                   mov	%rbx, %rcx
0x4031bf: 48 89 C2                   mov	%rax, %rdx
0x4031c2: 4C 89 EF                   mov	%r13, %rdi
0x4031c5: E8 B6 E2 FF FF             callq	0x0000000000401480
0x4031ca: 48 83 F8 FF                cmp	$0xffffffffffffffff, %rax
0x4031ce: 48 89 44 24 78             mov	%rax, 0x78(%rsp)
0x4031d3: 0F 84 F3 00 00 00          je	0x00000000004032cc
0x4031d9: 48 83 F8 FE                cmp	$0xfffffffffffffffe, %rax
0x4031dd: 0F 84 15 01 00 00          je	0x00000000004032f8
0x4031e3: 48 85 C0                   test	%rax, %rax
0x4031e6: 75 26                      jne	0x000000000040320e
0x4031e8: 48 8B 44 24 70             mov	0x70(%rsp), %rax
0x4031ed: 48 C7 44 24 78 01 00 00    movq	$0x1, 0x78(%rsp)
          00
0x4031f6: 80 38 00                   cmpb	$0x0, (%rax)
0x4031f9: 0F 85 6D 01 00 00          jne	0x000000000040336c
0x4031ff: 8B B4 24 84 00 00 00       mov	0x84(%rsp), %esi
0x403206: 85 F6                      test	%esi, %esi
0x403208: 0F 85 45 01 00 00          jne	0x0000000000403353
0x40320e: 48 89 DF                   mov	%rbx, %rdi
0x403211: C6 84 24 80 00 00 00 01    movb	$0x1, 0x80(%rsp)
0x403219: E8 F2 E4 FF FF             callq	0x0000000000401710
0x40321e: 85 C0                      test	%eax, %eax
0x403220: 0F 84 13 FB FF FF          je	0x0000000000402d39
0x403226: C6 44 24 60 00             movb	$0x0, 0x60(%rsp)
0x40322b: E9 09 FB FF FF             jmpq	0x0000000000402d39
0x403230: 48 89 DF                   mov	%rbx, %rdi
0x403233: E8 D8 E4 FF FF             callq	0x0000000000401710
0x403238: 85 C0                      test	%eax, %eax
0x40323a: 0F 84 FA 00 00 00          je	0x000000000040333a
0x403240: C6 44 24 60 01             movb	$0x1, 0x60(%rsp)
0x403245: E8 D6 E3 FF FF             callq	0x0000000000401620
0x40324a: 48 8B 7C 24 70             mov	0x70(%rsp), %rdi
0x40324f: 48 89 C6                   mov	%rax, %rsi
0x403252: E8 59 04 00 00             callq	0x00000000004036b0
0x403257: 48 8B 74 24 70             mov	0x70(%rsp), %rsi
0x40325c: 48 89 D9                   mov	%rbx, %rcx
0x40325f: 48 89 C2                   mov	%rax, %rdx
0x403262: 4C 89 EF                   mov	%r13, %rdi
0x403265: E8 16 E2 FF FF             callq	0x0000000000401480
0x40326a: 48 83 F8 FF                cmp	$0xffffffffffffffff, %rax
0x40326e: 48 89 44 24 78             mov	%rax, 0x78(%rsp)
0x403273: 74 6D                      je	0x00000000004032e2
0x403275: 48 83 F8 FE                cmp	$0xfffffffffffffffe, %rax
0x403279: 0F 84 95 00 00 00          je	0x0000000000403314
0x40327f: 48 85 C0                   test	%rax, %rax
0x403282: 75 26                      jne	0x00000000004032aa
0x403284: 48 8B 44 24 70             mov	0x70(%rsp), %rax
0x403289: 48 C7 44 24 78 01 00 00    movq	$0x1, 0x78(%rsp)
          00
0x403292: 80 38 00                   cmpb	$0x0, (%rax)
0x403295: 0F 85 D1 00 00 00          jne	0x000000000040336c
0x40329b: 8B 94 24 84 00 00 00       mov	0x84(%rsp), %edx
0x4032a2: 85 D2                      test	%edx, %edx
0x4032a4: 0F 85 A9 00 00 00          jne	0x0000000000403353
0x4032aa: 48 89 DF                   mov	%rbx, %rdi
0x4032ad: C6 84 24 80 00 00 00 01    movb	$0x1, 0x80(%rsp)
0x4032b5: E8 56 E4 FF FF             callq	0x0000000000401710
0x4032ba: 85 C0                      test	%eax, %eax
0x4032bc: 0F 84 5E FB FF FF          je	0x0000000000402e20
0x4032c2: C6 44 24 60 00             movb	$0x0, 0x60(%rsp)
0x4032c7: E9 54 FB FF FF             jmpq	0x0000000000402e20
0x4032cc: 48 C7 44 24 78 01 00 00    movq	$0x1, 0x78(%rsp)
          00
0x4032d5: C6 84 24 80 00 00 00 00    movb	$0x0, 0x80(%rsp)
0x4032dd: E9 57 FA FF FF             jmpq	0x0000000000402d39
0x4032e2: 48 C7 44 24 78 01 00 00    movq	$0x1, 0x78(%rsp)
          00
0x4032eb: C6 84 24 80 00 00 00 00    movb	$0x0, 0x80(%rsp)
0x4032f3: E9 28 FB FF FF             jmpq	0x0000000000402e20
0x4032f8: 48 8B 7C 24 70             mov	0x70(%rsp), %rdi
0x4032fd: E8 0E E3 FF FF             callq	0x0000000000401610
0x403302: C6 84 24 80 00 00 00 00    movb	$0x0, 0x80(%rsp)
0x40330a: 48 89 44 24 78             mov	%rax, 0x78(%rsp)
0x40330f: E9 25 FA FF FF             jmpq	0x0000000000402d39
0x403314: 48 8B 7C 24 70             mov	0x70(%rsp), %rdi
0x403319: E8 F2 E2 FF FF             callq	0x0000000000401610
0x40331e: C6 84 24 80 00 00 00 00    movb	$0x0, 0x80(%rsp)
0x403326: 48 89 44 24 78             mov	%rax, 0x78(%rsp)
0x40332b: E9 F0 FA FF FF             jmpq	0x0000000000402e20
0x403330: BB 01 00 00 00             mov	$0x1, %ebx
0x403335: E9 18 FB FF FF             jmpq	0x0000000000402e52
0x40333a: B9 70 B1 40 00             mov	$0x40b170, %ecx
0x40333f: BA 8E 00 00 00             mov	$0x8e, %edx
0x403344: BE 18 B1 40 00             mov	$0x40b118, %esi
0x403349: BF 22 B1 40 00             mov	$0x40b122, %edi
0x40334e: E8 CD E1 FF FF             callq	0x0000000000401520
0x403353: B9 70 B1 40 00             mov	$0x40b170, %ecx
0x403358: BA AB 00 00 00             mov	$0xab, %edx
0x40335d: BE 18 B1 40 00             mov	$0x40b118, %esi
0x403362: BF 50 B1 40 00             mov	$0x40b150, %edi
0x403367: E8 B4 E1 FF FF             callq	0x0000000000401520
0x40336c: B9 70 B1 40 00             mov	$0x40b170, %ecx
0x403371: BA AA 00 00 00             mov	$0xaa, %edx
0x403376: BE 18 B1 40 00             mov	$0x40b118, %esi
0x40337b: BF 39 B1 40 00             mov	$0x40b139, %edi
0x403380: E8 9B E1 FF FF             callq	0x0000000000401520
0x403385: E8 B6 E3 FF FF             callq	0x0000000000401740
0x40338a: 66 0F 1F 44 00 00          nopw	0x0(%rax,%rax,1)
0x403390: 48 89 6C 24 D8             mov	%rbp, -0x28(%rsp)
0x403395: 4C 89 64 24 E0             mov	%r12, -0x20(%rsp)
0x40339a: BA 05 00 00 00             mov	$0x5, %edx
0x40339f: 4C 89 6C 24 E8             mov	%r13, -0x18(%rsp)
0x4033a4: 4C 89 74 24 F0             mov	%r14, -0x10(%rsp)
0x4033a9: 49 89 FC                   mov	%rdi, %r12
0x4033ac: 48 89 5C 24 D0             mov	%rbx, -0x30(%rsp)
0x4033b1: 4C 89 7C 24 F8             mov	%r15, -0x8(%rsp)
0x4033b6: 49 89 F6                   mov	%rsi, %r14
0x4033b9: 48 83 EC 48                sub	$0x48, %rsp
0x4033bd: 48 89 FE                   mov	%rdi, %rsi
0x4033c0: 31 FF                      xor	%edi, %edi
0x4033c2: E8 69 E3 FF FF             callq	0x0000000000401730
0x4033c7: 49 89 C5                   mov	%rax, %r13
0x4033ca: E8 C1 24 00 00             callq	0x0000000000405890
0x4033cf: BE 62 B1 40 00             mov	$0x40b162, %esi
0x4033d4: 48 89 C7                   mov	%rax, %rdi
0x4033d7: 48 89 C5                   mov	%rax, %rbp
0x4033da: E8 41 24 00 00             callq	0x0000000000405820
0x4033df: 85 C0                      test	%eax, %eax
0x4033e1: 75 7D                      jne	0x0000000000403460
0x4033e3: 4C 89 74 24 08             mov	%r14, 0x8(%rsp)
0x4033e8: 31 ED                      xor	%ebp, %ebp
0x4033ea: 31 DB                      xor	%ebx, %ebx
0x4033ec: 4D 85 F6                   test	%r14, %r14
0x4033ef: 4D 89 F7                   mov	%r14, %r15
0x4033f2: 0F 84 1F 01 00 00          je	0x0000000000403517
0x4033f8: 4C 89 E6                   mov	%r12, %rsi
0x4033fb: 4C 89 EF                   mov	%r13, %rdi
0x4033fe: E8 4D E3 FF FF             callq	0x0000000000401750
0x403403: 85 C0                      test	%eax, %eax
0x403405: 0F 85 25 01 00 00          jne	0x0000000000403530
0x40340b: 4C 39 FB                   cmp	%r15, %rbx
0x40340e: 74 0D                      je	0x000000000040341d
0x403410: 48 85 DB                   test	%rbx, %rbx
0x403413: 74 08                      je	0x000000000040341d
0x403415: 48 89 DF                   mov	%rbx, %rdi
0x403418: E8 E3 E1 FF FF             callq	0x0000000000401600
0x40341d: 4C 39 FD                   cmp	%r15, %rbp
0x403420: 74 0D                      je	0x000000000040342f
0x403422: 48 85 ED                   test	%rbp, %rbp
0x403425: 74 08                      je	0x000000000040342f
0x403427: 48 89 EF                   mov	%rbp, %rdi
0x40342a: E8 D1 E1 FF FF             callq	0x0000000000401600
0x40342f: 4D 89 FD                   mov	%r15, %r13
0x403432: 4C 89 E8                   mov	%r13, %rax
0x403435: 48 8B 5C 24 18             mov	0x18(%rsp), %rbx
0x40343a: 48 8B 6C 24 20             mov	0x20(%rsp), %rbp
0x40343f: 4C 8B 64 24 28             mov	0x28(%rsp), %r12
0x403444: 4C 8B 6C 24 30             mov	0x30(%rsp), %r13
0x403449: 4C 8B 74 24 38             mov	0x38(%rsp), %r14
0x40344e: 4C 8B 7C 24 40             mov	0x40(%rsp), %r15
0x403453: 48 83 C4 48                add	$0x48, %rsp
0x403457: C3                         retq	
0x403458: 0F 1F 84 00 00 00 00 00    nopl	0x0(%rax,%rax,1)
0x403460: 48 89 EA                   mov	%rbp, %rdx
0x403463: BE 62 B1 40 00             mov	$0x40b162, %esi
0x403468: 4C 89 F7                   mov	%r14, %rdi
0x40346b: E8 20 0B 00 00             callq	0x0000000000403f90
0x403470: 48 89 EF                   mov	%rbp, %rdi
0x403473: 48 89 C3                   mov	%rax, %rbx
0x403476: E8 95 E1 FF FF             callq	0x0000000000401610
0x40347b: 48 89 C7                   mov	%rax, %rdi
0x40347e: 48 89 44 24 08             mov	%rax, 0x8(%rsp)
0x403483: 48 83 C7 0B                add	$0xb, %rdi
0x403487: E8 E4 22 00 00             callq	0x0000000000405770
0x40348c: 48 8B 54 24 08             mov	0x8(%rsp), %rdx
0x403491: 48 89 EE                   mov	%rbp, %rsi
0x403494: 48 89 C7                   mov	%rax, %rdi
0x403497: 49 89 C7                   mov	%rax, %r15
0x40349a: E8 11 E2 FF FF             callq	0x00000000004016b0
0x40349f: 48 8B 54 24 08             mov	0x8(%rsp), %rdx
0x4034a4: 4C 89 F7                   mov	%r14, %rdi
0x4034a7: BE 62 B1 40 00             mov	$0x40b162, %esi
0x4034ac: 49 8D 04 17                lea	(%r15,%rdx,1), %rax
0x4034b0: 48 BA 2F 2F 54 52 41 4E    mov	$0x4c534e4152542f2f, %rdx
          53 4C
0x4034ba: 48 89 10                   mov	%rdx, (%rax)
0x4034bd: 66 C7 40 08 49 54          movw	$0x5449, 0x8(%rax)
0x4034c3: 4C 89 FA                   mov	%r15, %rdx
0x4034c6: C6 40 0A 00                movb	$0x0, 0xa(%rax)
0x4034ca: E8 C1 0A 00 00             callq	0x0000000000403f90
0x4034cf: 4C 89 FF                   mov	%r15, %rdi
0x4034d2: 49 89 C6                   mov	%rax, %r14
0x4034d5: E8 26 E1 FF FF             callq	0x0000000000401600
0x4034da: 4D 85 F6                   test	%r14, %r14
0x4034dd: 74 1E                      je	0x00000000004034fd
0x4034df: BE 3F 00 00 00             mov	$0x3f, %esi
0x4034e4: 4C 89 F7                   mov	%r14, %rdi
0x4034e7: E8 E4 E1 FF FF             callq	0x00000000004016d0
0x4034ec: 48 85 C0                   test	%rax, %rax
0x4034ef: 0F 84 A3 00 00 00          je	0x0000000000403598
0x4034f5: 4C 89 F7                   mov	%r14, %rdi
0x4034f8: E8 03 E1 FF FF             callq	0x0000000000401600
0x4034fd: 49 89 DE                   mov	%rbx, %r14
0x403500: 31 ED                      xor	%ebp, %ebp
0x403502: 48 C7 44 24 08 00 00 00    movq	$0x0, 0x8(%rsp)
          00
0x40350b: 4D 85 F6                   test	%r14, %r14
0x40350e: 4D 89 F7                   mov	%r14, %r15
0x403511: 0F 85 E1 FE FF FF          jne	0x00000000004033f8
0x403517: 48 83 7C 24 08 00          cmpq	$0x0, 0x8(%rsp)
0x40351d: 4C 8B 7C 24 08             mov	0x8(%rsp), %r15
0x403522: 4D 0F 44 FC                cmove	%r12, %r15
0x403526: E9 CD FE FF FF             jmpq	0x00000000004033f8
0x40352b: 0F 1F 44 00 00             nopl	0x0(%rax,%rax,1)
0x403530: 4C 89 E6                   mov	%r12, %rsi
0x403533: 4C 89 EF                   mov	%r13, %rdi
0x403536: E8 65 F4 FF FF             callq	0x00000000004029a0
0x40353b: 84 C0                      test	%al, %al
0x40353d: 75 31                      jne	0x0000000000403570
0x40353f: 4D 85 F6                   test	%r14, %r14
0x403542: 74 0F                      je	0x0000000000403553
0x403544: 4C 89 F6                   mov	%r14, %rsi
0x403547: 4C 89 EF                   mov	%r13, %rdi
0x40354a: E8 51 F4 FF FF             callq	0x00000000004029a0
0x40354f: 84 C0                      test	%al, %al
0x403551: 75 1D                      jne	0x0000000000403570
0x403553: 48 83 7C 24 08 00          cmpq	$0x0, 0x8(%rsp)
0x403559: 74 55                      je	0x00000000004035b0
0x40355b: 48 8B 74 24 08             mov	0x8(%rsp), %rsi
0x403560: 4C 89 EF                   mov	%r13, %rdi
0x403563: E8 38 F4 FF FF             callq	0x00000000004029a0
0x403568: 84 C0                      test	%al, %al
0x40356a: 74 44                      je	0x00000000004035b0
0x40356c: 0F 1F 40 00                nopl	0x0(%rax)
0x403570: 48 85 DB                   test	%rbx, %rbx
0x403573: 74 08                      je	0x000000000040357d
0x403575: 48 89 DF                   mov	%rbx, %rdi
0x403578: E8 83 E0 FF FF             callq	0x0000000000401600
0x40357d: 48 85 ED                   test	%rbp, %rbp
0x403580: 0F 84 AC FE FF FF          je	0x0000000000403432
0x403586: 48 89 EF                   mov	%rbp, %rdi
0x403589: E8 72 E0 FF FF             callq	0x0000000000401600
0x40358e: 66 90                      xchg	%ax, %ax
0x403590: E9 9D FE FF FF             jmpq	0x0000000000403432
0x403595: 0F 1F 00                   nopl	(%rax)
0x403598: 4C 89 74 24 08             mov	%r14, 0x8(%rsp)
0x40359d: 49 89 DE                   mov	%rbx, %r14
0x4035a0: 48 8B 6C 24 08             mov	0x8(%rsp), %rbp
0x4035a5: E9 42 FE FF FF             jmpq	0x00000000004033ec
0x4035aa: 66 0F 1F 44 00 00          nopw	0x0(%rax,%rax,1)
0x4035b0: 4C 89 EF                   mov	%r13, %rdi
0x4035b3: E8 58 E0 FF FF             callq	0x0000000000401610
0x4035b8: 4C 89 FF                   mov	%r15, %rdi
0x4035bb: 49 89 C4                   mov	%rax, %r12
0x4035be: E8 4D E0 FF FF             callq	0x0000000000401610
0x4035c3: 49 8D 7C 04 04             lea	0x4(%r12,%rax,1), %rdi
0x4035c8: E8 A3 21 00 00             callq	0x0000000000405770
0x4035cd: 4D 89 F9                   mov	%r15, %r9
0x4035d0: 48 89 C7                   mov	%rax, %rdi
0x4035d3: 49 89 C4                   mov	%rax, %r12
0x4035d6: 4D 89 E8                   mov	%r13, %r8
0x4035d9: 31 C0                      xor	%eax, %eax
0x4035db: B9 68 B1 40 00             mov	$0x40b168, %ecx
0x4035e0: 48 C7 C2 FF FF FF FF       mov	$0xffffffffffffffff, %rdx
0x4035e7: BE 01 00 00 00             mov	$0x1, %esi
0x4035ec: E8 AF E1 FF FF             callq	0x00000000004017a0
0x4035f1: 48 85 DB                   test	%rbx, %rbx
0x4035f4: 74 08                      je	0x00000000004035fe
0x4035f6: 48 89 DF                   mov	%rbx, %rdi
0x4035f9: E8 02 E0 FF FF             callq	0x0000000000401600
0x4035fe: 4D 89 E5                   mov	%r12, %r13
0x403601: E9 77 FF FF FF             jmpq	0x000000000040357d
0x403606: 66 2E 0F 1F 84 00 00 00    nopw	%cs:0x0(%rax,%rax,1)
          00 00
0x403610: 48 89 6C 24 F0             mov	%rbp, -0x10(%rsp)
0x403615: 4C 89 64 24 F8             mov	%r12, -0x8(%rsp)
0x40361a: 48 89 FE                   mov	%rdi, %rsi
0x40361d: 48 89 5C 24 E8             mov	%rbx, -0x18(%rsp)
0x403622: 49 89 FC                   mov	%rdi, %r12
0x403625: 48 83 EC 18                sub	$0x18, %rsp
0x403629: 31 FF                      xor	%edi, %edi
0x40362b: BA 05 00 00 00             mov	$0x5, %edx
0x403630: E8 FB E0 FF FF             callq	0x0000000000401730
0x403635: 49 39 C4                   cmp	%rax, %r12
0x403638: 48 89 C5                   mov	%rax, %rbp
0x40363b: 74 0F                      je	0x000000000040364c
0x40363d: 4C 89 E6                   mov	%r12, %rsi
0x403640: 48 89 C7                   mov	%rax, %rdi
0x403643: E8 58 F3 FF FF             callq	0x00000000004029a0
0x403648: 84 C0                      test	%al, %al
0x40364a: 74 1C                      je	0x0000000000403668
0x40364c: 48 89 E8                   mov	%rbp, %rax
0x40364f: 48 8B 1C 24                mov	(%rsp), %rbx
0x403653: 48 8B 6C 24 08             mov	0x8(%rsp), %rbp
0x403658: 4C 8B 64 24 10             mov	0x10(%rsp), %r12
0x40365d: 48 83 C4 18                add	$0x18, %rsp
0x403661: C3                         retq	
0x403662: 66 0F 1F 44 00 00          nopw	0x0(%rax,%rax,1)
0x403668: 48 89 EF                   mov	%rbp, %rdi
0x40366b: E8 A0 DF FF FF             callq	0x0000000000401610
0x403670: 4C 89 E7                   mov	%r12, %rdi
0x403673: 48 89 C3                   mov	%rax, %rbx
0x403676: E8 95 DF FF FF             callq	0x0000000000401610
0x40367b: 48 8D 7C 03 04             lea	0x4(%rbx,%rax,1), %rdi
0x403680: E8 EB 20 00 00             callq	0x0000000000405770
0x403685: 49 89 E8                   mov	%rbp, %r8
0x403688: 48 89 C3                   mov	%rax, %rbx
0x40368b: 48 89 C7                   mov	%rax, %rdi
0x40368e: 4D 89 E1                   mov	%r12, %r9
0x403691: B9 68 B1 40 00             mov	$0x40b168, %ecx
0x403696: 48 C7 C2 FF FF FF FF       mov	$0xffffffffffffffff, %rdx
0x40369d: BE 01 00 00 00             mov	$0x1, %esi
0x4036a2: 31 C0                      xor	%eax, %eax
0x4036a4: 48 89 DD                   mov	%rbx, %rbp
0x4036a7: E8 F4 E0 FF FF             callq	0x00000000004017a0
0x4036ac: EB 9E                      jmp	0x000000000040364c
0x4036ae: 90                         nop	
0x4036af: 90                         nop	
0x4036b0: 48 89 5C 24 F0             mov	%rbx, -0x10(%rsp)
0x4036b5: 48 89 6C 24 F8             mov	%rbp, -0x8(%rsp)
0x4036ba: 48 89 F2                   mov	%rsi, %rdx
0x4036bd: 48 83 EC 18                sub	$0x18, %rsp
0x4036c1: 48 89 F3                   mov	%rsi, %rbx
0x4036c4: 31 F6                      xor	%esi, %esi
0x4036c6: 48 89 FD                   mov	%rdi, %rbp
0x4036c9: E8 F2 DD FF FF             callq	0x00000000004014c0
0x4036ce: 48 85 C0                   test	%rax, %rax
0x4036d1: 74 07                      je	0x00000000004036da
0x4036d3: 48 29 E8                   sub	%rbp, %rax
0x4036d6: 48 8D 58 01                lea	0x1(%rax), %rbx
0x4036da: 48 89 D8                   mov	%rbx, %rax
0x4036dd: 48 8B 6C 24 10             mov	0x10(%rsp), %rbp
0x4036e2: 48 8B 5C 24 08             mov	0x8(%rsp), %rbx
0x4036e7: 48 83 C4 18                add	$0x18, %rsp
0x4036eb: C3                         retq	
0x4036ec: 90                         nop	
0x4036ed: 90                         nop	
0x4036ee: 90                         nop	
0x4036ef: 90                         nop	
0x4036f0: 41 57                      push	%r15
0x4036f2: 41 56                      push	%r14
0x4036f4: 41 55                      push	%r13
0x4036f6: 41 54                      push	%r12
0x4036f8: 41 89 F4                   mov	%esi, %r12d
0x4036fb: 55                         push	%rbp
0x4036fc: 53                         push	%rbx
0x4036fd: 48 83 EC 68                sub	$0x68, %rsp
0x403701: 64 48 8B 04 25 28 00 00    mov	%fs:0x28, %rax
          00
0x40370a: 48 89 44 24 58             mov	%rax, 0x58(%rsp)
0x40370f: 31 C0                      xor	%eax, %eax
0x403711: E8 DA DE FF FF             callq	0x00000000004015f0
0x403716: 48 85 C0                   test	%rax, %rax
0x403719: 48 89 C5                   mov	%rax, %rbp
0x40371c: 0F 84 60 05 00 00          je	0x0000000000403c82
0x403722: E8 F9 DE FF FF             callq	0x0000000000401620
0x403727: 48 83 F8 01                cmp	$0x1, %rax
0x40372b: 0F 86 D7 02 00 00          jbe	0x0000000000403a08
0x403731: 45 85 E4                   test	%r12d, %r12d
0x403734: 0F 85 76 03 00 00          jne	0x0000000000403ab0
0x40373a: 48 89 EF                   mov	%rbp, %rdi
0x40373d: 48 89 6C 24 28             mov	%rbp, 0x28(%rsp)
0x403742: E8 C9 DE FF FF             callq	0x0000000000401610
0x403747: 48 8D 44 05 00             lea	0x0(%rbp,%rax,1), %rax
0x40374c: C6 44 24 18 00             movb	$0x0, 0x18(%rsp)
0x403751: 48 C7 44 24 1C 00 00 00    movq	$0x0, 0x1c(%rsp)
          00
0x40375a: C6 44 24 24 00             movb	$0x0, 0x24(%rsp)
0x40375f: 48 89 EA                   mov	%rbp, %rdx
0x403762: 48 39 C5                   cmp	%rax, %rbp
0x403765: 48 89 44 24 10             mov	%rax, 0x10(%rsp)
0x40376a: 0F 83 E4 00 00 00          jae	0x0000000000403854
0x403770: 4C 8D 64 24 10             lea	0x10(%rsp), %r12
0x403775: 31 DB                      xor	%ebx, %ebx
0x403777: 41 BD 01 00 00 00          mov	$0x1, %r13d
0x40377d: 4D 8D 74 24 0C             lea	0xc(%r12), %r14
0x403782: EB 35                      jmp	0x00000000004037b9
0x403784: 0F 1F 40 00                nopl	0x0(%rax)
0x403788: 83 FB 01                   cmp	$0x1, %ebx
0x40378b: 0F 84 77 01 00 00          je	0x0000000000403908
0x403791: 83 FB 02                   cmp	$0x2, %ebx
0x403794: 0F 84 A6 01 00 00          je	0x0000000000403940
0x40379a: BB 01 00 00 00             mov	$0x1, %ebx
0x40379f: 48 03 54 24 30             add	0x30(%rsp), %rdx
0x4037a4: C6 44 24 24 00             movb	$0x0, 0x24(%rsp)
0x4037a9: 48 39 54 24 10             cmp	%rdx, 0x10(%rsp)
0x4037ae: 48 89 54 24 28             mov	%rdx, 0x28(%rsp)
0x4037b3: 0F 86 17 02 00 00          jbe	0x00000000004039d0
0x4037b9: 80 7C 24 18 00             cmpb	$0x0, 0x18(%rsp)
0x4037be: 0F 85 D1 00 00 00          jne	0x0000000000403895
0x4037c4: 0F B6 02                   movzbl	(%rdx), %eax
0x4037c7: 89 C2                      mov	%eax, %edx
0x4037c9: C0 EA 05                   shr	$0x5, %dl
0x4037cc: 0F B6 D2                   movzbl	%dl, %edx
0x4037cf: 8B 14 95 A0 BA 40 00       mov	0x40baa0(,%rdx,4), %edx
0x4037d6: 0F A3 C2                   bt	%eax, %edx
0x4037d9: 0F 83 A1 00 00 00          jae	0x0000000000403880
0x4037df: 48 8B 54 24 28             mov	0x28(%rsp), %rdx
0x4037e4: 48 C7 44 24 30 01 00 00    movq	$0x1, 0x30(%rsp)
          00
0x4037ed: 0F BE 02                   movsbl	(%rdx), %eax
0x4037f0: C6 44 24 38 01             movb	$0x1, 0x38(%rsp)
0x4037f5: 89 44 24 3C                mov	%eax, 0x3c(%rsp)
0x4037f9: 85 DB                      test	%ebx, %ebx
0x4037fb: C6 44 24 24 01             movb	$0x1, 0x24(%rsp)
0x403800: 75 86                      jne	0x0000000000403788
0x403802: 80 7C 24 38 00             cmpb	$0x0, 0x38(%rsp)
0x403807: 74 91                      je	0x000000000040379a
0x403809: 8B 7C 24 3C                mov	0x3c(%rsp), %edi
0x40380d: 48 89 54 24 08             mov	%rdx, 0x8(%rsp)
0x403812: E8 89 DE FF FF             callq	0x00000000004016a0
0x403817: 85 C0                      test	%eax, %eax
0x403819: 48 8B 54 24 08             mov	0x8(%rsp), %rdx
0x40381e: 41 0F 44 DD                cmove	%r13d, %ebx
0x403822: E9 78 FF FF FF             jmpq	0x000000000040379f
0x403827: 66 0F 1F 84 00 00 00 00    nopw	0x0(%rax,%rax,1)
          00
0x403830: 49 89 D6                   mov	%rdx, %r14
0x403833: 4C 89 F7                   mov	%r14, %rdi
0x403836: E8 D5 DD FF FF             callq	0x0000000000401610
0x40383b: 48 8D 50 01                lea	0x1(%rax), %rdx
0x40383f: 4C 89 F6                   mov	%r14, %rsi
0x403842: 48 89 EF                   mov	%rbp, %rdi
0x403845: E8 76 DE FF FF             callq	0x00000000004016c0
0x40384a: 41 83 FC 01                cmp	$0x1, %r12d
0x40384e: 0F 85 E6 FE FF FF          jne	0x000000000040373a
0x403854: 48 8B 54 24 58             mov	0x58(%rsp), %rdx
0x403859: 64 48 33 14 25 28 00 00    xor	%fs:0x28, %rdx
          00
0x403862: 48 89 E8                   mov	%rbp, %rax
0x403865: 0F 85 F9 03 00 00          jne	0x0000000000403c64
0x40386b: 48 83 C4 68                add	$0x68, %rsp
0x40386f: 5B                         pop	%rbx
0x403870: 5D                         pop	%rbp
0x403871: 41 5C                      pop	%r12
0x403873: 41 5D                      pop	%r13
0x403875: 41 5E                      pop	%r14
0x403877: 41 5F                      pop	%r15
0x403879: C3                         retq	
0x40387a: 66 0F 1F 44 00 00          nopw	0x0(%rax,%rax,1)
0x403880: 4C 89 F7                   mov	%r14, %rdi
0x403883: E8 88 DE FF FF             callq	0x0000000000401710
0x403888: 85 C0                      test	%eax, %eax
0x40388a: 0F 84 D9 03 00 00          je	0x0000000000403c69
0x403890: C6 44 24 18 01             movb	$0x1, 0x18(%rsp)
0x403895: 48 8B 74 24 28             mov	0x28(%rsp), %rsi
0x40389a: 48 8B 54 24 10             mov	0x10(%rsp), %rdx
0x40389f: 49 8D 4C 24 0C             lea	0xc(%r12), %rcx
0x4038a4: 49 8D 7C 24 2C             lea	0x2c(%r12), %rdi
0x4038a9: 48 29 F2                   sub	%rsi, %rdx
0x4038ac: E8 CF DB FF FF             callq	0x0000000000401480
0x4038b1: 48 83 F8 FF                cmp	$0xffffffffffffffff, %rax
0x4038b5: 48 89 44 24 30             mov	%rax, 0x30(%rsp)
0x4038ba: 0F 84 B0 00 00 00          je	0x0000000000403970
0x4038c0: 48 83 F8 FE                cmp	$0xfffffffffffffffe, %rax
0x4038c4: 0F 84 1E 01 00 00          je	0x00000000004039e8
0x4038ca: 48 85 C0                   test	%rax, %rax
0x4038cd: 0F 84 BD 00 00 00          je	0x0000000000403990
0x4038d3: 48 8B 54 24 28             mov	0x28(%rsp), %rdx
0x4038d8: 49 8D 7C 24 0C             lea	0xc(%r12), %rdi
0x4038dd: 48 89 54 24 08             mov	%rdx, 0x8(%rsp)
0x4038e2: C6 44 24 38 01             movb	$0x1, 0x38(%rsp)
0x4038e7: E8 24 DE FF FF             callq	0x0000000000401710
0x4038ec: 85 C0                      test	%eax, %eax
0x4038ee: 48 8B 54 24 08             mov	0x8(%rsp), %rdx
0x4038f3: 0F 84 00 FF FF FF          je	0x00000000004037f9
0x4038f9: C6 44 24 18 00             movb	$0x0, 0x18(%rsp)
0x4038fe: E9 F6 FE FF FF             jmpq	0x00000000004037f9
0x403903: 0F 1F 44 00 00             nopl	0x0(%rax,%rax,1)
0x403908: 80 7C 24 38 00             cmpb	$0x0, 0x38(%rsp)
0x40390d: 0F 84 8C FE FF FF          je	0x000000000040379f
0x403913: 8B 7C 24 3C                mov	0x3c(%rsp), %edi
0x403917: 48 89 54 24 08             mov	%rdx, 0x8(%rsp)
0x40391c: E8 7F DD FF FF             callq	0x00000000004016a0
0x403921: 48 8B 54 24 08             mov	0x8(%rsp), %rdx
0x403926: 85 C0                      test	%eax, %eax
0x403928: B8 02 00 00 00             mov	$0x2, %eax
0x40392d: 0F 45 D8                   cmovne	%eax, %ebx
0x403930: 4C 0F 45 FA                cmovne	%rdx, %r15
0x403934: E9 66 FE FF FF             jmpq	0x000000000040379f
0x403939: 0F 1F 80 00 00 00 00       nopl	0x0(%rax)
0x403940: 80 7C 24 38 00             cmpb	$0x0, 0x38(%rsp)
0x403945: 0F 84 4F FE FF FF          je	0x000000000040379a
0x40394b: 8B 7C 24 3C                mov	0x3c(%rsp), %edi
0x40394f: 48 89 54 24 08             mov	%rdx, 0x8(%rsp)
0x403954: E8 47 DD FF FF             callq	0x00000000004016a0
0x403959: 85 C0                      test	%eax, %eax
0x40395b: 48 8B 54 24 08             mov	0x8(%rsp), %rdx
0x403960: 0F 85 39 FE FF FF          jne	0x000000000040379f
0x403966: E9 2F FE FF FF             jmpq	0x000000000040379a
0x40396b: 0F 1F 44 00 00             nopl	0x0(%rax,%rax,1)
0x403970: 48 C7 44 24 30 01 00 00    movq	$0x1, 0x30(%rsp)
          00
0x403979: C6 44 24 38 00             movb	$0x0, 0x38(%rsp)
0x40397e: 48 8B 54 24 28             mov	0x28(%rsp), %rdx
0x403983: E9 71 FE FF FF             jmpq	0x00000000004037f9
0x403988: 0F 1F 84 00 00 00 00 00    nopl	0x0(%rax,%rax,1)
0x403990: 48 8B 54 24 28             mov	0x28(%rsp), %rdx
0x403995: 48 C7 44 24 30 01 00 00    movq	$0x1, 0x30(%rsp)
          00
0x40399e: 80 3A 00                   cmpb	$0x0, (%rdx)
0x4039a1: 0F 85 E0 02 00 00          jne	0x0000000000403c87
0x4039a7: 8B 44 24 3C                mov	0x3c(%rsp), %eax
0x4039ab: 85 C0                      test	%eax, %eax
0x4039ad: 0F 84 25 FF FF FF          je	0x00000000004038d8
0x4039b3: B9 90 B1 40 00             mov	$0x40b190, %ecx
0x4039b8: BA A2 00 00 00             mov	$0xa2, %edx
0x4039bd: BE 83 B1 40 00             mov	$0x40b183, %esi
0x4039c2: BF 50 B1 40 00             mov	$0x40b150, %edi
0x4039c7: E8 54 DB FF FF             callq	0x0000000000401520
0x4039cc: 0F 1F 40 00                nopl	0x0(%rax)
0x4039d0: 83 FB 02                   cmp	$0x2, %ebx
0x4039d3: 0F 85 7B FE FF FF          jne	0x0000000000403854
0x4039d9: 41 C6 07 00                movb	$0x0, (%r15)
0x4039dd: E9 72 FE FF FF             jmpq	0x0000000000403854
0x4039e2: 66 0F 1F 44 00 00          nopw	0x0(%rax,%rax,1)
0x4039e8: 48 8B 54 24 28             mov	0x28(%rsp), %rdx
0x4039ed: 48 8B 44 24 10             mov	0x10(%rsp), %rax
0x4039f2: C6 44 24 38 00             movb	$0x0, 0x38(%rsp)
0x4039f7: 48 29 D0                   sub	%rdx, %rax
0x4039fa: 48 89 44 24 30             mov	%rax, 0x30(%rsp)
0x4039ff: E9 F5 FD FF FF             jmpq	0x00000000004037f9
0x403a04: 0F 1F 40 00                nopl	0x0(%rax)
0x403a08: 45 85 E4                   test	%r12d, %r12d
0x403a0b: 74 55                      je	0x0000000000403a62
0x403a0d: 44 0F B6 6D 00             movzbl	0x0(%rbp), %r13d
0x403a12: 48 89 EB                   mov	%rbp, %rbx
0x403a15: 45 84 ED                   test	%r13b, %r13b
0x403a18: 74 27                      je	0x0000000000403a41
0x403a1a: E8 21 DC FF FF             callq	0x0000000000401640
0x403a1f: 48 8B 00                   mov	(%rax), %rax
0x403a22: EB 11                      jmp	0x0000000000403a35
0x403a24: 0F 1F 40 00                nopl	0x0(%rax)
0x403a28: 48 83 C3 01                add	$0x1, %rbx
0x403a2c: 44 0F B6 2B                movzbl	(%rbx), %r13d
0x403a30: 45 84 ED                   test	%r13b, %r13b
0x403a33: 74 0C                      je	0x0000000000403a41
0x403a35: 45 0F B6 ED                movzbl	%r13b, %r13d
0x403a39: 42 F6 44 68 01 20          testb	$0x20, 0x1(%rax,%r13,2)
0x403a3f: 75 E7                      jne	0x0000000000403a28
0x403a41: 48 89 DF                   mov	%rbx, %rdi
0x403a44: E8 C7 DB FF FF             callq	0x0000000000401610
0x403a49: 48 8D 50 01                lea	0x1(%rax), %rdx
0x403a4d: 48 89 DE                   mov	%rbx, %rsi
0x403a50: 48 89 EF                   mov	%rbp, %rdi
0x403a53: E8 68 DC FF FF             callq	0x00000000004016c0
0x403a58: 41 83 FC 01                cmp	$0x1, %r12d
0x403a5c: 0F 84 F2 FD FF FF          je	0x0000000000403854
0x403a62: 48 89 EF                   mov	%rbp, %rdi
0x403a65: E8 A6 DB FF FF             callq	0x0000000000401610
0x403a6a: 48 8D 5C 05 FF             lea	-0x1(%rbp,%rax,1), %rbx
0x403a6f: 48 39 DD                   cmp	%rbx, %rbp
0x403a72: 0F 87 DC FD FF FF          ja	0x0000000000403854
0x403a78: E8 C3 DB FF FF             callq	0x0000000000401640
0x403a7d: 0F 1F 00                   nopl	(%rax)
0x403a80: EB 16                      jmp	0x0000000000403a98
0x403a82: 66 0F 1F 44 00 00          nopw	0x0(%rax,%rax,1)
0x403a88: C6 03 00                   movb	$0x0, (%rbx)
0x403a8b: 48 83 EB 01                sub	$0x1, %rbx
0x403a8f: 48 39 DD                   cmp	%rbx, %rbp
0x403a92: 0F 87 BC FD FF FF          ja	0x0000000000403854
0x403a98: 0F B6 0B                   movzbl	(%rbx), %ecx
0x403a9b: 48 8B 10                   mov	(%rax), %rdx
0x403a9e: F6 44 4A 01 20             testb	$0x20, 0x1(%rdx,%rcx,2)
0x403aa3: 75 E3                      jne	0x0000000000403a88
0x403aa5: E9 AA FD FF FF             jmpq	0x0000000000403854
0x403aaa: 66 0F 1F 44 00 00          nopw	0x0(%rax,%rax,1)
0x403ab0: 48 89 EF                   mov	%rbp, %rdi
0x403ab3: 48 89 6C 24 28             mov	%rbp, 0x28(%rsp)
0x403ab8: 48 8D 5C 24 10             lea	0x10(%rsp), %rbx
0x403abd: E8 4E DB FF FF             callq	0x0000000000401610
0x403ac2: 48 8D 44 05 00             lea	0x0(%rbp,%rax,1), %rax
0x403ac7: C6 44 24 18 00             movb	$0x0, 0x18(%rsp)
0x403acc: 48 C7 44 24 1C 00 00 00    movq	$0x0, 0x1c(%rsp)
          00
0x403ad5: C6 44 24 24 00             movb	$0x0, 0x24(%rsp)
0x403ada: 49 89 EE                   mov	%rbp, %r14
0x403add: 4C 8D 6B 0C                lea	0xc(%rbx), %r13
0x403ae1: 48 39 C5                   cmp	%rax, %rbp
0x403ae4: 48 89 44 24 10             mov	%rax, 0x10(%rsp)
0x403ae9: 0F 82 87 00 00 00          jb	0x0000000000403b76
0x403aef: E9 3F FD FF FF             jmpq	0x0000000000403833
0x403af4: 0F 1F 40 00                nopl	0x0(%rax)
0x403af8: 41 0F B6 06                movzbl	(%r14), %eax
0x403afc: 89 C2                      mov	%eax, %edx
0x403afe: C0 EA 05                   shr	$0x5, %dl
0x403b01: 0F B6 D2                   movzbl	%dl, %edx
0x403b04: 8B 14 95 A0 BA 40 00       mov	0x40baa0(,%rdx,4), %edx
0x403b0b: 0F A3 C2                   bt	%eax, %edx
0x403b0e: 0F 83 D4 00 00 00          jae	0x0000000000403be8
0x403b14: 48 8B 54 24 28             mov	0x28(%rsp), %rdx
0x403b19: 48 C7 44 24 30 01 00 00    movq	$0x1, 0x30(%rsp)
          00
0x403b22: 0F BE 02                   movsbl	(%rdx), %eax
0x403b25: C6 44 24 38 01             movb	$0x1, 0x38(%rsp)
0x403b2a: 89 44 24 3C                mov	%eax, 0x3c(%rsp)
0x403b2e: 80 7C 24 38 00             cmpb	$0x0, 0x38(%rsp)
0x403b33: C6 44 24 24 01             movb	$0x1, 0x24(%rsp)
0x403b38: 0F 84 F2 FC FF FF          je	0x0000000000403830
0x403b3e: 8B 7C 24 3C                mov	0x3c(%rsp), %edi
0x403b42: 48 89 54 24 08             mov	%rdx, 0x8(%rsp)
0x403b47: E8 54 DB FF FF             callq	0x00000000004016a0
0x403b4c: 85 C0                      test	%eax, %eax
0x403b4e: 48 8B 54 24 08             mov	0x8(%rsp), %rdx
0x403b53: 0F 84 D7 FC FF FF          je	0x0000000000403830
0x403b59: 49 89 D6                   mov	%rdx, %r14
0x403b5c: 4C 03 74 24 30             add	0x30(%rsp), %r14
0x403b61: C6 44 24 24 00             movb	$0x0, 0x24(%rsp)
0x403b66: 4C 39 74 24 10             cmp	%r14, 0x10(%rsp)
0x403b6b: 4C 89 74 24 28             mov	%r14, 0x28(%rsp)
0x403b70: 0F 86 BD FC FF FF          jbe	0x0000000000403833
0x403b76: 80 7C 24 18 00             cmpb	$0x0, 0x18(%rsp)
0x403b7b: 0F 84 77 FF FF FF          je	0x0000000000403af8
0x403b81: 48 8B 74 24 28             mov	0x28(%rsp), %rsi
0x403b86: 48 8B 54 24 10             mov	0x10(%rsp), %rdx
0x403b8b: 48 8D 4B 0C                lea	0xc(%rbx), %rcx
0x403b8f: 48 8D 7B 2C                lea	0x2c(%rbx), %rdi
0x403b93: 48 29 F2                   sub	%rsi, %rdx
0x403b96: E8 E5 D8 FF FF             callq	0x0000000000401480
0x403b9b: 48 83 F8 FF                cmp	$0xffffffffffffffff, %rax
0x403b9f: 48 89 44 24 30             mov	%rax, 0x30(%rsp)
0x403ba4: 74 5A                      je	0x0000000000403c00
0x403ba6: 48 83 F8 FE                cmp	$0xfffffffffffffffe, %rax
0x403baa: 0F 84 98 00 00 00          je	0x0000000000403c48
0x403bb0: 48 85 C0                   test	%rax, %rax
0x403bb3: 74 6B                      je	0x0000000000403c20
0x403bb5: 48 8B 54 24 28             mov	0x28(%rsp), %rdx
0x403bba: 48 8D 7B 0C                lea	0xc(%rbx), %rdi
0x403bbe: 48 89 54 24 08             mov	%rdx, 0x8(%rsp)
0x403bc3: C6 44 24 38 01             movb	$0x1, 0x38(%rsp)
0x403bc8: E8 43 DB FF FF             callq	0x0000000000401710
0x403bcd: 85 C0                      test	%eax, %eax
0x403bcf: 48 8B 54 24 08             mov	0x8(%rsp), %rdx
0x403bd4: 0F 84 54 FF FF FF          je	0x0000000000403b2e
0x403bda: C6 44 24 18 00             movb	$0x0, 0x18(%rsp)
0x403bdf: E9 4A FF FF FF             jmpq	0x0000000000403b2e
0x403be4: 0F 1F 40 00                nopl	0x0(%rax)
0x403be8: 4C 89 EF                   mov	%r13, %rdi
0x403beb: E8 20 DB FF FF             callq	0x0000000000401710
0x403bf0: 85 C0                      test	%eax, %eax
0x403bf2: 74 75                      je	0x0000000000403c69
0x403bf4: C6 44 24 18 01             movb	$0x1, 0x18(%rsp)
0x403bf9: EB 86                      jmp	0x0000000000403b81
0x403bfb: 0F 1F 44 00 00             nopl	0x0(%rax,%rax,1)
0x403c00: 48 C7 44 24 30 01 00 00    movq	$0x1, 0x30(%rsp)
          00
0x403c09: C6 44 24 38 00             movb	$0x0, 0x38(%rsp)
0x403c0e: 48 8B 54 24 28             mov	0x28(%rsp), %rdx
0x403c13: E9 16 FF FF FF             jmpq	0x0000000000403b2e
0x403c18: 0F 1F 84 00 00 00 00 00    nopl	0x0(%rax,%rax,1)
0x403c20: 48 8B 54 24 28             mov	0x28(%rsp), %rdx
0x403c25: 48 C7 44 24 30 01 00 00    movq	$0x1, 0x30(%rsp)
          00
0x403c2e: 80 3A 00                   cmpb	$0x0, (%rdx)
0x403c31: 75 54                      jne	0x0000000000403c87
0x403c33: 8B 4C 24 3C                mov	0x3c(%rsp), %ecx
0x403c37: 85 C9                      test	%ecx, %ecx
0x403c39: 0F 84 7B FF FF FF          je	0x0000000000403bba
0x403c3f: E9 6F FD FF FF             jmpq	0x00000000004039b3
0x403c44: 0F 1F 40 00                nopl	0x0(%rax)
0x403c48: 48 8B 54 24 28             mov	0x28(%rsp), %rdx
0x403c4d: 48 8B 44 24 10             mov	0x10(%rsp), %rax
0x403c52: C6 44 24 38 00             movb	$0x0, 0x38(%rsp)
0x403c57: 48 29 D0                   sub	%rdx, %rax
0x403c5a: 48 89 44 24 30             mov	%rax, 0x30(%rsp)
0x403c5f: E9 CA FE FF FF             jmpq	0x0000000000403b2e
0x403c64: E8 D7 DA FF FF             callq	0x0000000000401740
0x403c69: B9 90 B1 40 00             mov	$0x40b190, %ecx
0x403c6e: BA 86 00 00 00             mov	$0x86, %edx
0x403c73: BE 83 B1 40 00             mov	$0x40b183, %esi
0x403c78: BF 22 B1 40 00             mov	$0x40b122, %edi
0x403c7d: E8 9E D8 FF FF             callq	0x0000000000401520
0x403c82: E8 C9 02 00 00             callq	0x0000000000403f50
0x403c87: B9 90 B1 40 00             mov	$0x40b190, %ecx
0x403c8c: BA A1 00 00 00             mov	$0xa1, %edx
0x403c91: BE 83 B1 40 00             mov	$0x40b183, %esi
0x403c96: BF 39 B1 40 00             mov	$0x40b139, %edi
0x403c9b: E8 80 D8 FF FF             callq	0x0000000000401520
0x403ca0: 53                         push	%rbx
0x403ca1: BA 05 00 00 00             mov	$0x5, %edx
0x403ca6: BE A2 B1 40 00             mov	$0x40b1a2, %esi
0x403cab: 31 FF                      xor	%edi, %edi
0x403cad: E8 7E DA FF FF             callq	0x0000000000401730
0x403cb2: BA 74 AE 40 00             mov	$0x40ae74, %edx
0x403cb7: 48 89 C6                   mov	%rax, %rsi
0x403cba: BF 01 00 00 00             mov	$0x1, %edi
0x403cbf: 31 C0                      xor	%eax, %eax
0x403cc1: E8 6A D8 FF FF             callq	0x0000000000401530
0x403cc6: BA 05 00 00 00             mov	$0x5, %edx
0x403ccb: BE 18 B2 40 00             mov	$0x40b218, %esi
0x403cd0: 31 FF                      xor	%edi, %edi
0x403cd2: E8 59 DA FF FF             callq	0x0000000000401730
0x403cd7: B9 8E AE 40 00             mov	$0x40ae8e, %ecx
0x403cdc: 48 89 C6                   mov	%rax, %rsi
0x403cdf: BA 8A AE 40 00             mov	$0x40ae8a, %edx
0x403ce4: BF 01 00 00 00             mov	$0x1, %edi
0x403ce9: 31 C0                      xor	%eax, %eax
0x403ceb: E8 40 D8 FF FF             callq	0x0000000000401530
0x403cf0: 48 8B 1D 79 95 20 00       mov	0x209579(%rip), %rbx	#  0x000000000060d270
0x403cf7: BE 50 B2 40 00             mov	$0x40b250, %esi
0x403cfc: 31 FF                      xor	%edi, %edi
0x403cfe: BA 05 00 00 00             mov	$0x5, %edx
0x403d03: E8 28 DA FF FF             callq	0x0000000000401730
0x403d08: 48 89 DE                   mov	%rbx, %rsi
0x403d0b: 48 89 C7                   mov	%rax, %rdi
0x403d0e: 5B                         pop	%rbx
0x403d0f: E9 1C D9 FF FF             jmpq	0x0000000000401630
0x403d14: 66 66 66 2E 0F 1F 84 00    nopw	%cs:0x0(%rax,%rax,1)
          00 00 00 00
0x403d20: 41 54                      push	%r12
0x403d22: 49 89 C9                   mov	%rcx, %r9
0x403d25: 49 89 FC                   mov	%rdi, %r12
0x403d28: 55                         push	%rbp
0x403d29: 4C 89 C5                   mov	%r8, %rbp
0x403d2c: 53                         push	%rbx
0x403d2d: 31 DB                      xor	%ebx, %ebx
0x403d2f: 48 83 EC 20                sub	$0x20, %rsp
0x403d33: 49 8B 00                   mov	(%r8), %rax
0x403d36: 48 89 04 24                mov	%rax, (%rsp)
0x403d3a: 49 8B 48 08                mov	0x8(%r8), %rcx
0x403d3e: 8B 04 24                   mov	(%rsp), %eax
0x403d41: 48 89 4C 24 08             mov	%rcx, 0x8(%rsp)
0x403d46: 4D 8B 50 10                mov	0x10(%r8), %r10
0x403d4a: 4C 89 54 24 10             mov	%r10, 0x10(%rsp)
0x403d4f: EB 0E                      jmp	0x0000000000403d5f
0x403d51: 0F 1F 80 00 00 00 00       nopl	0x0(%rax)
0x403d58: 48 83 C3 01                add	$0x1, %rbx
0x403d5c: 48 89 F9                   mov	%rdi, %rcx
0x403d5f: 83 F8 2F                   cmp	$0x2f, %eax
0x403d62: 48 8D 79 08                lea	0x8(%rcx), %rdi
0x403d66: 49 89 C8                   mov	%rcx, %r8
0x403d69: 77 0D                      ja	0x0000000000403d78
0x403d6b: 41 89 C0                   mov	%eax, %r8d
0x403d6e: 48 89 CF                   mov	%rcx, %rdi
0x403d71: 83 C0 08                   add	$0x8, %eax
0x403d74: 4F 8D 04 02                lea	(%r10,%r8,1), %r8
0x403d78: 49 83 38 00                cmpq	$0x0, (%r8)
0x403d7c: 75 DA                      jne	0x0000000000403d58
0x403d7e: 48 85 F6                   test	%rsi, %rsi
0x403d81: 89 04 24                   mov	%eax, (%rsp)
0x403d84: 48 89 7C 24 08             mov	%rdi, 0x8(%rsp)
0x403d89: 0F 84 11 01 00 00          je	0x0000000000403ea0
0x403d8f: 49 89 D0                   mov	%rdx, %r8
0x403d92: 48 89 F1                   mov	%rsi, %rcx
0x403d95: BA B9 B1 40 00             mov	$0x40b1b9, %edx
0x403d9a: BE 01 00 00 00             mov	$0x1, %esi
0x403d9f: 4C 89 E7                   mov	%r12, %rdi
0x403da2: 31 C0                      xor	%eax, %eax
0x403da4: E8 47 D7 FF FF             callq	0x00000000004014f0
0x403da9: 31 FF                      xor	%edi, %edi
0x403dab: BA 05 00 00 00             mov	$0x5, %edx
0x403db0: BE CC B1 40 00             mov	$0x40b1cc, %esi
0x403db5: E8 76 D9 FF FF             callq	0x0000000000401730
0x403dba: 41 B8 D9 07 00 00          mov	$0x7d9, %r8d
0x403dc0: 48 89 C1                   mov	%rax, %rcx
0x403dc3: BA 00 B5 40 00             mov	$0x40b500, %edx
0x403dc8: BE 01 00 00 00             mov	$0x1, %esi
0x403dcd: 4C 89 E7                   mov	%r12, %rdi
0x403dd0: 31 C0                      xor	%eax, %eax
0x403dd2: E8 19 D7 FF FF             callq	0x00000000004014f0
0x403dd7: BA 05 00 00 00             mov	$0x5, %edx
0x403ddc: 31 FF                      xor	%edi, %edi
0x403dde: BE 98 B2 40 00             mov	$0x40b298, %esi
0x403de3: E8 48 D9 FF FF             callq	0x0000000000401730
0x403de8: 4C 89 E6                   mov	%r12, %rsi
0x403deb: 48 89 C7                   mov	%rax, %rdi
0x403dee: E8 3D D8 FF FF             callq	0x0000000000401630
0x403df3: 48 83 FB 09                cmp	$0x9, %rbx
0x403df7: BA 05 00 00 00             mov	$0x5, %edx
0x403dfc: BE 70 B4 40 00             mov	$0x40b470, %esi
0x403e01: 77 15                      ja	0x0000000000403e18
0x403e03: FF 24 DD B0 B4 40 00       jmpq	*0x40b4b0(,%rbx,8)
0x403e0a: BA 05 00 00 00             mov	$0x5, %edx
0x403e0f: BE 08 B4 40 00             mov	$0x40b408, %esi
0x403e14: 0F 1F 40 00                nopl	0x0(%rax)
0x403e18: 31 FF                      xor	%edi, %edi
0x403e1a: E8 11 D9 FF FF             callq	0x0000000000401730
0x403e1f: 48 89 EA                   mov	%rbp, %rdx
0x403e22: 4C 89 E7                   mov	%r12, %rdi
0x403e25: 48 89 C6                   mov	%rax, %rsi
0x403e28: E8 83 17 00 00             callq	0x00000000004055b0
0x403e2d: 48 83 C4 20                add	$0x20, %rsp
0x403e31: 5B                         pop	%rbx
0x403e32: 5D                         pop	%rbp
0x403e33: 41 5C                      pop	%r12
0x403e35: C3                         retq	
0x403e36: BA 05 00 00 00             mov	$0x5, %edx
0x403e3b: BE 38 B4 40 00             mov	$0x40b438, %esi
0x403e40: EB D6                      jmp	0x0000000000403e18
0x403e42: E8 69 D6 FF FF             callq	0x00000000004014b0
0x403e47: BA 05 00 00 00             mov	$0x5, %edx
0x403e4c: BE D0 B1 40 00             mov	$0x40b1d0, %esi
0x403e51: EB C5                      jmp	0x0000000000403e18
0x403e53: BA 05 00 00 00             mov	$0x5, %edx
0x403e58: BE E0 B1 40 00             mov	$0x40b1e0, %esi
0x403e5d: EB B9                      jmp	0x0000000000403e18
0x403e5f: BA 05 00 00 00             mov	$0x5, %edx
0x403e64: BE F7 B1 40 00             mov	$0x40b1f7, %esi
0x403e69: EB AD                      jmp	0x0000000000403e18
0x403e6b: BA 05 00 00 00             mov	$0x5, %edx
0x403e70: BE 68 B3 40 00             mov	$0x40b368, %esi
0x403e75: EB A1                      jmp	0x0000000000403e18
0x403e77: BA 05 00 00 00             mov	$0x5, %edx
0x403e7c: BE 88 B3 40 00             mov	$0x40b388, %esi
0x403e81: EB 95                      jmp	0x0000000000403e18
0x403e83: BA 05 00 00 00             mov	$0x5, %edx
0x403e88: BE B0 B3 40 00             mov	$0x40b3b0, %esi
0x403e8d: EB 89                      jmp	0x0000000000403e18
0x403e8f: BA 05 00 00 00             mov	$0x5, %edx
0x403e94: BE D8 B3 40 00             mov	$0x40b3d8, %esi
0x403e99: E9 7A FF FF FF             jmpq	0x0000000000403e18
0x403e9e: 66 90                      xchg	%ax, %ax
0x403ea0: 48 89 D1                   mov	%rdx, %rcx
0x403ea3: 4D 89 C8                   mov	%r9, %r8
0x403ea6: BA C5 B1 40 00             mov	$0x40b1c5, %edx
0x403eab: BE 01 00 00 00             mov	$0x1, %esi
0x403eb0: 4C 89 E7                   mov	%r12, %rdi
0x403eb3: 31 C0                      xor	%eax, %eax
0x403eb5: E8 36 D6 FF FF             callq	0x00000000004014f0
0x403eba: E9 EA FE FF FF             jmpq	0x0000000000403da9
0x403ebf: 90                         nop	
0x403ec0: 53                         push	%rbx
0x403ec1: 0F B6 C0                   movzbl	%al, %eax
0x403ec4: 48 8D 1C 85 00 00 00 00    lea	0x0(,%rax,4), %rbx
0x403ecc: B8 12 3F 40 00             mov	$0x403f12, %eax
0x403ed1: 48 81 EC D0 00 00 00       sub	$0xd0, %rsp
0x403ed8: 48 29 D8                   sub	%rbx, %rax
0x403edb: 48 8D 9C 24 CF 00 00 00    lea	0xcf(%rsp), %rbx
0x403ee3: 4C 89 44 24 40             mov	%r8, 0x40(%rsp)
0x403ee8: 4C 89 4C 24 48             mov	%r9, 0x48(%rsp)
0x403eed: 49 89 E0                   mov	%rsp, %r8
0x403ef0: FF E0                      jmpq	*%rax
0x403ef2: 0F 29 7B F1                movaps	%xmm7, -0xf(%rbx)
0x403ef6: 0F 29 73 E1                movaps	%xmm6, -0x1f(%rbx)
0x403efa: 0F 29 6B D1                movaps	%xmm5, -0x2f(%rbx)
0x403efe: 0F 29 63 C1                movaps	%xmm4, -0x3f(%rbx)
0x403f02: 0F 29 5B B1                movaps	%xmm3, -0x4f(%rbx)
0x403f06: 0F 29 53 A1                movaps	%xmm2, -0x5f(%rbx)
0x403f0a: 0F 29 4B 91                movaps	%xmm1, -0x6f(%rbx)
0x403f0e: 0F 29 43 81                movaps	%xmm0, -0x7f(%rbx)
0x403f12: 48 8D 84 24 E0 00 00 00    lea	0xe0(%rsp), %rax
0x403f1a: C7 04 24 20 00 00 00       movl	$0x20, (%rsp)
0x403f21: C7 44 24 04 30 00 00 00    movl	$0x30, 0x4(%rsp)
0x403f29: 48 89 44 24 08             mov	%rax, 0x8(%rsp)
0x403f2e: 48 8D 44 24 20             lea	0x20(%rsp), %rax
0x403f33: 48 89 44 24 10             mov	%rax, 0x10(%rsp)
0x403f38: E8 E3 FD FF FF             callq	0x0000000000403d20
0x403f3d: 48 81 C4 D0 00 00 00       add	$0xd0, %rsp
0x403f44: 5B                         pop	%rbx
0x403f45: C3                         retq	
0x403f46: 90                         nop	
0x403f47: 90                         nop	
0x403f48: 90                         nop	
0x403f49: 90                         nop	
0x403f4a: 90                         nop	
0x403f4b: 90                         nop	
0x403f4c: 90                         nop	
0x403f4d: 90                         nop	
0x403f4e: 90                         nop	
0x403f4f: 90                         nop	
0x403f50: 48 83 EC 08                sub	$0x8, %rsp
0x403f54: BA 05 00 00 00             mov	$0x5, %edx
0x403f59: BE 2F B5 40 00             mov	$0x40b52f, %esi
0x403f5e: 31 FF                      xor	%edi, %edi
0x403f60: E8 CB D7 FF FF             callq	0x0000000000401730
0x403f65: 8B 3D CD 92 20 00          mov	0x2092cd(%rip), %edi	#  0x000000000060d238
0x403f6b: 48 89 C1                   mov	%rax, %rcx
0x403f6e: BA 44 B5 40 00             mov	$0x40b544, %edx
0x403f73: 31 F6                      xor	%esi, %esi
0x403f75: 31 C0                      xor	%eax, %eax
0x403f77: E8 84 D8 FF FF             callq	0x0000000000401800
0x403f7c: E8 2F D5 FF FF             callq	0x00000000004014b0
0x403f81: 90                         nop	
0x403f82: 90                         nop	
0x403f83: 90                         nop	
0x403f84: 90                         nop	
0x403f85: 90                         nop	
0x403f86: 90                         nop	
0x403f87: 90                         nop	
0x403f88: 90                         nop	
0x403f89: 90                         nop	
0x403f8a: 90                         nop	
0x403f8b: 90                         nop	
0x403f8c: 90                         nop	
0x403f8d: 90                         nop	
0x403f8e: 90                         nop	
0x403f8f: 90                         nop	
0x403f90: 53                         push	%rbx
0x403f91: E8 AA 37 00 00             callq	0x0000000000407740
0x403f96: 48 85 C0                   test	%rax, %rax
0x403f99: 48 89 C3                   mov	%rax, %rbx
0x403f9c: 74 0A                      je	0x0000000000403fa8
0x403f9e: 48 89 D8                   mov	%rbx, %rax
0x403fa1: 5B                         pop	%rbx
0x403fa2: C3                         retq	
0x403fa3: 0F 1F 44 00 00             nopl	0x0(%rax,%rax,1)
0x403fa8: E8 73 D7 FF FF             callq	0x0000000000401720
0x403fad: 83 38 0C                   cmpl	$0xc, (%rax)
0x403fb0: 75 EC                      jne	0x0000000000403f9e
0x403fb2: E8 99 FF FF FF             callq	0x0000000000403f50
0x403fb7: 66 0F 1F 84 00 00 00 00    nopw	0x0(%rax,%rax,1)
          00
0x403fc0: 53                         push	%rbx
0x403fc1: E8 2A 35 00 00             callq	0x00000000004074f0
0x403fc6: 48 85 C0                   test	%rax, %rax
0x403fc9: 48 89 C3                   mov	%rax, %rbx
0x403fcc: 74 0A                      je	0x0000000000403fd8
0x403fce: 48 89 D8                   mov	%rbx, %rax
0x403fd1: 5B                         pop	%rbx
0x403fd2: C3                         retq	
0x403fd3: 0F 1F 44 00 00             nopl	0x0(%rax,%rax,1)
0x403fd8: E8 43 D7 FF FF             callq	0x0000000000401720
0x403fdd: 83 38 0C                   cmpl	$0xc, (%rax)
0x403fe0: 75 EC                      jne	0x0000000000403fce
0x403fe2: E8 69 FF FF FF             callq	0x0000000000403f50
0x403fe7: 66 0F 1F 84 00 00 00 00    nopw	0x0(%rax,%rax,1)
          00
0x403ff0: 53                         push	%rbx
0x403ff1: E8 3A 38 00 00             callq	0x0000000000407830
0x403ff6: 85 C0                      test	%eax, %eax
0x403ff8: 89 C3                      mov	%eax, %ebx
0x403ffa: 78 04                      js	0x0000000000404000
0x403ffc: 89 D8                      mov	%ebx, %eax
0x403ffe: 5B                         pop	%rbx
0x403fff: C3                         retq	
0x404000: E8 1B D7 FF FF             callq	0x0000000000401720
0x404005: 83 38 0C                   cmpl	$0xc, (%rax)
0x404008: 75 F2                      jne	0x0000000000403ffc
0x40400a: 66 0F 1F 44 00 00          nopw	0x0(%rax,%rax,1)
0x404010: E8 3B FF FF FF             callq	0x0000000000403f50
0x404015: 90                         nop	
0x404016: 90                         nop	
0x404017: 90                         nop	
0x404018: 90                         nop	
0x404019: 90                         nop	
0x40401a: 90                         nop	
0x40401b: 90                         nop	
0x40401c: 90                         nop	
0x40401d: 90                         nop	
0x40401e: 90                         nop	
0x40401f: 90                         nop	
0x404020: 0F B6 17                   movzbl	(%rdi), %edx
0x404023: 48 89 F8                   mov	%rdi, %rax
0x404026: 48 89 F9                   mov	%rdi, %rcx
0x404029: 80 FA 2F                   cmp	$0x2f, %dl
0x40402c: 75 11                      jne	0x000000000040403f
0x40402e: 66 90                      xchg	%ax, %ax
0x404030: 48 83 C0 01                add	$0x1, %rax
0x404034: 0F B6 10                   movzbl	(%rax), %edx
0x404037: 80 FA 2F                   cmp	$0x2f, %dl
0x40403a: 74 F4                      je	0x0000000000404030
0x40403c: 48 89 C1                   mov	%rax, %rcx
0x40403f: 84 D2                      test	%dl, %dl
0x404041: 74 37                      je	0x000000000040407a
0x404043: 31 F6                      xor	%esi, %esi
0x404045: EB 1E                      jmp	0x0000000000404065
0x404047: 66 0F 1F 84 00 00 00 00    nopw	0x0(%rax,%rax,1)
          00
0x404050: 40 84 F6                   test	%sil, %sil
0x404053: 74 05                      je	0x000000000040405a
0x404055: 48 89 C8                   mov	%rcx, %rax
0x404058: 31 F6                      xor	%esi, %esi
0x40405a: 48 83 C1 01                add	$0x1, %rcx
0x40405e: 0F B6 11                   movzbl	(%rcx), %edx
0x404061: 84 D2                      test	%dl, %dl
0x404063: 74 15                      je	0x000000000040407a
0x404065: 80 FA 2F                   cmp	$0x2f, %dl
0x404068: 75 E6                      jne	0x0000000000404050
0x40406a: 48 83 C1 01                add	$0x1, %rcx
0x40406e: BE 01 00 00 00             mov	$0x1, %esi
0x404073: 0F B6 11                   movzbl	(%rcx), %edx
0x404076: 84 D2                      test	%dl, %dl
0x404078: 75 EB                      jne	0x0000000000404065
0x40407a: F3 C3                      repz  retq	
0x40407c: 0F 1F 40 00                nopl	0x0(%rax)
0x404080: 53                         push	%rbx
0x404081: 48 89 FB                   mov	%rdi, %rbx
0x404084: E8 87 D5 FF FF             callq	0x0000000000401610
0x404089: 48 83 F8 01                cmp	$0x1, %rax
0x40408d: 76 07                      jbe	0x0000000000404096
0x40408f: 80 7C 03 FF 2F             cmpb	$0x2f, -0x1(%rbx,%rax,1)
0x404094: 74 0A                      je	0x00000000004040a0
0x404096: 5B                         pop	%rbx
0x404097: C3                         retq	
0x404098: 0F 1F 84 00 00 00 00 00    nopl	0x0(%rax,%rax,1)
0x4040a0: 48 01 C3                   add	%rax, %rbx
0x4040a3: 48 83 E8 01                sub	$0x1, %rax
0x4040a7: 48 83 F8 01                cmp	$0x1, %rax
0x4040ab: 76 E9                      jbe	0x0000000000404096
0x4040ad: 0F B6 53 FE                movzbl	-0x2(%rbx), %edx
0x4040b1: 48 83 EB 01                sub	$0x1, %rbx
0x4040b5: 80 FA 2F                   cmp	$0x2f, %dl
0x4040b8: 74 E9                      je	0x00000000004040a3
0x4040ba: 5B                         pop	%rbx
0x4040bb: C3                         retq	
0x4040bc: 0F 1F 40 00                nopl	0x0(%rax)
0x4040c0: 55                         push	%rbp
0x4040c1: 48 89 F9                   mov	%rdi, %rcx
0x4040c4: 48 89 FD                   mov	%rdi, %rbp
0x4040c7: 48 89 FA                   mov	%rdi, %rdx
0x4040ca: 53                         push	%rbx
0x4040cb: 48 89 FB                   mov	%rdi, %rbx
0x4040ce: 48 83 EC 08                sub	$0x8, %rsp
0x4040d2: 0F B6 07                   movzbl	(%rdi), %eax
0x4040d5: 3C 2F                      cmp	$0x2f, %al
0x4040d7: 75 18                      jne	0x00000000004040f1
0x4040d9: 0F 1F 80 00 00 00 00       nopl	0x0(%rax)
0x4040e0: 48 83 C1 01                add	$0x1, %rcx
0x4040e4: 0F B6 01                   movzbl	(%rcx), %eax
0x4040e7: 3C 2F                      cmp	$0x2f, %al
0x4040e9: 74 F5                      je	0x00000000004040e0
0x4040eb: 48 89 CA                   mov	%rcx, %rdx
0x4040ee: 48 89 CB                   mov	%rcx, %rbx
0x4040f1: 84 C0                      test	%al, %al
0x4040f3: 74 63                      je	0x0000000000404158
0x4040f5: 31 C9                      xor	%ecx, %ecx
0x4040f7: EB 1B                      jmp	0x0000000000404114
0x4040f9: 0F 1F 80 00 00 00 00       nopl	0x0(%rax)
0x404100: 84 C9                      test	%cl, %cl
0x404102: 74 05                      je	0x0000000000404109
0x404104: 48 89 D3                   mov	%rdx, %rbx
0x404107: 31 C9                      xor	%ecx, %ecx
0x404109: 48 83 C2 01                add	$0x1, %rdx
0x40410d: 0F B6 02                   movzbl	(%rdx), %eax
0x404110: 84 C0                      test	%al, %al
0x404112: 74 14                      je	0x0000000000404128
0x404114: 3C 2F                      cmp	$0x2f, %al
0x404116: 75 E8                      jne	0x0000000000404100
0x404118: 48 83 C2 01                add	$0x1, %rdx
0x40411c: B9 01 00 00 00             mov	$0x1, %ecx
0x404121: 0F B6 02                   movzbl	(%rdx), %eax
0x404124: 84 C0                      test	%al, %al
0x404126: 75 EC                      jne	0x0000000000404114
0x404128: 80 3B 00                   cmpb	$0x0, (%rbx)
0x40412b: 74 2B                      je	0x0000000000404158
0x40412d: 48 89 DF                   mov	%rbx, %rdi
0x404130: E8 4B FF FF FF             callq	0x0000000000404080
0x404135: 31 D2                      xor	%edx, %edx
0x404137: 80 3C 03 2F                cmpb	$0x2f, (%rbx,%rax,1)
0x40413b: 48 89 DF                   mov	%rbx, %rdi
0x40413e: 0F 94 C2                   sete	%dl
0x404141: 48 83 C4 08                add	$0x8, %rsp
0x404145: 5B                         pop	%rbx
0x404146: 5D                         pop	%rbp
0x404147: 48 01 D0                   add	%rdx, %rax
0x40414a: 48 89 C6                   mov	%rax, %rsi
0x40414d: E9 8E 39 00 00             jmpq	0x0000000000407ae0
0x404152: 66 0F 1F 44 00 00          nopw	0x0(%rax,%rax,1)
0x404158: 48 89 EF                   mov	%rbp, %rdi
0x40415b: E8 20 FF FF FF             callq	0x0000000000404080
0x404160: 48 83 C4 08                add	$0x8, %rsp
0x404164: 48 89 EF                   mov	%rbp, %rdi
0x404167: 48 89 C6                   mov	%rax, %rsi
0x40416a: 5B                         pop	%rbx
0x40416b: 5D                         pop	%rbp
0x40416c: E9 6F 39 00 00             jmpq	0x0000000000407ae0
0x404171: 90                         nop	
0x404172: 90                         nop	
0x404173: 90                         nop	
0x404174: 90                         nop	
0x404175: 90                         nop	
0x404176: 90                         nop	
0x404177: 90                         nop	
0x404178: 90                         nop	
0x404179: 90                         nop	
0x40417a: 90                         nop	
0x40417b: 90                         nop	
0x40417c: 90                         nop	
0x40417d: 90                         nop	
0x40417e: 90                         nop	
0x40417f: 90                         nop	
0x404180: 48 89 3D 21 91 20 00       mov	%rdi, 0x209121(%rip)	#  0x000000000060d2a8
0x404187: C3                         retq	
0x404188: 0F 1F 84 00 00 00 00 00    nopl	0x0(%rax,%rax,1)
0x404190: 40 88 3D 19 91 20 00       mov	%dil, 0x209119(%rip)	#  0x000000000060d2b0
0x404197: C3                         retq	
0x404198: 0F 1F 84 00 00 00 00 00    nopl	0x0(%rax,%rax,1)
0x4041a0: 53                         push	%rbx
0x4041a1: 48 83 EC 10                sub	$0x10, %rsp
0x4041a5: 48 8B 3D C4 90 20 00       mov	0x2090c4(%rip), %rdi	#  0x000000000060d270
0x4041ac: E8 4F 39 00 00             callq	0x0000000000407b00
0x4041b1: 85 C0                      test	%eax, %eax
0x4041b3: 74 16                      je	0x00000000004041cb
0x4041b5: 80 3D F4 90 20 00 00       cmpb	$0x0, 0x2090f4(%rip)	#  0x000000000060d2b0
0x4041bc: 74 23                      je	0x00000000004041e1
0x4041be: E8 5D D5 FF FF             callq	0x0000000000401720
0x4041c3: 83 38 20                   cmpl	$0x20, (%rax)
0x4041c6: 48 89 C3                   mov	%rax, %rbx
0x4041c9: 75 25                      jne	0x00000000004041f0
0x4041cb: 48 8B 3D 96 90 20 00       mov	0x209096(%rip), %rdi	#  0x000000000060d268
0x4041d2: E8 29 39 00 00             callq	0x0000000000407b00
0x4041d7: 85 C0                      test	%eax, %eax
0x4041d9: 75 54                      jne	0x000000000040422f
0x4041db: 48 83 C4 10                add	$0x10, %rsp
0x4041df: 5B                         pop	%rbx
0x4041e0: C3                         retq	
0x4041e1: 0F 1F 80 00 00 00 00       nopl	0x0(%rax)
0x4041e8: E8 33 D5 FF FF             callq	0x0000000000401720
0x4041ed: 48 89 C3                   mov	%rax, %rbx
0x4041f0: 31 FF                      xor	%edi, %edi
0x4041f2: BA 05 00 00 00             mov	$0x5, %edx
0x4041f7: BE 20 AF 40 00             mov	$0x40af20, %esi
0x4041fc: E8 2F D5 FF FF             callq	0x0000000000401730
0x404201: 48 8B 3D A0 90 20 00       mov	0x2090a0(%rip), %rdi	#  0x000000000060d2a8
0x404208: 48 85 FF                   test	%rdi, %rdi
0x40420b: 74 2D                      je	0x000000000040423a
0x40420d: 48 89 44 24 08             mov	%rax, 0x8(%rsp)
0x404212: E8 B9 0F 00 00             callq	0x00000000004051d0
0x404217: 4C 8B 44 24 08             mov	0x8(%rsp), %r8
0x40421c: 8B 33                      mov	(%rbx), %esi
0x40421e: 48 89 C1                   mov	%rax, %rcx
0x404221: BA 40 B5 40 00             mov	$0x40b540, %edx
0x404226: 31 FF                      xor	%edi, %edi
0x404228: 31 C0                      xor	%eax, %eax
0x40422a: E8 D1 D5 FF FF             callq	0x0000000000401800
0x40422f: 8B 3D 03 90 20 00          mov	0x209003(%rip), %edi	#  0x000000000060d238
0x404235: E8 66 D3 FF FF             callq	0x00000000004015a0
0x40423a: 8B 33                      mov	(%rbx), %esi
0x40423c: 48 89 C1                   mov	%rax, %rcx
0x40423f: BA 44 B5 40 00             mov	$0x40b544, %edx
0x404244: 31 FF                      xor	%edi, %edi
0x404246: 31 C0                      xor	%eax, %eax
0x404248: E8 B3 D5 FF FF             callq	0x0000000000401800
0x40424d: EB E0                      jmp	0x000000000040422f
0x40424f: 90                         nop	
0x404250: 31 F6                      xor	%esi, %esi
0x404252: 48 83 EC 08                sub	$0x8, %rsp
0x404256: E8 85 D5 FF FF             callq	0x00000000004017e0
0x40425b: 48 89 C6                   mov	%rax, %rsi
0x40425e: B8 01 00 00 00             mov	$0x1, %eax
0x404263: 48 85 F6                   test	%rsi, %rsi
0x404266: 74 19                      je	0x0000000000404281
0x404268: 0F B6 06                   movzbl	(%rsi), %eax
0x40426b: 3A 05 D6 72 00 00          cmp	0x72d6(%rip), %al	#  0x000000000040b547
0x404271: 75 1D                      jne	0x0000000000404290
0x404273: 0F B6 46 01                movzbl	0x1(%rsi), %eax
0x404277: 3A 05 CB 72 00 00          cmp	0x72cb(%rip), %al	#  0x000000000040b548
0x40427d: 75 11                      jne	0x0000000000404290
0x40427f: 31 C0                      xor	%eax, %eax
0x404281: 48 83 C4 08                add	$0x8, %rsp
0x404285: C3                         retq	
0x404286: 66 2E 0F 1F 84 00 00 00    nopw	%cs:0x0(%rax,%rax,1)
          00 00
0x404290: BF 49 B5 40 00             mov	$0x40b549, %edi
0x404295: B9 06 00 00 00             mov	$0x6, %ecx
0x40429a: F3 A6                      repz  cmpsb	%es:(%rdi), %ds:(%rsi)
0x40429c: 0F 95 C0                   setne	%al
0x40429f: 48 83 C4 08                add	$0x8, %rsp
0x4042a3: C3                         retq	
0x4042a4: 90                         nop	
0x4042a5: 90                         nop	
0x4042a6: 90                         nop	
0x4042a7: 90                         nop	
0x4042a8: 90                         nop	
0x4042a9: 90                         nop	
0x4042aa: 90                         nop	
0x4042ab: 90                         nop	
0x4042ac: 90                         nop	
0x4042ad: 90                         nop	
0x4042ae: 90                         nop	
0x4042af: 90                         nop	
0x4042b0: 48 89 F2                   mov	%rsi, %rdx
0x4042b3: BE 06 00 00 00             mov	$0x6, %esi
0x4042b8: E9 A3 11 00 00             jmpq	0x0000000000405460
0x4042bd: 0F 1F 00                   nopl	(%rax)
0x4042c0: 48 89 FE                   mov	%rdi, %rsi
0x4042c3: 31 FF                      xor	%edi, %edi
0x4042c5: E9 E6 FF FF FF             jmpq	0x00000000004042b0
0x4042ca: 90                         nop	
0x4042cb: 90                         nop	
0x4042cc: 90                         nop	
0x4042cd: 90                         nop	
0x4042ce: 90                         nop	
0x4042cf: 90                         nop	
0x4042d0: 48 85 FF                   test	%rdi, %rdi
0x4042d3: B8 C0 D2 60 00             mov	$0x60d2c0, %eax
0x4042d8: 48 0F 44 F8                cmove	%rax, %rdi
0x4042dc: 8B 07                      mov	(%rdi), %eax
0x4042de: C3                         retq	
0x4042df: 90                         nop	
0x4042e0: 48 85 FF                   test	%rdi, %rdi
0x4042e3: B8 C0 D2 60 00             mov	$0x60d2c0, %eax
0x4042e8: 48 0F 44 F8                cmove	%rax, %rdi
0x4042ec: 89 37                      mov	%esi, (%rdi)
0x4042ee: C3                         retq	
0x4042ef: 90                         nop	
0x4042f0: 48 85 FF                   test	%rdi, %rdi
0x4042f3: B8 C0 D2 60 00             mov	$0x60d2c0, %eax
0x4042f8: 89 F1                      mov	%esi, %ecx
0x4042fa: 48 0F 44 F8                cmove	%rax, %rdi
0x4042fe: 89 F0                      mov	%esi, %eax
0x404300: 83 E1 1F                   and	$0x1f, %ecx
0x404303: C0 E8 05                   shr	$0x5, %al
0x404306: 83 E2 01                   and	$0x1, %edx
0x404309: 44 0F B6 C0                movzbl	%al, %r8d
0x40430d: 46 8B 4C 87 08             mov	0x8(%rdi,%r8,4), %r9d
0x404312: 44 89 C8                   mov	%r9d, %eax
0x404315: D3 E8                      shr	%cl, %eax
0x404317: 83 E0 01                   and	$0x1, %eax
0x40431a: 31 C2                      xor	%eax, %edx
0x40431c: D3 E2                      shl	%cl, %edx
0x40431e: 44 31 CA                   xor	%r9d, %edx
0x404321: 42 89 54 87 08             mov	%edx, 0x8(%rdi,%r8,4)
0x404326: C3                         retq	
0x404327: 66 0F 1F 84 00 00 00 00    nopw	0x0(%rax,%rax,1)
          00
0x404330: 48 85 FF                   test	%rdi, %rdi
0x404333: B8 C0 D2 60 00             mov	$0x60d2c0, %eax
0x404338: 48 0F 44 F8                cmove	%rax, %rdi
0x40433c: 8B 47 04                   mov	0x4(%rdi), %eax
0x40433f: 89 77 04                   mov	%esi, 0x4(%rdi)
0x404342: C3                         retq	
0x404343: 66 66 66 66 2E 0F 1F 84    nopw	%cs:0x0(%rax,%rax,1)
          00 00 00 00 00
0x404350: 55                         push	%rbp
0x404351: 53                         push	%rbx
0x404352: 48 83 EC 08                sub	$0x8, %rsp
0x404356: 83 3D EB 8E 20 00 01       cmpl	$0x1, 0x208eeb(%rip)	#  0x000000000060d248
0x40435d: 48 8B 2D DC 8E 20 00       mov	0x208edc(%rip), %rbp	#  0x000000000060d240
0x404364: 76 25                      jbe	0x000000000040438b
0x404366: BB 01 00 00 00             mov	$0x1, %ebx
0x40436b: 0F 1F 44 00 00             nopl	0x0(%rax,%rax,1)
0x404370: 89 D8                      mov	%ebx, %eax
0x404372: 83 C3 01                   add	$0x1, %ebx
0x404375: 48 C1 E0 04                shl	$0x4, %rax
0x404379: 48 8B 7C 28 08             mov	0x8(%rax,%rbp,1), %rdi
0x40437e: E8 7D D2 FF FF             callq	0x0000000000401600
0x404383: 39 1D BF 8E 20 00          cmp	%ebx, 0x208ebf(%rip)	#  0x000000000060d248
0x404389: 77 E5                      ja	0x0000000000404370
0x40438b: 48 8B 7D 08                mov	0x8(%rbp), %rdi
0x40438f: 48 81 FF 00 D3 60 00       cmp	$0x60d300, %rdi
0x404396: 74 1B                      je	0x00000000004043b3
0x404398: E8 63 D2 FF FF             callq	0x0000000000401600
0x40439d: 48 C7 05 A8 8E 20 00 00    movq	$0x100, 0x208ea8(%rip)	#  0x000000000060d250
          01 00 00
0x4043a8: 48 C7 05 A5 8E 20 00 00    movq	$0x60d300, 0x208ea5(%rip)	#  0x000000000060d258
          D3 60 00
0x4043b3: 48 81 FD 50 D2 60 00       cmp	$0x60d250, %rbp
0x4043ba: 74 13                      je	0x00000000004043cf
0x4043bc: 48 89 EF                   mov	%rbp, %rdi
0x4043bf: E8 3C D2 FF FF             callq	0x0000000000401600
0x4043c4: 48 C7 05 71 8E 20 00 50    movq	$0x60d250, 0x208e71(%rip)	#  0x000000000060d240
          D2 60 00
0x4043cf: C7 05 6F 8E 20 00 01 00    movl	$0x1, 0x208e6f(%rip)	#  0x000000000060d248
          00 00
0x4043d9: 48 83 C4 08                add	$0x8, %rsp
0x4043dd: 5B                         pop	%rbx
0x4043de: 5D                         pop	%rbp
0x4043df: C3                         retq	
0x4043e0: 48 89 5C 24 E8             mov	%rbx, -0x18(%rsp)
0x4043e5: 48 89 6C 24 F0             mov	%rbp, -0x10(%rsp)
0x4043ea: 4C 89 64 24 F8             mov	%r12, -0x8(%rsp)
0x4043ef: 48 83 EC 18                sub	$0x18, %rsp
0x4043f3: 49 89 FC                   mov	%rdi, %r12
0x4043f6: E8 25 D3 FF FF             callq	0x0000000000401720
0x4043fb: 4D 85 E4                   test	%r12, %r12
0x4043fe: 8B 28                      mov	(%rax), %ebp
0x404400: 48 89 C3                   mov	%rax, %rbx
0x404403: B8 C0 D2 60 00             mov	$0x60d2c0, %eax
0x404408: BE 28 00 00 00             mov	$0x28, %esi
0x40440d: 4C 0F 44 E0                cmove	%rax, %r12
0x404411: 4C 89 E7                   mov	%r12, %rdi
0x404414: E8 87 13 00 00             callq	0x00000000004057a0
0x404419: 89 2B                      mov	%ebp, (%rbx)
0x40441b: 48 8B 1C 24                mov	(%rsp), %rbx
0x40441f: 48 8B 6C 24 08             mov	0x8(%rsp), %rbp
0x404424: 4C 8B 64 24 10             mov	0x10(%rsp), %r12
0x404429: 48 83 C4 18                add	$0x18, %rsp
0x40442d: C3                         retq	
0x40442e: 66 90                      xchg	%ax, %ax
0x404430: 41 57                      push	%r15
0x404432: 49 89 F7                   mov	%rsi, %r15
0x404435: 41 56                      push	%r14
0x404437: 41 55                      push	%r13
0x404439: 41 54                      push	%r12
0x40443b: 55                         push	%rbp
0x40443c: 53                         push	%rbx
0x40443d: 48 81 EC B8 00 00 00       sub	$0xb8, %rsp
0x404444: 44 89 44 24 44             mov	%r8d, 0x44(%rsp)
0x404449: 48 89 7C 24 38             mov	%rdi, 0x38(%rsp)
0x40444e: 44 89 4C 24 64             mov	%r9d, 0x64(%rsp)
0x404453: 48 89 4C 24 20             mov	%rcx, 0x20(%rsp)
0x404458: 48 89 54 24 18             mov	%rdx, 0x18(%rsp)
0x40445d: E8 BE D1 FF FF             callq	0x0000000000401620
0x404462: 44 8B 44 24 64             mov	0x64(%rsp), %r8d
0x404467: 48 89 44 24 70             mov	%rax, 0x70(%rsp)
0x40446c: 4C 8B 54 24 20             mov	0x20(%rsp), %r10
0x404471: 4C 8B 5C 24 18             mov	0x18(%rsp), %r11
0x404476: 41 D1 E8                   shr	%r8d
0x404479: 41 83 E0 01                and	$0x1, %r8d
0x40447d: 83 7C 24 44 07             cmpl	$0x7, 0x44(%rsp)
0x404482: 76 0C                      jbe	0x0000000000404490
0x404484: E8 27 D0 FF FF             callq	0x00000000004014b0
0x404489: 0F 1F 80 00 00 00 00       nopl	0x0(%rax)
0x404490: 8B 44 24 44                mov	0x44(%rsp), %eax
0x404494: FF 24 C5 A0 B5 40 00       jmpq	*0x40b5a0(,%rax,8)
0x40449b: 45 31 C0                   xor	%r8d, %r8d
0x40449e: 41 BD 01 00 00 00          mov	$0x1, %r13d
0x4044a4: 45 31 C9                   xor	%r9d, %r9d
0x4044a7: 48 C7 44 24 68 00 00 00    movq	$0x0, 0x68(%rsp)
          00
0x4044b0: 31 DB                      xor	%ebx, %ebx
0x4044b2: 66 0F 1F 44 00 00          nopw	0x0(%rax,%rax,1)
0x4044b8: 31 ED                      xor	%ebp, %ebp
0x4044ba: 4D 89 DE                   mov	%r11, %r14
0x4044bd: 49 83 FA FF                cmp	$0xffffffffffffffff, %r10
0x4044c1: 0F 84 B5 01 00 00          je	0x000000000040467c
0x4044c7: 66 0F 1F 84 00 00 00 00    nopw	0x0(%rax,%rax,1)
          00
0x4044d0: 4C 39 D5                   cmp	%r10, %rbp
0x4044d3: 0F 95 C0                   setne	%al
0x4044d6: 84 C0                      test	%al, %al
0x4044d8: 0F 84 AE 01 00 00          je	0x000000000040468c
0x4044de: 45 84 ED                   test	%r13b, %r13b
0x4044e1: 0F 84 D9 03 00 00          je	0x00000000004048c0
0x4044e7: 4D 85 C9                   test	%r9, %r9
0x4044ea: 0F 84 D0 03 00 00          je	0x00000000004048c0
0x4044f0: 4A 8D 44 0D 00             lea	0x0(%rbp,%r9,1), %rax
0x4044f5: 49 39 C2                   cmp	%rax, %r10
0x4044f8: 0F 82 C2 03 00 00          jb	0x00000000004048c0
0x4044fe: 4D 8D 1C 2E                lea	(%r14,%rbp,1), %r11
0x404502: 48 8B 7C 24 68             mov	0x68(%rsp), %rdi
0x404507: 4D 39 C9                   cmp	%r9, %r9
0x40450a: 4C 89 C9                   mov	%r9, %rcx
0x40450d: 4C 89 DE                   mov	%r11, %rsi
0x404510: F3 A6                      repz  cmpsb	%es:(%rdi), %ds:(%rsi)
0x404512: 75 1B                      jne	0x000000000040452f
0x404514: 45 84 C0                   test	%r8b, %r8b
0x404517: 0F 85 70 04 00 00          jne	0x000000000040498d
0x40451d: 4C 39 FB                   cmp	%r15, %rbx
0x404520: 73 09                      jae	0x000000000040452b
0x404522: 48 8B 4C 24 38             mov	0x38(%rsp), %rcx
0x404527: C6 04 19 5C                movb	$0x5c, (%rcx,%rbx,1)
0x40452b: 48 83 C3 01                add	$0x1, %rbx
0x40452f: 45 0F B6 23                movzbl	(%r11), %r12d
0x404533: 41 80 FC 7E                cmp	$0x7e, %r12b
0x404537: 0F 86 95 03 00 00          jbe	0x00000000004048d2
0x40453d: 0F 1F 00                   nopl	(%rax)
0x404540: 48 83 7C 24 70 01          cmpq	$0x1, 0x70(%rsp)
0x404546: 0F 85 DC 06 00 00          jne	0x0000000000404c28
0x40454c: 44 88 44 24 28             mov	%r8b, 0x28(%rsp)
0x404551: 4C 89 4C 24 30             mov	%r9, 0x30(%rsp)
0x404556: 4C 89 54 24 20             mov	%r10, 0x20(%rsp)
0x40455b: 4C 89 5C 24 18             mov	%r11, 0x18(%rsp)
0x404560: E8 DB D0 FF FF             callq	0x0000000000401640
0x404565: 48 8B 00                   mov	(%rax), %rax
0x404568: 41 0F B6 D4                movzbl	%r12b, %edx
0x40456c: 44 0F B6 44 24 28          movzbl	0x28(%rsp), %r8d
0x404572: 4C 8B 4C 24 30             mov	0x30(%rsp), %r9
0x404577: 4C 8B 54 24 20             mov	0x20(%rsp), %r10
0x40457c: 4C 8B 5C 24 18             mov	0x18(%rsp), %r11
0x404581: 48 C7 44 24 48 01 00 00    movq	$0x1, 0x48(%rsp)
          00
0x40458a: 0F B7 04 50                movzwl	(%rax,%rdx,2), %eax
0x40458e: C1 E8 0E                   shr	$0xe, %eax
0x404591: 83 E0 01                   and	$0x1, %eax
0x404594: 88 44 24 50                mov	%al, 0x50(%rsp)
0x404598: 45 84 ED                   test	%r13b, %r13b
0x40459b: 0F 84 47 04 00 00          je	0x00000000004049e8
0x4045a1: 80 7C 24 50 00             cmpb	$0x0, 0x50(%rsp)
0x4045a6: 0F 85 73 03 00 00          jne	0x000000000040491f
0x4045ac: 0F 1F 40 00                nopl	0x0(%rax)
0x4045b0: 48 8B 44 24 48             mov	0x48(%rsp), %rax
0x4045b5: 0F B6 74 24 50             movzbl	0x50(%rsp), %esi
0x4045ba: 48 8B 4C 24 38             mov	0x38(%rsp), %rcx
0x4045bf: 48 01 E8                   add	%rbp, %rax
0x4045c2: EB 1A                      jmp	0x00000000004045de
0x4045c4: 0F 1F 40 00                nopl	0x0(%rax)
0x4045c8: 4C 39 FB                   cmp	%r15, %rbx
0x4045cb: 73 04                      jae	0x00000000004045d1
0x4045cd: 44 88 24 19                mov	%r12b, (%rcx,%rbx,1)
0x4045d1: 45 0F B6 63 01             movzbl	0x1(%r11), %r12d
0x4045d6: 48 83 C3 01                add	$0x1, %rbx
0x4045da: 49 83 C3 01                add	$0x1, %r11
0x4045de: 45 84 ED                   test	%r13b, %r13b
0x4045e1: 74 67                      je	0x000000000040464a
0x4045e3: 40 84 F6                   test	%sil, %sil
0x4045e6: 75 62                      jne	0x000000000040464a
0x4045e8: 45 84 C0                   test	%r8b, %r8b
0x4045eb: 0F 85 9C 03 00 00          jne	0x000000000040498d
0x4045f1: 4C 39 FB                   cmp	%r15, %rbx
0x4045f4: 73 04                      jae	0x00000000004045fa
0x4045f6: C6 04 19 5C                movb	$0x5c, (%rcx,%rbx,1)
0x4045fa: 48 8D 53 01                lea	0x1(%rbx), %rdx
0x4045fe: 49 39 D7                   cmp	%rdx, %r15
0x404601: 48 89 54 24 48             mov	%rdx, 0x48(%rsp)
0x404606: 76 10                      jbe	0x0000000000404618
0x404608: 44 89 E2                   mov	%r12d, %edx
0x40460b: C0 EA 06                   shr	$0x6, %dl
0x40460e: 89 D7                      mov	%edx, %edi
0x404610: 83 C7 30                   add	$0x30, %edi
0x404613: 40 88 7C 19 01             mov	%dil, 0x1(%rcx,%rbx,1)
0x404618: 48 8B 5C 24 48             mov	0x48(%rsp), %rbx
0x40461d: 48 83 C3 01                add	$0x1, %rbx
0x404621: 49 39 DF                   cmp	%rbx, %r15
0x404624: 76 18                      jbe	0x000000000040463e
0x404626: 44 89 E2                   mov	%r12d, %edx
0x404629: C0 EA 03                   shr	$0x3, %dl
0x40462c: 89 D7                      mov	%edx, %edi
0x40462e: 48 8B 54 24 48             mov	0x48(%rsp), %rdx
0x404633: 83 E7 07                   and	$0x7, %edi
0x404636: 83 C7 30                   add	$0x30, %edi
0x404639: 40 88 7C 11 01             mov	%dil, 0x1(%rcx,%rdx,1)
0x40463e: 41 83 E4 07                and	$0x7, %r12d
0x404642: 48 83 C3 01                add	$0x1, %rbx
0x404646: 41 83 C4 30                add	$0x30, %r12d
0x40464a: 48 83 C5 01                add	$0x1, %rbp
0x40464e: 48 39 E8                   cmp	%rbp, %rax
0x404651: 0F 87 71 FF FF FF          ja	0x00000000004045c8
0x404657: 66 0F 1F 84 00 00 00 00    nopw	0x0(%rax,%rax,1)
          00
0x404660: 4C 39 FB                   cmp	%r15, %rbx
0x404663: 73 09                      jae	0x000000000040466e
0x404665: 48 8B 44 24 38             mov	0x38(%rsp), %rax
0x40466a: 44 88 24 18                mov	%r12b, (%rax,%rbx,1)
0x40466e: 48 83 C3 01                add	$0x1, %rbx
0x404672: 49 83 FA FF                cmp	$0xffffffffffffffff, %r10
0x404676: 0F 85 54 FE FF FF          jne	0x00000000004044d0
0x40467c: 41 80 3C 2E 00             cmpb	$0x0, (%r14,%rbp,1)
0x404681: 0F 95 C0                   setne	%al
0x404684: 84 C0                      test	%al, %al
0x404686: 0F 85 52 FE FF FF          jne	0x00000000004044de
0x40468c: 48 85 DB                   test	%rbx, %rbx
0x40468f: 4D 89 F3                   mov	%r14, %r11
0x404692: 75 0B                      jne	0x000000000040469f
0x404694: 83 7C 24 44 02             cmpl	$0x2, 0x44(%rsp)
0x404699: 0F 84 5F 07 00 00          je	0x0000000000404dfe
0x40469f: 48 83 7C 24 68 00          cmpq	$0x0, 0x68(%rsp)
0x4046a5: 74 3B                      je	0x00000000004046e2
0x4046a7: 45 84 C0                   test	%r8b, %r8b
0x4046aa: 75 36                      jne	0x00000000004046e2
0x4046ac: 48 8B 54 24 68             mov	0x68(%rsp), %rdx
0x4046b1: 0F B6 02                   movzbl	(%rdx), %eax
0x4046b4: 84 C0                      test	%al, %al
0x4046b6: 74 2A                      je	0x00000000004046e2
0x4046b8: 48 8B 54 24 38             mov	0x38(%rsp), %rdx
0x4046bd: 48 8B 4C 24 68             mov	0x68(%rsp), %rcx
0x4046c2: 48 01 DA                   add	%rbx, %rdx
0x4046c5: 0F 1F 00                   nopl	(%rax)
0x4046c8: 49 39 DF                   cmp	%rbx, %r15
0x4046cb: 76 02                      jbe	0x00000000004046cf
0x4046cd: 88 02                      mov	%al, (%rdx)
0x4046cf: 48 83 C1 01                add	$0x1, %rcx
0x4046d3: 48 83 C3 01                add	$0x1, %rbx
0x4046d7: 48 83 C2 01                add	$0x1, %rdx
0x4046db: 0F B6 01                   movzbl	(%rcx), %eax
0x4046de: 84 C0                      test	%al, %al
0x4046e0: 75 E6                      jne	0x00000000004046c8
0x4046e2: 4C 39 FB                   cmp	%r15, %rbx
0x4046e5: 0F 83 D1 02 00 00          jae	0x00000000004049bc
0x4046eb: 48 8B 4C 24 38             mov	0x38(%rsp), %rcx
0x4046f0: C6 04 19 00                movb	$0x0, (%rcx,%rbx,1)
0x4046f4: E9 C3 02 00 00             jmpq	0x00000000004049bc
0x4046f9: 31 FF                      xor	%edi, %edi
0x4046fb: BA 05 00 00 00             mov	$0x5, %edx
0x404700: BE 51 B5 40 00             mov	$0x40b551, %esi
0x404705: 44 88 44 24 28             mov	%r8b, 0x28(%rsp)
0x40470a: 4C 89 54 24 20             mov	%r10, 0x20(%rsp)
0x40470f: 4C 89 5C 24 18             mov	%r11, 0x18(%rsp)
0x404714: E8 17 D0 FF FF             callq	0x0000000000401730
0x404719: 83 7C 24 44 07             cmpl	$0x7, 0x44(%rsp)
0x40471e: 48 89 C5                   mov	%rax, %rbp
0x404721: 44 0F B6 44 24 28          movzbl	0x28(%rsp), %r8d
0x404727: 4C 8B 54 24 20             mov	0x20(%rsp), %r10
0x40472c: 4C 8B 5C 24 18             mov	0x18(%rsp), %r11
0x404731: 0F 94 C3                   sete	%bl
0x404734: 48 3D 51 B5 40 00          cmp	$0x40b551, %rax
0x40473a: 0F 84 DB 07 00 00          je	0x0000000000404f1b
0x404740: 31 FF                      xor	%edi, %edi
0x404742: BA 05 00 00 00             mov	$0x5, %edx
0x404747: BE 4E B1 40 00             mov	$0x40b14e, %esi
0x40474c: 44 88 44 24 28             mov	%r8b, 0x28(%rsp)
0x404751: 4C 89 54 24 20             mov	%r10, 0x20(%rsp)
0x404756: 4C 89 5C 24 18             mov	%r11, 0x18(%rsp)
0x40475b: E8 D0 CF FF FF             callq	0x0000000000401730
0x404760: 48 3D 4E B1 40 00          cmp	$0x40b14e, %rax
0x404766: 49 89 C4                   mov	%rax, %r12
0x404769: 44 0F B6 44 24 28          movzbl	0x28(%rsp), %r8d
0x40476f: 4C 8B 54 24 20             mov	0x20(%rsp), %r10
0x404774: 4C 8B 5C 24 18             mov	0x18(%rsp), %r11
0x404779: 0F 84 8C 07 00 00          je	0x0000000000404f0b
0x40477f: 45 84 C0                   test	%r8b, %r8b
0x404782: 0F 85 BC 06 00 00          jne	0x0000000000404e44
0x404788: 0F B6 45 00                movzbl	0x0(%rbp), %eax
0x40478c: 84 C0                      test	%al, %al
0x40478e: 0F 84 B0 06 00 00          je	0x0000000000404e44
0x404794: 48 8B 54 24 38             mov	0x38(%rsp), %rdx
0x404799: 31 DB                      xor	%ebx, %ebx
0x40479b: 0F 1F 44 00 00             nopl	0x0(%rax,%rax,1)
0x4047a0: 49 39 DF                   cmp	%rbx, %r15
0x4047a3: 76 03                      jbe	0x00000000004047a8
0x4047a5: 88 04 1A                   mov	%al, (%rdx,%rbx,1)
0x4047a8: 48 83 C3 01                add	$0x1, %rbx
0x4047ac: 0F B6 44 1D 00             movzbl	0x0(%rbp,%rbx,1), %eax
0x4047b1: 84 C0                      test	%al, %al
0x4047b3: 75 EB                      jne	0x00000000004047a0
0x4047b5: 4C 89 E7                   mov	%r12, %rdi
0x4047b8: 44 88 44 24 28             mov	%r8b, 0x28(%rsp)
0x4047bd: 4C 89 54 24 20             mov	%r10, 0x20(%rsp)
0x4047c2: 4C 89 5C 24 18             mov	%r11, 0x18(%rsp)
0x4047c7: 41 BD 01 00 00 00          mov	$0x1, %r13d
0x4047cd: E8 3E CE FF FF             callq	0x0000000000401610
0x4047d2: 4C 89 64 24 68             mov	%r12, 0x68(%rsp)
0x4047d7: 49 89 C1                   mov	%rax, %r9
0x4047da: 44 0F B6 44 24 28          movzbl	0x28(%rsp), %r8d
0x4047e0: 4C 8B 54 24 20             mov	0x20(%rsp), %r10
0x4047e5: 4C 8B 5C 24 18             mov	0x18(%rsp), %r11
0x4047ea: E9 C9 FC FF FF             jmpq	0x00000000004044b8
0x4047ef: 45 31 C0                   xor	%r8d, %r8d
0x4047f2: 45 31 ED                   xor	%r13d, %r13d
0x4047f5: 45 31 C9                   xor	%r9d, %r9d
0x4047f8: 48 C7 44 24 68 00 00 00    movq	$0x0, 0x68(%rsp)
          00
0x404801: 31 DB                      xor	%ebx, %ebx
0x404803: E9 B0 FC FF FF             jmpq	0x00000000004044b8
0x404808: 41 B8 01 00 00 00          mov	$0x1, %r8d
0x40480e: 45 31 ED                   xor	%r13d, %r13d
0x404811: 41 B9 01 00 00 00          mov	$0x1, %r9d
0x404817: 48 C7 44 24 68 4E B1 40    movq	$0x40b14e, 0x68(%rsp)
          00
0x404820: 31 DB                      xor	%ebx, %ebx
0x404822: C7 44 24 44 02 00 00 00    movl	$0x2, 0x44(%rsp)
0x40482a: E9 89 FC FF FF             jmpq	0x00000000004044b8
0x40482f: 45 84 C0                   test	%r8b, %r8b
0x404832: 0F 85 0F 07 00 00          jne	0x0000000000404f47
0x404838: 4D 85 FF                   test	%r15, %r15
0x40483b: 74 08                      je	0x0000000000404845
0x40483d: 48 8B 54 24 38             mov	0x38(%rsp), %rdx
0x404842: C6 02 27                   movb	$0x27, (%rdx)
0x404845: 45 31 ED                   xor	%r13d, %r13d
0x404848: 41 B9 01 00 00 00          mov	$0x1, %r9d
0x40484e: 48 C7 44 24 68 4E B1 40    movq	$0x40b14e, 0x68(%rsp)
          00
0x404857: BB 01 00 00 00             mov	$0x1, %ebx
0x40485c: E9 57 FC FF FF             jmpq	0x00000000004044b8
0x404861: 45 84 C0                   test	%r8b, %r8b
0x404864: 0F 85 C1 06 00 00          jne	0x0000000000404f2b
0x40486a: 4D 85 FF                   test	%r15, %r15
0x40486d: 74 08                      je	0x0000000000404877
0x40486f: 48 8B 44 24 38             mov	0x38(%rsp), %rax
0x404874: C6 00 22                   movb	$0x22, (%rax)
0x404877: 41 BD 01 00 00 00          mov	$0x1, %r13d
0x40487d: 41 B9 01 00 00 00          mov	$0x1, %r9d
0x404883: 48 C7 44 24 68 4F B5 40    movq	$0x40b54f, 0x68(%rsp)
          00
0x40488c: BB 01 00 00 00             mov	$0x1, %ebx
0x404891: E9 22 FC FF FF             jmpq	0x00000000004044b8
0x404896: 41 B8 01 00 00 00          mov	$0x1, %r8d
0x40489c: 41 BD 01 00 00 00          mov	$0x1, %r13d
0x4048a2: 41 B9 01 00 00 00          mov	$0x1, %r9d
0x4048a8: 48 C7 44 24 68 4F B5 40    movq	$0x40b54f, 0x68(%rsp)
          00
0x4048b1: 31 DB                      xor	%ebx, %ebx
0x4048b3: C7 44 24 44 03 00 00 00    movl	$0x3, 0x44(%rsp)
0x4048bb: E9 F8 FB FF FF             jmpq	0x00000000004044b8
0x4048c0: 4D 8D 1C 2E                lea	(%r14,%rbp,1), %r11
0x4048c4: 45 0F B6 23                movzbl	(%r11), %r12d
0x4048c8: 41 80 FC 7E                cmp	$0x7e, %r12b
0x4048cc: 0F 87 6E FC FF FF          ja	0x0000000000404540
0x4048d2: 41 0F B6 C4                movzbl	%r12b, %eax
0x4048d6: FF 24 C5 E0 B5 40 00       jmpq	*0x40b5e0(,%rax,8)
0x4048dd: 0F 1F 00                   nopl	(%rax)
0x4048e0: 49 83 FA FF                cmp	$0xffffffffffffffff, %r10
0x4048e4: 0F 84 9E 04 00 00          je	0x0000000000404d88
0x4048ea: 49 83 FA 01                cmp	$0x1, %r10
0x4048ee: 0F 95 C0                   setne	%al
0x4048f1: 84 C0                      test	%al, %al
0x4048f3: 75 1B                      jne	0x0000000000404910
0x4048f5: 48 85 ED                   test	%rbp, %rbp
0x4048f8: 75 16                      jne	0x0000000000404910
0x4048fa: 83 7C 24 44 02             cmpl	$0x2, 0x44(%rsp)
0x4048ff: 75 0F                      jne	0x0000000000404910
0x404901: 45 84 C0                   test	%r8b, %r8b
0x404904: 0F 85 83 00 00 00          jne	0x000000000040498d
0x40490a: 66 0F 1F 44 00 00          nopw	0x0(%rax,%rax,1)
0x404910: 48 89 E8                   mov	%rbp, %rax
0x404913: 45 84 ED                   test	%r13b, %r13b
0x404916: 0F 84 CF 00 00 00          je	0x00000000004049eb
0x40491c: 48 89 C5                   mov	%rax, %rbp
0x40491f: 48 83 BC 24 F0 00 00 00    cmpq	$0x0, 0xf0(%rsp)
          00
0x404928: 74 3A                      je	0x0000000000404964
0x40492a: 44 89 E1                   mov	%r12d, %ecx
0x40492d: B8 01 00 00 00             mov	$0x1, %eax
0x404932: 44 89 E2                   mov	%r12d, %edx
0x404935: 83 E1 1F                   and	$0x1f, %ecx
0x404938: C0 EA 05                   shr	$0x5, %dl
0x40493b: D3 E0                      shl	%cl, %eax
0x40493d: 48 8B 8C 24 F0 00 00 00    mov	0xf0(%rsp), %rcx
0x404945: 0F B6 D2                   movzbl	%dl, %edx
0x404948: 85 04 91                   test	%eax, (%rcx,%rdx,4)
0x40494b: 74 17                      je	0x0000000000404964
0x40494d: 45 84 C0                   test	%r8b, %r8b
0x404950: 75 3B                      jne	0x000000000040498d
0x404952: 4C 39 FB                   cmp	%r15, %rbx
0x404955: 73 09                      jae	0x0000000000404960
0x404957: 48 8B 74 24 38             mov	0x38(%rsp), %rsi
0x40495c: C6 04 1E 5C                movb	$0x5c, (%rsi,%rbx,1)
0x404960: 48 83 C3 01                add	$0x1, %rbx
0x404964: 48 83 C5 01                add	$0x1, %rbp
0x404968: E9 F3 FC FF FF             jmpq	0x0000000000404660
0x40496d: 0F 1F 00                   nopl	(%rax)
0x404970: B8 72 00 00 00             mov	$0x72, %eax
0x404975: 83 7C 24 44 02             cmpl	$0x2, 0x44(%rsp)
0x40497a: 0F 84 A0 00 00 00          je	0x0000000000404a20
0x404980: 45 84 ED                   test	%r13b, %r13b
0x404983: 74 63                      je	0x00000000004049e8
0x404985: 45 84 C0                   test	%r8b, %r8b
0x404988: 41 89 C4                   mov	%eax, %r12d
0x40498b: 74 C5                      je	0x0000000000404952
0x40498d: 4D 89 F3                   mov	%r14, %r11
0x404990: 44 8B 4C 24 64             mov	0x64(%rsp), %r9d
0x404995: 44 8B 44 24 44             mov	0x44(%rsp), %r8d
0x40499a: 4C 89 D1                   mov	%r10, %rcx
0x40499d: 48 8B 7C 24 38             mov	0x38(%rsp), %rdi
0x4049a2: 4C 89 DA                   mov	%r11, %rdx
0x4049a5: 4C 89 FE                   mov	%r15, %rsi
0x4049a8: 48 C7 04 24 00 00 00 00    movq	$0x0, (%rsp)
0x4049b0: 41 83 E1 FD                and	$0xfffffffffffffffd, %r9d
0x4049b4: E8 77 FA FF FF             callq	0x0000000000404430
0x4049b9: 48 89 C3                   mov	%rax, %rbx
0x4049bc: 48 81 C4 B8 00 00 00       add	$0xb8, %rsp
0x4049c3: 48 89 D8                   mov	%rbx, %rax
0x4049c6: 5B                         pop	%rbx
0x4049c7: 5D                         pop	%rbp
0x4049c8: 41 5C                      pop	%r12
0x4049ca: 41 5D                      pop	%r13
0x4049cc: 41 5E                      pop	%r14
0x4049ce: 41 5F                      pop	%r15
0x4049d0: C3                         retq	
0x4049d1: 0F 1F 80 00 00 00 00       nopl	0x0(%rax)
0x4049d8: 45 84 ED                   test	%r13b, %r13b
0x4049db: B8 66 00 00 00             mov	$0x66, %eax
0x4049e0: 75 A3                      jne	0x0000000000404985
0x4049e2: 66 0F 1F 44 00 00          nopw	0x0(%rax,%rax,1)
0x4049e8: 48 89 E8                   mov	%rbp, %rax
0x4049eb: 45 84 C0                   test	%r8b, %r8b
0x4049ee: 48 8D 68 01                lea	0x1(%rax), %rbp
0x4049f2: 0F 84 68 FC FF FF          je	0x0000000000404660
0x4049f8: E9 1F FF FF FF             jmpq	0x000000000040491c
0x4049fd: 0F 1F 00                   nopl	(%rax)
0x404a00: B8 76 00 00 00             mov	$0x76, %eax
0x404a05: E9 76 FF FF FF             jmpq	0x0000000000404980
0x404a0a: 66 0F 1F 44 00 00          nopw	0x0(%rax,%rax,1)
0x404a10: 83 7C 24 44 02             cmpl	$0x2, 0x44(%rsp)
0x404a15: B8 6E 00 00 00             mov	$0x6e, %eax
0x404a1a: 0F 85 60 FF FF FF          jne	0x0000000000404980
0x404a20: 45 84 C0                   test	%r8b, %r8b
0x404a23: 0F 84 57 FF FF FF          je	0x0000000000404980
0x404a29: E9 5F FF FF FF             jmpq	0x000000000040498d
0x404a2e: 66 90                      xchg	%ax, %ax
0x404a30: B8 74 00 00 00             mov	$0x74, %eax
0x404a35: 0F 1F 00                   nopl	(%rax)
0x404a38: E9 38 FF FF FF             jmpq	0x0000000000404975
0x404a3d: 0F 1F 00                   nopl	(%rax)
0x404a40: B8 62 00 00 00             mov	$0x62, %eax
0x404a45: 0F 1F 00                   nopl	(%rax)
0x404a48: E9 33 FF FF FF             jmpq	0x0000000000404980
0x404a4d: 0F 1F 00                   nopl	(%rax)
0x404a50: B8 61 00 00 00             mov	$0x61, %eax
0x404a55: E9 26 FF FF FF             jmpq	0x0000000000404980
0x404a5a: 66 0F 1F 44 00 00          nopw	0x0(%rax,%rax,1)
0x404a60: 45 84 ED                   test	%r13b, %r13b
0x404a63: 0F 84 F7 02 00 00          je	0x0000000000404d60
0x404a69: 45 84 C0                   test	%r8b, %r8b
0x404a6c: 0F 1F 40 00                nopl	0x0(%rax)
0x404a70: 0F 85 17 FF FF FF          jne	0x000000000040498d
0x404a76: 4C 39 FB                   cmp	%r15, %rbx
0x404a79: 73 09                      jae	0x0000000000404a84
0x404a7b: 48 8B 74 24 38             mov	0x38(%rsp), %rsi
0x404a80: C6 04 1E 5C                movb	$0x5c, (%rsi,%rbx,1)
0x404a84: 48 8D 45 01                lea	0x1(%rbp), %rax
0x404a88: 48 83 C3 01                add	$0x1, %rbx
0x404a8c: 49 39 C2                   cmp	%rax, %r10
0x404a8f: 0F 86 E3 02 00 00          jbe	0x0000000000404d78
0x404a95: 41 0F B6 44 2E 01          movzbl	0x1(%r14,%rbp,1), %eax
0x404a9b: 3C 2F                      cmp	$0x2f, %al
0x404a9d: 0F 8E D5 02 00 00          jle	0x0000000000404d78
0x404aa3: 3C 39                      cmp	$0x39, %al
0x404aa5: 0F 8F CD 02 00 00          jg	0x0000000000404d78
0x404aab: 49 39 DF                   cmp	%rbx, %r15
0x404aae: 66 90                      xchg	%ax, %ax
0x404ab0: 76 09                      jbe	0x0000000000404abb
0x404ab2: 48 8B 44 24 38             mov	0x38(%rsp), %rax
0x404ab7: C6 04 18 30                movb	$0x30, (%rax,%rbx,1)
0x404abb: 48 8D 43 01                lea	0x1(%rbx), %rax
0x404abf: 49 39 C7                   cmp	%rax, %r15
0x404ac2: 76 0A                      jbe	0x0000000000404ace
0x404ac4: 48 8B 54 24 38             mov	0x38(%rsp), %rdx
0x404ac9: C6 44 1A 01 30             movb	$0x30, 0x1(%rdx,%rbx,1)
0x404ace: 48 8D 58 01                lea	0x1(%rax), %rbx
0x404ad2: 41 BC 30 00 00 00          mov	$0x30, %r12d
0x404ad8: E9 42 FE FF FF             jmpq	0x000000000040491f
0x404add: 0F 1F 00                   nopl	(%rax)
0x404ae0: 45 84 ED                   test	%r13b, %r13b
0x404ae3: 74 1B                      je	0x0000000000404b00
0x404ae5: 45 84 C0                   test	%r8b, %r8b
0x404ae8: 74 16                      je	0x0000000000404b00
0x404aea: 4D 85 C9                   test	%r9, %r9
0x404aed: 0F 1F 00                   nopl	(%rax)
0x404af0: 0F 85 6E FE FF FF          jne	0x0000000000404964
0x404af6: 66 2E 0F 1F 84 00 00 00    nopw	%cs:0x0(%rax,%rax,1)
          00 00
0x404b00: B8 5C 00 00 00             mov	$0x5c, %eax
0x404b05: E9 6B FE FF FF             jmpq	0x0000000000404975
0x404b0a: 66 0F 1F 44 00 00          nopw	0x0(%rax,%rax,1)
0x404b10: 83 7C 24 44 02             cmpl	$0x2, 0x44(%rsp)
0x404b15: 0F 84 E6 FD FF FF          je	0x0000000000404901
0x404b1b: 83 7C 24 44 03             cmpl	$0x3, 0x44(%rsp)
0x404b20: 0F 85 EA FD FF FF          jne	0x0000000000404910
0x404b26: F6 44 24 64 04             testb	$0x4, 0x64(%rsp)
0x404b2b: 0F 84 DF FD FF FF          je	0x0000000000404910
0x404b31: 48 8D 45 02                lea	0x2(%rbp), %rax
0x404b35: 49 39 C2                   cmp	%rax, %r10
0x404b38: 0F 86 D2 FD FF FF          jbe	0x0000000000404910
0x404b3e: 41 80 7C 2E 01 3F          cmpb	$0x3f, 0x1(%r14,%rbp,1)
0x404b44: 0F 85 C6 FD FF FF          jne	0x0000000000404910
0x404b4a: 41 0F B6 0C 06             movzbl	(%r14,%rax,1), %ecx
0x404b4f: 80 F9 3E                   cmp	$0x3e, %cl
0x404b52: 0F 87 B8 FD FF FF          ja	0x0000000000404910
0x404b58: BE 01 00 00 00             mov	$0x1, %esi
0x404b5d: 48 BA 00 00 00 00 82 A3    mov	$0x7000a38200000000, %rdx
          00 70
0x404b67: 48 D3 E6                   shl	%cl, %rsi
0x404b6a: 48 85 D6                   test	%rdx, %rsi
0x404b6d: 0F 84 9D FD FF FF          je	0x0000000000404910
0x404b73: 45 84 C0                   test	%r8b, %r8b
0x404b76: 0F 85 11 FE FF FF          jne	0x000000000040498d
0x404b7c: 4C 39 FB                   cmp	%r15, %rbx
0x404b7f: 73 09                      jae	0x0000000000404b8a
0x404b81: 48 8B 74 24 38             mov	0x38(%rsp), %rsi
0x404b86: C6 04 1E 3F                movb	$0x3f, (%rsi,%rbx,1)
0x404b8a: 48 8D 73 01                lea	0x1(%rbx), %rsi
0x404b8e: 49 39 F7                   cmp	%rsi, %r15
0x404b91: 76 0A                      jbe	0x0000000000404b9d
0x404b93: 48 8B 54 24 38             mov	0x38(%rsp), %rdx
0x404b98: C6 44 1A 01 22             movb	$0x22, 0x1(%rdx,%rbx,1)
0x404b9d: 48 8D 56 01                lea	0x1(%rsi), %rdx
0x404ba1: 49 39 D7                   cmp	%rdx, %r15
0x404ba4: 76 0A                      jbe	0x0000000000404bb0
0x404ba6: 48 8B 5C 24 38             mov	0x38(%rsp), %rbx
0x404bab: C6 44 33 01 22             movb	$0x22, 0x1(%rbx,%rsi,1)
0x404bb0: 48 8D 5A 01                lea	0x1(%rdx), %rbx
0x404bb4: 49 39 DF                   cmp	%rbx, %r15
0x404bb7: 76 0A                      jbe	0x0000000000404bc3
0x404bb9: 48 8B 74 24 38             mov	0x38(%rsp), %rsi
0x404bbe: C6 44 16 01 3F             movb	$0x3f, 0x1(%rsi,%rdx,1)
0x404bc3: 41 89 CC                   mov	%ecx, %r12d
0x404bc6: 48 83 C3 01                add	$0x1, %rbx
0x404bca: E9 44 FD FF FF             jmpq	0x0000000000404913
0x404bcf: 90                         nop	
0x404bd0: 83 7C 24 44 02             cmpl	$0x2, 0x44(%rsp)
0x404bd5: 0F 85 35 FD FF FF          jne	0x0000000000404910
0x404bdb: 45 84 C0                   test	%r8b, %r8b
0x404bde: 0F 85 A9 FD FF FF          jne	0x000000000040498d
0x404be4: 4C 39 FB                   cmp	%r15, %rbx
0x404be7: 73 09                      jae	0x0000000000404bf2
0x404be9: 48 8B 44 24 38             mov	0x38(%rsp), %rax
0x404bee: C6 04 18 27                movb	$0x27, (%rax,%rbx,1)
0x404bf2: 48 8D 43 01                lea	0x1(%rbx), %rax
0x404bf6: 49 39 C7                   cmp	%rax, %r15
0x404bf9: 76 0A                      jbe	0x0000000000404c05
0x404bfb: 48 8B 54 24 38             mov	0x38(%rsp), %rdx
0x404c00: C6 44 1A 01 5C             movb	$0x5c, 0x1(%rdx,%rbx,1)
0x404c05: 48 8D 58 01                lea	0x1(%rax), %rbx
0x404c09: 49 39 DF                   cmp	%rbx, %r15
0x404c0c: 76 0A                      jbe	0x0000000000404c18
0x404c0e: 48 8B 4C 24 38             mov	0x38(%rsp), %rcx
0x404c13: C6 44 01 01 27             movb	$0x27, 0x1(%rcx,%rax,1)
0x404c18: 48 83 C3 01                add	$0x1, %rbx
0x404c1c: 48 89 E8                   mov	%rbp, %rax
0x404c1f: E9 EF FC FF FF             jmpq	0x0000000000404913
0x404c24: 0F 1F 40 00                nopl	0x0(%rax)
0x404c28: 49 83 FA FF                cmp	$0xffffffffffffffff, %r10
0x404c2c: 48 C7 84 24 A0 00 00 00    movq	$0x0, 0xa0(%rsp)
          00 00 00 00
0x404c38: 0F 84 D7 01 00 00          je	0x0000000000404e15
0x404c3e: 44 88 AC 24 8F 00 00 00    mov	%r13b, 0x8f(%rsp)
0x404c46: 4C 89 7C 24 78             mov	%r15, 0x78(%rsp)
0x404c4b: 4D 89 D5                   mov	%r10, %r13
0x404c4e: 48 C7 44 24 48 00 00 00    movq	$0x0, 0x48(%rsp)
          00
0x404c57: C6 44 24 50 01             movb	$0x1, 0x50(%rsp)
0x404c5c: 45 89 C7                   mov	%r8d, %r15d
0x404c5f: 48 89 9C 24 80 00 00 00    mov	%rbx, 0x80(%rsp)
0x404c67: 44 88 A4 24 8E 00 00 00    mov	%r12b, 0x8e(%rsp)
0x404c6f: 4C 89 8C 24 90 00 00 00    mov	%r9, 0x90(%rsp)
0x404c77: 4C 89 9C 24 98 00 00 00    mov	%r11, 0x98(%rsp)
0x404c7f: 4C 8B 64 24 48             mov	0x48(%rsp), %r12
0x404c84: 4C 89 EA                   mov	%r13, %rdx
0x404c87: 48 8D 8C 24 A0 00 00 00    lea	0xa0(%rsp), %rcx
0x404c8f: 48 8D BC 24 AC 00 00 00    lea	0xac(%rsp), %rdi
0x404c97: 49 01 EC                   add	%rbp, %r12
0x404c9a: 4B 8D 1C 26                lea	(%r14,%r12,1), %rbx
0x404c9e: 4C 29 E2                   sub	%r12, %rdx
0x404ca1: 48 89 DE                   mov	%rbx, %rsi
0x404ca4: E8 D7 C7 FF FF             callq	0x0000000000401480
0x404ca9: 48 85 C0                   test	%rax, %rax
0x404cac: 48 89 C2                   mov	%rax, %rdx
0x404caf: 74 68                      je	0x0000000000404d19
0x404cb1: 48 83 F8 FF                cmp	$0xffffffffffffffff, %rax
0x404cb5: 0F 84 90 01 00 00          je	0x0000000000404e4b
0x404cbb: 48 83 F8 FE                cmp	$0xfffffffffffffffe, %rax
0x404cbf: 90                         nop	
0x404cc0: 0F 84 C4 01 00 00          je	0x0000000000404e8a
0x404cc6: 45 84 FF                   test	%r15b, %r15b
0x404cc9: 74 0B                      je	0x0000000000404cd6
0x404ccb: 83 7C 24 44 02             cmpl	$0x2, 0x44(%rsp)
0x404cd0: 0F 84 C2 00 00 00          je	0x0000000000404d98
0x404cd6: 8B BC 24 AC 00 00 00       mov	0xac(%rsp), %edi
0x404cdd: 48 89 54 24 30             mov	%rdx, 0x30(%rsp)
0x404ce2: E8 49 CB FF FF             callq	0x0000000000401830
0x404ce7: 85 C0                      test	%eax, %eax
0x404ce9: 0F B6 44 24 50             movzbl	0x50(%rsp), %eax
0x404cee: B9 00 00 00 00             mov	$0x0, %ecx
0x404cf3: 48 8D BC 24 A0 00 00 00    lea	0xa0(%rsp), %rdi
0x404cfb: 48 8B 54 24 30             mov	0x30(%rsp), %rdx
0x404d00: 0F 45 C8                   cmovne	%eax, %ecx
0x404d03: 48 01 54 24 48             add	%rdx, 0x48(%rsp)
0x404d08: 88 4C 24 50                mov	%cl, 0x50(%rsp)
0x404d0c: E8 FF C9 FF FF             callq	0x0000000000401710
0x404d11: 85 C0                      test	%eax, %eax
0x404d13: 0F 84 66 FF FF FF          je	0x0000000000404c7f
0x404d19: 4D 89 EA                   mov	%r13, %r10
0x404d1c: 44 0F B6 A4 24 8E 00 00    movzbl	0x8e(%rsp), %r12d
          00
0x404d25: 44 0F B6 AC 24 8F 00 00    movzbl	0x8f(%rsp), %r13d
          00
0x404d2e: 45 89 F8                   mov	%r15d, %r8d
0x404d31: 48 8B 9C 24 80 00 00 00    mov	0x80(%rsp), %rbx
0x404d39: 4C 8B 8C 24 90 00 00 00    mov	0x90(%rsp), %r9
0x404d41: 4C 8B 7C 24 78             mov	0x78(%rsp), %r15
0x404d46: 4C 8B 9C 24 98 00 00 00    mov	0x98(%rsp), %r11
0x404d4e: 48 83 7C 24 48 01          cmpq	$0x1, 0x48(%rsp)
0x404d54: 0F 87 56 F8 FF FF          ja	0x00000000004045b0
0x404d5a: E9 39 F8 FF FF             jmpq	0x0000000000404598
0x404d5f: 90                         nop	
0x404d60: F6 44 24 64 01             testb	$0x1, 0x64(%rsp)
0x404d65: 0F 84 7D FC FF FF          je	0x00000000004049e8
0x404d6b: 48 83 C5 01                add	$0x1, %rbp
0x404d6f: 90                         nop	
0x404d70: E9 48 F7 FF FF             jmpq	0x00000000004044bd
0x404d75: 0F 1F 00                   nopl	(%rax)
0x404d78: 41 BC 30 00 00 00          mov	$0x30, %r12d
0x404d7e: 66 90                      xchg	%ax, %ax
0x404d80: E9 9A FB FF FF             jmpq	0x000000000040491f
0x404d85: 0F 1F 00                   nopl	(%rax)
0x404d88: 41 80 7E 01 00             cmpb	$0x0, 0x1(%r14)
0x404d8d: 0F 95 C0                   setne	%al
0x404d90: E9 5C FB FF FF             jmpq	0x00000000004048f1
0x404d95: 0F 1F 00                   nopl	(%rax)
0x404d98: 48 83 F8 01                cmp	$0x1, %rax
0x404d9c: 0F 86 34 FF FF FF          jbe	0x0000000000404cd6
0x404da2: B8 01 00 00 00             mov	$0x1, %eax
0x404da7: 66 0F 1F 84 00 00 00 00    nopw	0x0(%rax,%rax,1)
          00
0x404db0: 0F B6 0C 03                movzbl	(%rbx,%rax,1), %ecx
0x404db4: 83 E9 5B                   sub	$0x5b, %ecx
0x404db7: 80 F9 21                   cmp	$0x21, %cl
0x404dba: 77 34                      ja	0x0000000000404df0
0x404dbc: BE 01 00 00 00             mov	$0x1, %esi
0x404dc1: 48 D3 E6                   shl	%cl, %rsi
0x404dc4: 48 89 F1                   mov	%rsi, %rcx
0x404dc7: 48 BE 2B 00 00 00 02 00    mov	$0x20000002b, %rsi
          00 00
0x404dd1: 48 85 F1                   test	%rsi, %rcx
0x404dd4: 74 1A                      je	0x0000000000404df0
0x404dd6: 4C 8B 7C 24 78             mov	0x78(%rsp), %r15
0x404ddb: 4D 89 F3                   mov	%r14, %r11
0x404dde: 4D 89 EA                   mov	%r13, %r10
0x404de1: E9 AA FB FF FF             jmpq	0x0000000000404990
0x404de6: 66 2E 0F 1F 84 00 00 00    nopw	%cs:0x0(%rax,%rax,1)
          00 00
0x404df0: 48 83 C0 01                add	$0x1, %rax
0x404df4: 48 39 C2                   cmp	%rax, %rdx
0x404df7: 77 B7                      ja	0x0000000000404db0
0x404df9: E9 D8 FE FF FF             jmpq	0x0000000000404cd6
0x404dfe: 45 84 C0                   test	%r8b, %r8b
0x404e01: 0F 85 89 FB FF FF          jne	0x0000000000404990
0x404e07: 66 0F 1F 84 00 00 00 00    nopw	0x0(%rax,%rax,1)
          00
0x404e10: E9 8A F8 FF FF             jmpq	0x000000000040469f
0x404e15: 4C 89 F7                   mov	%r14, %rdi
0x404e18: 44 88 44 24 28             mov	%r8b, 0x28(%rsp)
0x404e1d: 4C 89 4C 24 30             mov	%r9, 0x30(%rsp)
0x404e22: 4C 89 5C 24 18             mov	%r11, 0x18(%rsp)
0x404e27: E8 E4 C7 FF FF             callq	0x0000000000401610
0x404e2c: 4C 8B 5C 24 18             mov	0x18(%rsp), %r11
0x404e31: 49 89 C2                   mov	%rax, %r10
0x404e34: 4C 8B 4C 24 30             mov	0x30(%rsp), %r9
0x404e39: 44 0F B6 44 24 28          movzbl	0x28(%rsp), %r8d
0x404e3f: E9 FA FD FF FF             jmpq	0x0000000000404c3e
0x404e44: 31 DB                      xor	%ebx, %ebx
0x404e46: E9 6A F9 FF FF             jmpq	0x00000000004047b5
0x404e4b: 4D 89 EA                   mov	%r13, %r10
0x404e4e: 44 0F B6 A4 24 8E 00 00    movzbl	0x8e(%rsp), %r12d
          00
0x404e57: 44 0F B6 AC 24 8F 00 00    movzbl	0x8f(%rsp), %r13d
          00
0x404e60: 45 89 F8                   mov	%r15d, %r8d
0x404e63: 48 8B 9C 24 80 00 00 00    mov	0x80(%rsp), %rbx
0x404e6b: 4C 8B 8C 24 90 00 00 00    mov	0x90(%rsp), %r9
0x404e73: 4C 8B 7C 24 78             mov	0x78(%rsp), %r15
0x404e78: 4C 8B 9C 24 98 00 00 00    mov	0x98(%rsp), %r11
0x404e80: C6 44 24 50 00             movb	$0x0, 0x50(%rsp)
0x404e85: E9 C4 FE FF FF             jmpq	0x0000000000404d4e
0x404e8a: 4C 89 E0                   mov	%r12, %rax
0x404e8d: 4D 89 EA                   mov	%r13, %r10
0x404e90: 45 89 F8                   mov	%r15d, %r8d
0x404e93: 49 39 C2                   cmp	%rax, %r10
0x404e96: 48 89 DA                   mov	%rbx, %rdx
0x404e99: 4C 8B 8C 24 90 00 00 00    mov	0x90(%rsp), %r9
0x404ea1: 48 8B 9C 24 80 00 00 00    mov	0x80(%rsp), %rbx
0x404ea9: 44 0F B6 A4 24 8E 00 00    movzbl	0x8e(%rsp), %r12d
          00
0x404eb2: 4C 8B 7C 24 78             mov	0x78(%rsp), %r15
0x404eb7: 44 0F B6 AC 24 8F 00 00    movzbl	0x8f(%rsp), %r13d
          00
0x404ec0: 4C 8B 9C 24 98 00 00 00    mov	0x98(%rsp), %r11
0x404ec8: 76 B6                      jbe	0x0000000000404e80
0x404eca: 80 3A 00                   cmpb	$0x0, (%rdx)
0x404ecd: 74 B1                      je	0x0000000000404e80
0x404ecf: 48 8B 74 24 48             mov	0x48(%rsp), %rsi
0x404ed4: 48 8D 44 35 01             lea	0x1(%rbp,%rsi,1), %rax
0x404ed9: 48 89 F1                   mov	%rsi, %rcx
0x404edc: 49 8D 14 06                lea	(%r14,%rax,1), %rdx
0x404ee0: EB 16                      jmp	0x0000000000404ef8
0x404ee2: 66 0F 1F 44 00 00          nopw	0x0(%rax,%rax,1)
0x404ee8: 0F B6 32                   movzbl	(%rdx), %esi
0x404eeb: 48 83 C0 01                add	$0x1, %rax
0x404eef: 48 83 C2 01                add	$0x1, %rdx
0x404ef3: 40 84 F6                   test	%sil, %sil
0x404ef6: 74 09                      je	0x0000000000404f01
0x404ef8: 48 83 C1 01                add	$0x1, %rcx
0x404efc: 49 39 C2                   cmp	%rax, %r10
0x404eff: 77 E7                      ja	0x0000000000404ee8
0x404f01: 48 89 4C 24 48             mov	%rcx, 0x48(%rsp)
0x404f06: E9 75 FF FF FF             jmpq	0x0000000000404e80
0x404f0b: 84 DB                      test	%bl, %bl
0x404f0d: B8 4F B5 40 00             mov	$0x40b54f, %eax
0x404f12: 4C 0F 45 E0                cmovne	%rax, %r12
0x404f16: E9 64 F8 FF FF             jmpq	0x000000000040477f
0x404f1b: 84 DB                      test	%bl, %bl
0x404f1d: B8 4F B5 40 00             mov	$0x40b54f, %eax
0x404f22: 48 0F 45 E8                cmovne	%rax, %rbp
0x404f26: E9 15 F8 FF FF             jmpq	0x0000000000404740
0x404f2b: 41 BD 01 00 00 00          mov	$0x1, %r13d
0x404f31: 41 B9 01 00 00 00          mov	$0x1, %r9d
0x404f37: 48 C7 44 24 68 4F B5 40    movq	$0x40b54f, 0x68(%rsp)
          00
0x404f40: 31 DB                      xor	%ebx, %ebx
0x404f42: E9 71 F5 FF FF             jmpq	0x00000000004044b8
0x404f47: 45 31 ED                   xor	%r13d, %r13d
0x404f4a: 41 B9 01 00 00 00          mov	$0x1, %r9d
0x404f50: 48 C7 44 24 68 4E B1 40    movq	$0x40b14e, 0x68(%rsp)
          00
0x404f59: 31 DB                      xor	%ebx, %ebx
0x404f5b: E9 58 F5 FF FF             jmpq	0x00000000004044b8
0x404f60: 48 89 5C 24 D0             mov	%rbx, -0x30(%rsp)
0x404f65: 48 89 6C 24 D8             mov	%rbp, -0x28(%rsp)
0x404f6a: 89 FB                      mov	%edi, %ebx
0x404f6c: 4C 89 6C 24 E8             mov	%r13, -0x18(%rsp)
0x404f71: 4C 89 74 24 F0             mov	%r14, -0x10(%rsp)
0x404f76: 48 89 CD                   mov	%rcx, %rbp
0x404f79: 4C 89 64 24 E0             mov	%r12, -0x20(%rsp)
0x404f7e: 4C 89 7C 24 F8             mov	%r15, -0x8(%rsp)
0x404f83: 48 83 EC 68                sub	$0x68, %rsp
0x404f87: 48 89 74 24 18             mov	%rsi, 0x18(%rsp)
0x404f8c: 48 89 54 24 20             mov	%rdx, 0x20(%rsp)
0x404f91: E8 8A C7 FF FF             callq	0x0000000000401720
0x404f96: 49 89 C6                   mov	%rax, %r14
0x404f99: 8B 00                      mov	(%rax), %eax
0x404f9b: 85 DB                      test	%ebx, %ebx
0x404f9d: 4C 8B 2D 9C 82 20 00       mov	0x20829c(%rip), %r13	#  0x000000000060d240
0x404fa4: 89 44 24 2C                mov	%eax, 0x2c(%rsp)
0x404fa8: 0F 88 66 01 00 00          js	0x0000000000405114
0x404fae: 3B 1D 94 82 20 00          cmp	0x208294(%rip), %ebx	#  0x000000000060d248
0x404fb4: 72 54                      jb	0x000000000040500a
0x404fb6: 44 8D 63 01                lea	0x1(%rbx), %r12d
0x404fba: 45 89 E7                   mov	%r12d, %r15d
0x404fbd: 4C 89 FE                   mov	%r15, %rsi
0x404fc0: 48 C1 E6 04                shl	$0x4, %rsi
0x404fc4: 49 81 FD 50 D2 60 00       cmp	$0x60d250, %r13
0x404fcb: 0F 84 17 01 00 00          je	0x00000000004050e8
0x404fd1: 4C 89 EF                   mov	%r13, %rdi
0x404fd4: E8 07 07 00 00             callq	0x00000000004056e0
0x404fd9: 49 89 C5                   mov	%rax, %r13
0x404fdc: 48 89 05 5D 82 20 00       mov	%rax, 0x20825d(%rip)	#  0x000000000060d240
0x404fe3: 8B 3D 5F 82 20 00          mov	0x20825f(%rip), %edi	#  0x000000000060d248
0x404fe9: 4C 89 FA                   mov	%r15, %rdx
0x404fec: 31 F6                      xor	%esi, %esi
0x404fee: 48 29 FA                   sub	%rdi, %rdx
0x404ff1: 48 C1 E7 04                shl	$0x4, %rdi
0x404ff5: 49 8D 7C 3D 00             lea	0x0(%r13,%rdi,1), %rdi
0x404ffa: 48 C1 E2 04                shl	$0x4, %rdx
0x404ffe: E8 6D C4 FF FF             callq	0x0000000000401470
0x405003: 44 89 25 3E 82 20 00       mov	%r12d, 0x20823e(%rip)	#  0x000000000060d248
0x40500a: 4C 63 E3                   movslq	%ebx, %r12
0x40500d: 4C 8D 7D 08                lea	0x8(%rbp), %r15
0x405011: 48 8B 4C 24 20             mov	0x20(%rsp), %rcx
0x405016: 49 C1 E4 04                shl	$0x4, %r12
0x40501a: 48 8B 54 24 18             mov	0x18(%rsp), %rdx
0x40501f: 4F 8D 64 25 00             lea	0x0(%r13,%r12,1), %r12
0x405024: 44 8B 6D 04                mov	0x4(%rbp), %r13d
0x405028: 4D 8B 14 24                mov	(%r12), %r10
0x40502c: 49 8B 5C 24 08             mov	0x8(%r12), %rbx
0x405031: 4C 89 3C 24                mov	%r15, (%rsp)
0x405035: 44 8B 45 00                mov	0x0(%rbp), %r8d
0x405039: 41 83 CD 01                or	$0x1, %r13d
0x40503d: 45 89 E9                   mov	%r13d, %r9d
0x405040: 4C 89 D6                   mov	%r10, %rsi
0x405043: 48 89 DF                   mov	%rbx, %rdi
0x405046: 4C 89 54 24 10             mov	%r10, 0x10(%rsp)
0x40504b: E8 E0 F3 FF FF             callq	0x0000000000404430
0x405050: 4C 8B 54 24 10             mov	0x10(%rsp), %r10
0x405055: 49 39 C2                   cmp	%rax, %r10
0x405058: 77 5A                      ja	0x00000000004050b4
0x40505a: 48 8D 70 01                lea	0x1(%rax), %rsi
0x40505e: 48 81 FB 00 D3 60 00       cmp	$0x60d300, %rbx
0x405065: 49 89 34 24                mov	%rsi, (%r12)
0x405069: 74 12                      je	0x000000000040507d
0x40506b: 48 89 DF                   mov	%rbx, %rdi
0x40506e: 48 89 74 24 10             mov	%rsi, 0x10(%rsp)
0x405073: E8 88 C5 FF FF             callq	0x0000000000401600
0x405078: 48 8B 74 24 10             mov	0x10(%rsp), %rsi
0x40507d: 48 89 F7                   mov	%rsi, %rdi
0x405080: 48 89 74 24 10             mov	%rsi, 0x10(%rsp)
0x405085: E8 E6 06 00 00             callq	0x0000000000405770
0x40508a: 48 8B 4C 24 20             mov	0x20(%rsp), %rcx
0x40508f: 49 89 44 24 08             mov	%rax, 0x8(%r12)
0x405094: 45 89 E9                   mov	%r13d, %r9d
0x405097: 4C 89 3C 24                mov	%r15, (%rsp)
0x40509b: 48 8B 54 24 18             mov	0x18(%rsp), %rdx
0x4050a0: 48 89 C7                   mov	%rax, %rdi
0x4050a3: 44 8B 45 00                mov	0x0(%rbp), %r8d
0x4050a7: 48 8B 74 24 10             mov	0x10(%rsp), %rsi
0x4050ac: 48 89 C3                   mov	%rax, %rbx
0x4050af: E8 7C F3 FF FF             callq	0x0000000000404430
0x4050b4: 8B 44 24 2C                mov	0x2c(%rsp), %eax
0x4050b8: 41 89 06                   mov	%eax, (%r14)
0x4050bb: 48 89 D8                   mov	%rbx, %rax
0x4050be: 48 8B 6C 24 40             mov	0x40(%rsp), %rbp
0x4050c3: 48 8B 5C 24 38             mov	0x38(%rsp), %rbx
0x4050c8: 4C 8B 64 24 48             mov	0x48(%rsp), %r12
0x4050cd: 4C 8B 6C 24 50             mov	0x50(%rsp), %r13
0x4050d2: 4C 8B 74 24 58             mov	0x58(%rsp), %r14
0x4050d7: 4C 8B 7C 24 60             mov	0x60(%rsp), %r15
0x4050dc: 48 83 C4 68                add	$0x68, %rsp
0x4050e0: C3                         retq	
0x4050e1: 0F 1F 80 00 00 00 00       nopl	0x0(%rax)
0x4050e8: 31 FF                      xor	%edi, %edi
0x4050ea: E8 F1 05 00 00             callq	0x00000000004056e0
0x4050ef: 49 89 C5                   mov	%rax, %r13
0x4050f2: 48 89 05 47 81 20 00       mov	%rax, 0x208147(%rip)	#  0x000000000060d240
0x4050f9: 48 8B 05 50 81 20 00       mov	0x208150(%rip), %rax	#  0x000000000060d250
0x405100: 49 89 45 00                mov	%rax, 0x0(%r13)
0x405104: 48 8B 05 4D 81 20 00       mov	0x20814d(%rip), %rax	#  0x000000000060d258
0x40510b: 49 89 45 08                mov	%rax, 0x8(%r13)
0x40510f: E9 CF FE FF FF             jmpq	0x0000000000404fe3
0x405114: E8 97 C3 FF FF             callq	0x00000000004014b0
0x405119: 0F 1F 80 00 00 00 00       nopl	0x0(%rax)
0x405120: 48 89 5C 24 E8             mov	%rbx, -0x18(%rsp)
0x405125: 48 89 6C 24 F0             mov	%rbp, -0x10(%rsp)
0x40512a: 48 89 FB                   mov	%rdi, %rbx
0x40512d: 4C 89 64 24 F8             mov	%r12, -0x8(%rsp)
0x405132: 48 83 EC 48                sub	$0x48, %rsp
0x405136: 48 8B 05 83 81 20 00       mov	0x208183(%rip), %rax	#  0x000000000060d2c0
0x40513d: 48 89 F5                   mov	%rsi, %rbp
0x405140: 48 89 E7                   mov	%rsp, %rdi
0x405143: 0F BE F2                   movsbl	%dl, %esi
0x405146: BA 01 00 00 00             mov	$0x1, %edx
0x40514b: 48 89 04 24                mov	%rax, (%rsp)
0x40514f: 48 8B 05 72 81 20 00       mov	0x208172(%rip), %rax	#  0x000000000060d2c8
0x405156: 48 89 44 24 08             mov	%rax, 0x8(%rsp)
0x40515b: 48 8B 05 6E 81 20 00       mov	0x20816e(%rip), %rax	#  0x000000000060d2d0
0x405162: 48 89 44 24 10             mov	%rax, 0x10(%rsp)
0x405167: 48 8B 05 6A 81 20 00       mov	0x20816a(%rip), %rax	#  0x000000000060d2d8
0x40516e: 48 89 44 24 18             mov	%rax, 0x18(%rsp)
0x405173: 48 8B 05 66 81 20 00       mov	0x208166(%rip), %rax	#  0x000000000060d2e0
0x40517a: 48 89 44 24 20             mov	%rax, 0x20(%rsp)
0x40517f: E8 6C F1 FF FF             callq	0x00000000004042f0
0x405184: 48 89 E1                   mov	%rsp, %rcx
0x405187: 48 89 EA                   mov	%rbp, %rdx
0x40518a: 48 89 DE                   mov	%rbx, %rsi
0x40518d: 31 FF                      xor	%edi, %edi
0x40518f: E8 CC FD FF FF             callq	0x0000000000404f60
0x405194: 48 8B 5C 24 30             mov	0x30(%rsp), %rbx
0x405199: 48 8B 6C 24 38             mov	0x38(%rsp), %rbp
0x40519e: 4C 8B 64 24 40             mov	0x40(%rsp), %r12
0x4051a3: 48 83 C4 48                add	$0x48, %rsp
0x4051a7: C3                         retq	
0x4051a8: 0F 1F 84 00 00 00 00 00    nopl	0x0(%rax,%rax,1)
0x4051b0: BA 3A 00 00 00             mov	$0x3a, %edx
0x4051b5: E9 66 FF FF FF             jmpq	0x0000000000405120
0x4051ba: 66 0F 1F 44 00 00          nopw	0x0(%rax,%rax,1)
0x4051c0: 40 0F BE D6                movsbl	%sil, %edx
0x4051c4: 48 C7 C6 FF FF FF FF       mov	$0xffffffffffffffff, %rsi
0x4051cb: E9 50 FF FF FF             jmpq	0x0000000000405120
0x4051d0: BE 3A 00 00 00             mov	$0x3a, %esi
0x4051d5: E9 E6 FF FF FF             jmpq	0x00000000004051c0
0x4051da: 66 0F 1F 44 00 00          nopw	0x0(%rax,%rax,1)
0x4051e0: B9 C0 D2 60 00             mov	$0x60d2c0, %ecx
0x4051e5: E9 76 FD FF FF             jmpq	0x0000000000404f60
0x4051ea: 66 0F 1F 44 00 00          nopw	0x0(%rax,%rax,1)
0x4051f0: 48 89 F2                   mov	%rsi, %rdx
0x4051f3: 48 89 FE                   mov	%rdi, %rsi
0x4051f6: 31 FF                      xor	%edi, %edi
0x4051f8: E9 E3 FF FF FF             jmpq	0x00000000004051e0
0x4051fd: 0F 1F 00                   nopl	(%rax)
0x405200: B9 C0 D2 60 00             mov	$0x60d2c0, %ecx
0x405205: 48 C7 C2 FF FF FF FF       mov	$0xffffffffffffffff, %rdx
0x40520c: E9 4F FD FF FF             jmpq	0x0000000000404f60
0x405211: 66 66 66 66 66 66 2E 0F    nopw	%cs:0x0(%rax,%rax,1)
          1F 84 00 00 00 00 00
0x405220: 48 89 FE                   mov	%rdi, %rsi
0x405223: 31 FF                      xor	%edi, %edi
0x405225: E9 D6 FF FF FF             jmpq	0x0000000000405200
0x40522a: 66 0F 1F 44 00 00          nopw	0x0(%rax,%rax,1)
0x405230: 48 89 5C 24 D0             mov	%rbx, -0x30(%rsp)
0x405235: 48 89 6C 24 D8             mov	%rbp, -0x28(%rsp)
0x40523a: BB C0 D2 60 00             mov	$0x60d2c0, %ebx
0x40523f: 4C 89 64 24 E0             mov	%r12, -0x20(%rsp)
0x405244: 4C 89 6C 24 E8             mov	%r13, -0x18(%rsp)
0x405249: 49 89 D4                   mov	%rdx, %r12
0x40524c: 4C 89 74 24 F0             mov	%r14, -0x10(%rsp)
0x405251: 4C 89 7C 24 F8             mov	%r15, -0x8(%rsp)
0x405256: 48 83 EC 68                sub	$0x68, %rsp
0x40525a: 48 85 C9                   test	%rcx, %rcx
0x40525d: 48 89 7C 24 20             mov	%rdi, 0x20(%rsp)
0x405262: 48 89 74 24 28             mov	%rsi, 0x28(%rsp)
0x405267: 48 0F 45 D9                cmovne	%rcx, %rbx
0x40526b: 31 ED                      xor	%ebp, %ebp
0x40526d: E8 AE C4 FF FF             callq	0x0000000000401720
0x405272: 4D 85 E4                   test	%r12, %r12
0x405275: 4C 8D 6B 08                lea	0x8(%rbx), %r13
0x405279: 44 8B 18                   mov	(%rax), %r11d
0x40527c: 40 0F 94 C5                sete	%bpl
0x405280: 0B 6B 04                   or	0x4(%rbx), %ebp
0x405283: 48 8B 4C 24 28             mov	0x28(%rsp), %rcx
0x405288: 48 8B 54 24 20             mov	0x20(%rsp), %rdx
0x40528d: 4C 89 2C 24                mov	%r13, (%rsp)
0x405291: 31 F6                      xor	%esi, %esi
0x405293: 44 8B 03                   mov	(%rbx), %r8d
0x405296: 31 FF                      xor	%edi, %edi
0x405298: 44 89 5C 24 10             mov	%r11d, 0x10(%rsp)
0x40529d: 49 89 C6                   mov	%rax, %r14
0x4052a0: 41 89 E9                   mov	%ebp, %r9d
0x4052a3: E8 88 F1 FF FF             callq	0x0000000000404430
0x4052a8: 48 8D 70 01                lea	0x1(%rax), %rsi
0x4052ac: 49 89 C7                   mov	%rax, %r15
0x4052af: 48 89 F7                   mov	%rsi, %rdi
0x4052b2: 48 89 74 24 18             mov	%rsi, 0x18(%rsp)
0x4052b7: E8 B4 04 00 00             callq	0x0000000000405770
0x4052bc: 4C 89 2C 24                mov	%r13, (%rsp)
0x4052c0: 48 8B 74 24 18             mov	0x18(%rsp), %rsi
0x4052c5: 41 89 E9                   mov	%ebp, %r9d
0x4052c8: 44 8B 03                   mov	(%rbx), %r8d
0x4052cb: 48 8B 4C 24 28             mov	0x28(%rsp), %rcx
0x4052d0: 48 89 C7                   mov	%rax, %rdi
0x4052d3: 48 8B 54 24 20             mov	0x20(%rsp), %rdx
0x4052d8: 48 89 44 24 18             mov	%rax, 0x18(%rsp)
0x4052dd: E8 4E F1 FF FF             callq	0x0000000000404430
0x4052e2: 44 8B 5C 24 10             mov	0x10(%rsp), %r11d
0x4052e7: 4D 85 E4                   test	%r12, %r12
0x4052ea: 4C 8B 54 24 18             mov	0x18(%rsp), %r10
0x4052ef: 45 89 1E                   mov	%r11d, (%r14)
0x4052f2: 74 04                      je	0x00000000004052f8
0x4052f4: 4D 89 3C 24                mov	%r15, (%r12)
0x4052f8: 4C 89 D0                   mov	%r10, %rax
0x4052fb: 48 8B 5C 24 38             mov	0x38(%rsp), %rbx
0x405300: 48 8B 6C 24 40             mov	0x40(%rsp), %rbp
0x405305: 4C 8B 64 24 48             mov	0x48(%rsp), %r12
0x40530a: 4C 8B 6C 24 50             mov	0x50(%rsp), %r13
0x40530f: 4C 8B 74 24 58             mov	0x58(%rsp), %r14
0x405314: 4C 8B 7C 24 60             mov	0x60(%rsp), %r15
0x405319: 48 83 C4 68                add	$0x68, %rsp
0x40531d: C3                         retq	
0x40531e: 66 90                      xchg	%ax, %ax
0x405320: 48 89 D1                   mov	%rdx, %rcx
0x405323: 31 D2                      xor	%edx, %edx
0x405325: E9 06 FF FF FF             jmpq	0x0000000000405230
0x40532a: 66 0F 1F 44 00 00          nopw	0x0(%rax,%rax,1)
0x405330: 48 89 5C 24 D0             mov	%rbx, -0x30(%rsp)
0x405335: 48 89 6C 24 D8             mov	%rbp, -0x28(%rsp)
0x40533a: 4C 89 64 24 E0             mov	%r12, -0x20(%rsp)
0x40533f: 4C 89 6C 24 E8             mov	%r13, -0x18(%rsp)
0x405344: 49 89 FC                   mov	%rdi, %r12
0x405347: 4C 89 74 24 F0             mov	%r14, -0x10(%rsp)
0x40534c: 4C 89 7C 24 F8             mov	%r15, -0x8(%rsp)
0x405351: 49 89 D6                   mov	%rdx, %r14
0x405354: 48 83 EC 58                sub	$0x58, %rsp
0x405358: BA C0 D2 60 00             mov	$0x60d2c0, %edx
0x40535d: 4D 85 C0                   test	%r8, %r8
0x405360: 49 0F 45 D0                cmovne	%r8, %rdx
0x405364: 49 89 F5                   mov	%rsi, %r13
0x405367: 49 89 CF                   mov	%rcx, %r15
0x40536a: 48 89 54 24 18             mov	%rdx, 0x18(%rsp)
0x40536f: E8 AC C3 FF FF             callq	0x0000000000401720
0x405374: 48 8B 54 24 18             mov	0x18(%rsp), %rdx
0x405379: 8B 28                      mov	(%rax), %ebp
0x40537b: 48 89 C3                   mov	%rax, %rbx
0x40537e: 4C 89 F9                   mov	%r15, %rcx
0x405381: 4C 89 EE                   mov	%r13, %rsi
0x405384: 4C 89 E7                   mov	%r12, %rdi
0x405387: 48 8D 42 08                lea	0x8(%rdx), %rax
0x40538b: 44 8B 4A 04                mov	0x4(%rdx), %r9d
0x40538f: 48 89 04 24                mov	%rax, (%rsp)
0x405393: 44 8B 02                   mov	(%rdx), %r8d
0x405396: 4C 89 F2                   mov	%r14, %rdx
0x405399: E8 92 F0 FF FF             callq	0x0000000000404430
0x40539e: 89 2B                      mov	%ebp, (%rbx)
0x4053a0: 48 8B 5C 24 28             mov	0x28(%rsp), %rbx
0x4053a5: 48 8B 6C 24 30             mov	0x30(%rsp), %rbp
0x4053aa: 4C 8B 64 24 38             mov	0x38(%rsp), %r12
0x4053af: 4C 8B 6C 24 40             mov	0x40(%rsp), %r13
0x4053b4: 4C 8B 74 24 48             mov	0x48(%rsp), %r14
0x4053b9: 4C 8B 7C 24 50             mov	0x50(%rsp), %r15
0x4053be: 48 83 C4 58                add	$0x58, %rsp
0x4053c2: C3                         retq	
0x4053c3: 66 66 66 66 2E 0F 1F 84    nopw	%cs:0x0(%rax,%rax,1)
          00 00 00 00 00
0x4053d0: 48 83 EC 68                sub	$0x68, %rsp
0x4053d4: 89 F0                      mov	%esi, %eax
0x4053d6: 48 89 D6                   mov	%rdx, %rsi
0x4053d9: 89 04 24                   mov	%eax, (%rsp)
0x4053dc: 48 8D 44 24 08             lea	0x8(%rsp), %rax
0x4053e1: C7 44 24 04 00 00 00 00    movl	$0x0, 0x4(%rsp)
0x4053e9: 48 89 CA                   mov	%rcx, %rdx
0x4053ec: 48 8D 4C 24 30             lea	0x30(%rsp), %rcx
0x4053f1: 48 C7 44 24 08 00 00 00    movq	$0x0, 0x8(%rsp)
          00
0x4053fa: 48 C7 40 08 00 00 00 00    movq	$0x0, 0x8(%rax)
0x405402: 48 C7 40 10 00 00 00 00    movq	$0x0, 0x10(%rax)
0x40540a: 48 C7 40 18 00 00 00 00    movq	$0x0, 0x18(%rax)
0x405412: 48 8B 04 24                mov	(%rsp), %rax
0x405416: 48 C7 44 24 38 00 00 00    movq	$0x0, 0x38(%rsp)
          00
0x40541f: 48 C7 44 24 40 00 00 00    movq	$0x0, 0x40(%rsp)
          00
0x405428: 48 C7 44 24 48 00 00 00    movq	$0x0, 0x48(%rsp)
          00
0x405431: 48 C7 44 24 50 00 00 00    movq	$0x0, 0x50(%rsp)
          00
0x40543a: 48 89 44 24 30             mov	%rax, 0x30(%rsp)
0x40543f: E8 1C FB FF FF             callq	0x0000000000404f60
0x405444: 48 83 C4 68                add	$0x68, %rsp
0x405448: C3                         retq	
0x405449: 0F 1F 80 00 00 00 00       nopl	0x0(%rax)
0x405450: 48 89 D1                   mov	%rdx, %rcx
0x405453: 48 89 F2                   mov	%rsi, %rdx
0x405456: 89 FE                      mov	%edi, %esi
0x405458: 31 FF                      xor	%edi, %edi
0x40545a: E9 71 FF FF FF             jmpq	0x00000000004053d0
0x40545f: 90                         nop	
0x405460: 48 83 EC 68                sub	$0x68, %rsp
0x405464: 89 F0                      mov	%esi, %eax
0x405466: 48 89 D6                   mov	%rdx, %rsi
0x405469: 89 04 24                   mov	%eax, (%rsp)
0x40546c: 48 8D 44 24 08             lea	0x8(%rsp), %rax
0x405471: C7 44 24 04 00 00 00 00    movl	$0x0, 0x4(%rsp)
0x405479: 48 8D 4C 24 30             lea	0x30(%rsp), %rcx
0x40547e: 48 C7 C2 FF FF FF FF       mov	$0xffffffffffffffff, %rdx
0x405485: 48 C7 44 24 08 00 00 00    movq	$0x0, 0x8(%rsp)
          00
0x40548e: 48 C7 40 08 00 00 00 00    movq	$0x0, 0x8(%rax)
0x405496: 48 C7 40 10 00 00 00 00    movq	$0x0, 0x10(%rax)
0x40549e: 48 C7 40 18 00 00 00 00    movq	$0x0, 0x18(%rax)
0x4054a6: 48 8B 04 24                mov	(%rsp), %rax
0x4054aa: 48 C7 44 24 38 00 00 00    movq	$0x0, 0x38(%rsp)
          00
0x4054b3: 48 C7 44 24 40 00 00 00    movq	$0x0, 0x40(%rsp)
          00
0x4054bc: 48 C7 44 24 48 00 00 00    movq	$0x0, 0x48(%rsp)
          00
0x4054c5: 48 C7 44 24 50 00 00 00    movq	$0x0, 0x50(%rsp)
          00
0x4054ce: 48 89 44 24 30             mov	%rax, 0x30(%rsp)
0x4054d3: E8 88 FA FF FF             callq	0x0000000000404f60
0x4054d8: 48 83 C4 68                add	$0x68, %rsp
0x4054dc: C3                         retq	
0x4054dd: 0F 1F 00                   nopl	(%rax)
0x4054e0: 48 89 F2                   mov	%rsi, %rdx
0x4054e3: 89 FE                      mov	%edi, %esi
0x4054e5: 31 FF                      xor	%edi, %edi
0x4054e7: E9 74 FF FF FF             jmpq	0x0000000000405460
0x4054ec: 90                         nop	
0x4054ed: 90                         nop	
0x4054ee: 90                         nop	
0x4054ef: 90                         nop	
0x4054f0: 41 55                      push	%r13
0x4054f2: 41 54                      push	%r12
0x4054f4: 41 89 FC                   mov	%edi, %r12d
0x4054f7: 55                         push	%rbp
0x4054f8: 48 89 F5                   mov	%rsi, %rbp
0x4054fb: 53                         push	%rbx
0x4054fc: 48 89 D3                   mov	%rdx, %rbx
0x4054ff: 48 83 EC 08                sub	$0x8, %rsp
0x405503: 0F 1F 44 00 00             nopl	0x0(%rax,%rax,1)
0x405508: 48 89 DA                   mov	%rbx, %rdx
0x40550b: 48 89 EE                   mov	%rbp, %rsi
0x40550e: 44 89 E7                   mov	%r12d, %edi
0x405511: E8 3A C0 FF FF             callq	0x0000000000401550
0x405516: 48 85 C0                   test	%rax, %rax
0x405519: 49 89 C5                   mov	%rax, %r13
0x40551c: 79 11                      jns	0x000000000040552f
0x40551e: E8 FD C1 FF FF             callq	0x0000000000401720
0x405523: 8B 00                      mov	(%rax), %eax
0x405525: 83 F8 04                   cmp	$0x4, %eax
0x405528: 74 DE                      je	0x0000000000405508
0x40552a: 83 F8 16                   cmp	$0x16, %eax
0x40552d: 74 11                      je	0x0000000000405540
0x40552f: 48 83 C4 08                add	$0x8, %rsp
0x405533: 4C 89 E8                   mov	%r13, %rax
0x405536: 5B                         pop	%rbx
0x405537: 5D                         pop	%rbp
0x405538: 41 5C                      pop	%r12
0x40553a: 41 5D                      pop	%r13
0x40553c: C3                         retq	
0x40553d: 0F 1F 00                   nopl	(%rax)
0x405540: 48 81 FB 00 E0 FF 7F       cmp	$0x7fffe000, %rbx
0x405547: 76 E6                      jbe	0x000000000040552f
0x405549: BB 00 E0 FF 7F             mov	$0x7fffe000, %ebx
0x40554e: EB B8                      jmp	0x0000000000405508
0x405550: 41 55                      push	%r13
0x405552: 41 54                      push	%r12
0x405554: 41 89 FC                   mov	%edi, %r12d
0x405557: 55                         push	%rbp
0x405558: 48 89 F5                   mov	%rsi, %rbp
0x40555b: 53                         push	%rbx
0x40555c: 48 89 D3                   mov	%rdx, %rbx
0x40555f: 48 83 EC 08                sub	$0x8, %rsp
0x405563: 0F 1F 44 00 00             nopl	0x0(%rax,%rax,1)
0x405568: 48 89 DA                   mov	%rbx, %rdx
0x40556b: 48 89 EE                   mov	%rbp, %rsi
0x40556e: 44 89 E7                   mov	%r12d, %edi
0x405571: E8 9A C2 FF FF             callq	0x0000000000401810
0x405576: 48 85 C0                   test	%rax, %rax
0x405579: 49 89 C5                   mov	%rax, %r13
0x40557c: 79 11                      jns	0x000000000040558f
0x40557e: E8 9D C1 FF FF             callq	0x0000000000401720
0x405583: 8B 00                      mov	(%rax), %eax
0x405585: 83 F8 04                   cmp	$0x4, %eax
0x405588: 74 DE                      je	0x0000000000405568
0x40558a: 83 F8 16                   cmp	$0x16, %eax
0x40558d: 74 11                      je	0x00000000004055a0
0x40558f: 48 83 C4 08                add	$0x8, %rsp
0x405593: 4C 89 E8                   mov	%r13, %rax
0x405596: 5B                         pop	%rbx
0x405597: 5D                         pop	%rbp
0x405598: 41 5C                      pop	%r12
0x40559a: 41 5D                      pop	%r13
0x40559c: C3                         retq	
0x40559d: 0F 1F 00                   nopl	(%rax)
0x4055a0: 48 81 FB 00 E0 FF 7F       cmp	$0x7fffe000, %rbx
0x4055a7: 76 E6                      jbe	0x000000000040558f
0x4055a9: BB 00 E0 FF 7F             mov	$0x7fffe000, %ebx
0x4055ae: EB B8                      jmp	0x0000000000405568
0x4055b0: 48 89 5C 24 E0             mov	%rbx, -0x20(%rsp)
0x4055b5: 48 89 6C 24 E8             mov	%rbp, -0x18(%rsp)
0x4055ba: 48 89 F0                   mov	%rsi, %rax
0x4055bd: 4C 89 64 24 F0             mov	%r12, -0x10(%rsp)
0x4055c2: 4C 89 6C 24 F8             mov	%r13, -0x8(%rsp)
0x4055c7: 48 81 EC 18 08 00 00       sub	$0x818, %rsp
0x4055ce: 4C 8D 64 24 10             lea	0x10(%rsp), %r12
0x4055d3: 48 8D 74 24 08             lea	0x8(%rsp), %rsi
0x4055d8: 49 89 FD                   mov	%rdi, %r13
0x4055db: 64 48 8B 0C 25 28 00 00    mov	%fs:0x28, %rcx
          00
0x4055e4: 48 89 8C 24 E8 07 00 00    mov	%rcx, 0x7e8(%rsp)
0x4055ec: 31 C9                      xor	%ecx, %ecx
0x4055ee: 4C 89 E7                   mov	%r12, %rdi
0x4055f1: 48 89 D1                   mov	%rdx, %rcx
0x4055f4: 48 89 C2                   mov	%rax, %rdx
0x4055f7: 48 C7 44 24 08 D0 07 00    movq	$0x7d0, 0x8(%rsp)
          00
0x405600: E8 AB 25 00 00             callq	0x0000000000407bb0
0x405605: 48 85 C0                   test	%rax, %rax
0x405608: 48 89 C5                   mov	%rax, %rbp
0x40560b: 48 8B 5C 24 08             mov	0x8(%rsp), %rbx
0x405610: 0F 84 94 00 00 00          je	0x00000000004056aa
0x405616: 4C 89 E9                   mov	%r13, %rcx
0x405619: 48 89 DA                   mov	%rbx, %rdx
0x40561c: BE 01 00 00 00             mov	$0x1, %esi
0x405621: 48 89 C7                   mov	%rax, %rdi
0x405624: E8 97 C1 FF FF             callq	0x00000000004017c0
0x405629: 48 39 C3                   cmp	%rax, %rbx
0x40562c: 77 4A                      ja	0x0000000000405678
0x40562e: 48 81 FB FF FF FF 7F       cmp	$0x7fffffff, %rbx
0x405635: 77 68                      ja	0x000000000040569f
0x405637: 89 D8                      mov	%ebx, %eax
0x405639: 48 8B 94 24 E8 07 00 00    mov	0x7e8(%rsp), %rdx
0x405641: 64 48 33 14 25 28 00 00    xor	%fs:0x28, %rdx
          00
0x40564a: 75 6D                      jne	0x00000000004056b9
0x40564c: 48 8B 9C 24 F8 07 00 00    mov	0x7f8(%rsp), %rbx
0x405654: 48 8B AC 24 00 08 00 00    mov	0x800(%rsp), %rbp
0x40565c: 4C 8B A4 24 08 08 00 00    mov	0x808(%rsp), %r12
0x405664: 4C 8B AC 24 10 08 00 00    mov	0x810(%rsp), %r13
0x40566c: 48 81 C4 18 08 00 00       add	$0x818, %rsp
0x405673: C3                         retq	
0x405674: 0F 1F 40 00                nopl	0x0(%rax)
0x405678: 4C 39 E5                   cmp	%r12, %rbp
0x40567b: B8 FF FF FF FF             mov	$0xffffffff, %eax
0x405680: 74 B7                      je	0x0000000000405639
0x405682: E8 99 C0 FF FF             callq	0x0000000000401720
0x405687: 44 8B 20                   mov	(%rax), %r12d
0x40568a: 48 89 C3                   mov	%rax, %rbx
0x40568d: 48 89 EF                   mov	%rbp, %rdi
0x405690: E8 6B BF FF FF             callq	0x0000000000401600
0x405695: B8 FF FF FF FF             mov	$0xffffffff, %eax
0x40569a: 44 89 23                   mov	%r12d, (%rbx)
0x40569d: EB 9A                      jmp	0x0000000000405639
0x40569f: E8 7C C0 FF FF             callq	0x0000000000401720
0x4056a4: C7 00 4B 00 00 00          movl	$0x4b, (%rax)
0x4056aa: 4C 89 EF                   mov	%r13, %rdi
0x4056ad: E8 CE 01 00 00             callq	0x0000000000405880
0x4056b2: B8 FF FF FF FF             mov	$0xffffffff, %eax
0x4056b7: EB 80                      jmp	0x0000000000405639
0x4056b9: E8 82 C0 FF FF             callq	0x0000000000401740
0x4056be: 90                         nop	
0x4056bf: 90                         nop	
0x4056c0: 48 83 EC 08                sub	$0x8, %rsp
0x4056c4: E8 A7 C0 FF FF             callq	0x0000000000401770
0x4056c9: 48 85 C0                   test	%rax, %rax
0x4056cc: 74 05                      je	0x00000000004056d3
0x4056ce: 48 83 C4 08                add	$0x8, %rsp
0x4056d2: C3                         retq	
0x4056d3: 0F 1F 44 00 00             nopl	0x0(%rax,%rax,1)
0x4056d8: E8 73 E8 FF FF             callq	0x0000000000403f50
0x4056dd: 0F 1F 00                   nopl	(%rax)
0x4056e0: 53                         push	%rbx
0x4056e1: 48 89 F3                   mov	%rsi, %rbx
0x4056e4: E8 E7 C0 FF FF             callq	0x00000000004017d0
0x4056e9: 48 85 C0                   test	%rax, %rax
0x4056ec: 74 02                      je	0x00000000004056f0
0x4056ee: 5B                         pop	%rbx
0x4056ef: C3                         retq	
0x4056f0: 48 85 DB                   test	%rbx, %rbx
0x4056f3: 0F 1F 44 00 00             nopl	0x0(%rax,%rax,1)
0x4056f8: 74 F4                      je	0x00000000004056ee
0x4056fa: 66 0F 1F 44 00 00          nopw	0x0(%rax,%rax,1)
0x405700: E8 4B E8 FF FF             callq	0x0000000000403f50
0x405705: 66 66 2E 0F 1F 84 00 00    nopw	%cs:0x0(%rax,%rax,1)
          00 00 00
0x405710: 48 83 EC 08                sub	$0x8, %rsp
0x405714: 48 85 FF                   test	%rdi, %rdi
0x405717: 48 89 F2                   mov	%rsi, %rdx
0x40571a: 48 8B 36                   mov	(%rsi), %rsi
0x40571d: 74 29                      je	0x0000000000405748
0x40571f: 48 B8 A9 AA AA AA AA AA    mov	$0xaaaaaaaaaaaaaaa9, %rax
          AA AA
0x405729: 48 39 C6                   cmp	%rax, %rsi
0x40572c: 77 32                      ja	0x0000000000405760
0x40572e: 48 8D 46 01                lea	0x1(%rsi), %rax
0x405732: 48 D1 E8                   shr	%rax
0x405735: 48 01 C6                   add	%rax, %rsi
0x405738: 48 89 32                   mov	%rsi, (%rdx)
0x40573b: 48 83 C4 08                add	$0x8, %rsp
0x40573f: E9 9C FF FF FF             jmpq	0x00000000004056e0
0x405744: 0F 1F 40 00                nopl	0x0(%rax)
0x405748: 48 85 F6                   test	%rsi, %rsi
0x40574b: B8 40 00 00 00             mov	$0x40, %eax
0x405750: 48 0F 44 F0                cmove	%rax, %rsi
0x405754: 48 89 32                   mov	%rsi, (%rdx)
0x405757: 48 83 C4 08                add	$0x8, %rsp
0x40575b: E9 80 FF FF FF             jmpq	0x00000000004056e0
0x405760: E8 EB E7 FF FF             callq	0x0000000000403f50
0x405765: 66 66 2E 0F 1F 84 00 00    nopw	%cs:0x0(%rax,%rax,1)
          00 00 00
0x405770: 53                         push	%rbx
0x405771: 48 89 FB                   mov	%rdi, %rbx
0x405774: E8 E7 BD FF FF             callq	0x0000000000401560
0x405779: 48 85 C0                   test	%rax, %rax
0x40577c: 74 02                      je	0x0000000000405780
0x40577e: 5B                         pop	%rbx
0x40577f: C3                         retq	
0x405780: 48 85 DB                   test	%rbx, %rbx
0x405783: 0F 1F 44 00 00             nopl	0x0(%rax,%rax,1)
0x405788: 74 F4                      je	0x000000000040577e
0x40578a: 66 0F 1F 44 00 00          nopw	0x0(%rax,%rax,1)
0x405790: E8 BB E7 FF FF             callq	0x0000000000403f50
0x405795: 66 66 2E 0F 1F 84 00 00    nopw	%cs:0x0(%rax,%rax,1)
          00 00 00
0x4057a0: 48 89 5C 24 F0             mov	%rbx, -0x10(%rsp)
0x4057a5: 48 89 6C 24 F8             mov	%rbp, -0x8(%rsp)
0x4057aa: 48 89 FB                   mov	%rdi, %rbx
0x4057ad: 48 83 EC 18                sub	$0x18, %rsp
0x4057b1: 48 89 F5                   mov	%rsi, %rbp
0x4057b4: 48 89 F7                   mov	%rsi, %rdi
0x4057b7: E8 B4 FF FF FF             callq	0x0000000000405770
0x4057bc: 48 89 EA                   mov	%rbp, %rdx
0x4057bf: 48 89 DE                   mov	%rbx, %rsi
0x4057c2: 48 8B 6C 24 10             mov	0x10(%rsp), %rbp
0x4057c7: 48 8B 5C 24 08             mov	0x8(%rsp), %rbx
0x4057cc: 48 89 C7                   mov	%rax, %rdi
0x4057cf: 48 83 C4 18                add	$0x18, %rsp
0x4057d3: E9 D8 BE FF FF             jmpq	0x00000000004016b0
0x4057d8: 0F 1F 84 00 00 00 00 00    nopl	0x0(%rax,%rax,1)
0x4057e0: 53                         push	%rbx
0x4057e1: 48 89 FB                   mov	%rdi, %rbx
0x4057e4: E8 27 BE FF FF             callq	0x0000000000401610
0x4057e9: 48 89 DF                   mov	%rbx, %rdi
0x4057ec: 48 8D 70 01                lea	0x1(%rax), %rsi
0x4057f0: 5B                         pop	%rbx
0x4057f1: E9 AA FF FF FF             jmpq	0x00000000004057a0
0x4057f6: 66 2E 0F 1F 84 00 00 00    nopw	%cs:0x0(%rax,%rax,1)
          00 00
0x405800: 53                         push	%rbx
0x405801: 48 89 FB                   mov	%rdi, %rbx
0x405804: E8 67 FF FF FF             callq	0x0000000000405770
0x405809: 48 89 DA                   mov	%rbx, %rdx
0x40580c: 31 F6                      xor	%esi, %esi
0x40580e: 48 89 C7                   mov	%rax, %rdi
0x405811: 5B                         pop	%rbx
0x405812: E9 59 BC FF FF             jmpq	0x0000000000401470
0x405817: 90                         nop	
0x405818: 90                         nop	
0x405819: 90                         nop	
0x40581a: 90                         nop	
0x40581b: 90                         nop	
0x40581c: 90                         nop	
0x40581d: 90                         nop	
0x40581e: 90                         nop	
0x40581f: 90                         nop	
0x405820: 31 C0                      xor	%eax, %eax
0x405822: 48 39 F7                   cmp	%rsi, %rdi
0x405825: 75 11                      jne	0x0000000000405838
0x405827: EB 3F                      jmp	0x0000000000405868
0x405829: 0F 1F 80 00 00 00 00       nopl	0x0(%rax)
0x405830: 48 83 C7 01                add	$0x1, %rdi
0x405834: 48 83 C6 01                add	$0x1, %rsi
0x405838: 0F B6 07                   movzbl	(%rdi), %eax
0x40583b: 8D 48 BF                   lea	-0x41(%rax), %ecx
0x40583e: 8D 50 20                   lea	0x20(%rax), %edx
0x405841: 83 F9 19                   cmp	$0x19, %ecx
0x405844: 0F 46 C2                   cmovbe	%edx, %eax
0x405847: 0F B6 16                   movzbl	(%rsi), %edx
0x40584a: 44 8D 42 BF                lea	-0x41(%rdx), %r8d
0x40584e: 8D 4A 20                   lea	0x20(%rdx), %ecx
0x405851: 41 83 F8 19                cmp	$0x19, %r8d
0x405855: 0F 46 D1                   cmovbe	%ecx, %edx
0x405858: 84 C0                      test	%al, %al
0x40585a: 74 14                      je	0x0000000000405870
0x40585c: 38 D0                      cmp	%dl, %al
0x40585e: 74 D0                      je	0x0000000000405830
0x405860: 0F B6 C0                   movzbl	%al, %eax
0x405863: 0F B6 D2                   movzbl	%dl, %edx
0x405866: 29 D0                      sub	%edx, %eax
0x405868: F3 C3                      repz  retq	
0x40586a: 66 0F 1F 44 00 00          nopw	0x0(%rax,%rax,1)
0x405870: 31 C0                      xor	%eax, %eax
0x405872: EB EF                      jmp	0x0000000000405863
0x405874: 90                         nop	
0x405875: 90                         nop	
0x405876: 90                         nop	
0x405877: 90                         nop	
0x405878: 90                         nop	
0x405879: 90                         nop	
0x40587a: 90                         nop	
0x40587b: 90                         nop	
0x40587c: 90                         nop	
0x40587d: 90                         nop	
0x40587e: 90                         nop	
0x40587f: 90                         nop	
0x405880: 83 0F 20                   orl	$0x20, (%rdi)
0x405883: C3                         retq	
0x405884: 90                         nop	
0x405885: 90                         nop	
0x405886: 90                         nop	
0x405887: 90                         nop	
0x405888: 90                         nop	
0x405889: 90                         nop	
0x40588a: 90                         nop	
0x40588b: 90                         nop	
0x40588c: 90                         nop	
0x40588d: 90                         nop	
0x40588e: 90                         nop	
0x40588f: 90                         nop	
0x405890: 41 57                      push	%r15
0x405892: BF 0E 00 00 00             mov	$0xe, %edi
0x405897: 41 56                      push	%r14
0x405899: 41 55                      push	%r13
0x40589b: 41 54                      push	%r12
0x40589d: 55                         push	%rbp
0x40589e: 53                         push	%rbx
0x40589f: 48 81 EC A8 00 00 00       sub	$0xa8, %rsp
0x4058a6: 64 48 8B 04 25 28 00 00    mov	%fs:0x28, %rax
          00
0x4058af: 48 89 84 24 98 00 00 00    mov	%rax, 0x98(%rsp)
0x4058b7: 31 C0                      xor	%eax, %eax
0x4058b9: E8 22 BC FF FF             callq	0x00000000004014e0
0x4058be: 4C 8B 25 3B 7B 20 00       mov	0x207b3b(%rip), %r12	#  0x000000000060d400
0x4058c5: 48 85 C0                   test	%rax, %rax
0x4058c8: 48 89 C3                   mov	%rax, %rbx
0x4058cb: B8 B8 B1 40 00             mov	$0x40b1b8, %eax
0x4058d0: 48 0F 44 D8                cmove	%rax, %rbx
0x4058d4: 4D 85 E4                   test	%r12, %r12
0x4058d7: 4C 89 E2                   mov	%r12, %rdx
0x4058da: 75 30                      jne	0x000000000040590c
0x4058dc: E9 A7 00 00 00             jmpq	0x0000000000405988
0x4058e1: 0F 1F 80 00 00 00 00       nopl	0x0(%rax)
0x4058e8: 48 89 D7                   mov	%rdx, %rdi
0x4058eb: 48 89 54 24 18             mov	%rdx, 0x18(%rsp)
0x4058f0: E8 1B BD FF FF             callq	0x0000000000401610
0x4058f5: 48 8B 54 24 18             mov	0x18(%rsp), %rdx
0x4058fa: 48 8D 6C 02 01             lea	0x1(%rdx,%rax,1), %rbp
0x4058ff: 48 89 EF                   mov	%rbp, %rdi
0x405902: E8 09 BD FF FF             callq	0x0000000000401610
0x405907: 48 8D 54 05 01             lea	0x1(%rbp,%rax,1), %rdx
0x40590c: 0F B6 2A                   movzbl	(%rdx), %ebp
0x40590f: 40 84 ED                   test	%bpl, %bpl
0x405912: 74 3C                      je	0x0000000000405950
0x405914: 48 89 D6                   mov	%rdx, %rsi
0x405917: 48 89 DF                   mov	%rbx, %rdi
0x40591a: 48 89 54 24 18             mov	%rdx, 0x18(%rsp)
0x40591f: E8 2C BE FF FF             callq	0x0000000000401750
0x405924: 85 C0                      test	%eax, %eax
0x405926: 48 8B 54 24 18             mov	0x18(%rsp), %rdx
0x40592b: 74 0C                      je	0x0000000000405939
0x40592d: 40 80 FD 2A                cmp	$0x2a, %bpl
0x405931: 75 B5                      jne	0x00000000004058e8
0x405933: 80 7A 01 00                cmpb	$0x0, 0x1(%rdx)
0x405937: 75 AF                      jne	0x00000000004058e8
0x405939: 48 89 D7                   mov	%rdx, %rdi
0x40593c: 48 89 54 24 18             mov	%rdx, 0x18(%rsp)
0x405941: E8 CA BC FF FF             callq	0x0000000000401610
0x405946: 48 8B 54 24 18             mov	0x18(%rsp), %rdx
0x40594b: 48 8D 5C 02 01             lea	0x1(%rdx,%rax,1), %rbx
0x405950: 80 3B 00                   cmpb	$0x0, (%rbx)
0x405953: B8 83 BA 40 00             mov	$0x40ba83, %eax
0x405958: 48 0F 44 D8                cmove	%rax, %rbx
0x40595c: 48 8B 94 24 98 00 00 00    mov	0x98(%rsp), %rdx
0x405964: 64 48 33 14 25 28 00 00    xor	%fs:0x28, %rdx
          00
0x40596d: 48 89 D8                   mov	%rbx, %rax
0x405970: 0F 85 36 03 00 00          jne	0x0000000000405cac
0x405976: 48 81 C4 A8 00 00 00       add	$0xa8, %rsp
0x40597d: 5B                         pop	%rbx
0x40597e: 5D                         pop	%rbp
0x40597f: 41 5C                      pop	%r12
0x405981: 41 5D                      pop	%r13
0x405983: 41 5E                      pop	%r14
0x405985: 41 5F                      pop	%r15
0x405987: C3                         retq	
0x405988: BF 60 BA 40 00             mov	$0x40ba60, %edi
0x40598d: E8 6E BD FF FF             callq	0x0000000000401700
0x405992: 48 85 C0                   test	%rax, %rax
0x405995: 74 09                      je	0x00000000004059a0
0x405997: 80 38 00                   cmpb	$0x0, (%rax)
0x40599a: 0F 85 8B 02 00 00          jne	0x0000000000405c2b
0x4059a0: B8 07 00 00 00             mov	$0x7, %eax
0x4059a5: BD 08 00 00 00             mov	$0x8, %ebp
0x4059aa: BE 70 BA 40 00             mov	$0x40ba70, %esi
0x4059af: 80 3C 06 2F                cmpb	$0x2f, (%rsi,%rax,1)
0x4059b3: 41 BD 01 00 00 00          mov	$0x1, %r13d
0x4059b9: 41 BE 01 00 00 00          mov	$0x1, %r14d
0x4059bf: 0F 84 4C 02 00 00          je	0x0000000000405c11
0x4059c5: 4E 8D 6C 2D 00             lea	0x0(%rbp,%r13,1), %r13
0x4059ca: 48 89 74 24 18             mov	%rsi, 0x18(%rsp)
0x4059cf: 49 8D 7D 0E                lea	0xe(%r13), %rdi
0x4059d3: E8 88 BB FF FF             callq	0x0000000000401560
0x4059d8: 48 85 C0                   test	%rax, %rax
0x4059db: 49 89 C7                   mov	%rax, %r15
0x4059de: BA B8 B1 40 00             mov	$0x40b1b8, %edx
0x4059e3: 48 8B 74 24 18             mov	0x18(%rsp), %rsi
0x4059e8: 0F 84 17 02 00 00          je	0x0000000000405c05
0x4059ee: 48 89 EA                   mov	%rbp, %rdx
0x4059f1: 48 89 C7                   mov	%rax, %rdi
0x4059f4: E8 B7 BC FF FF             callq	0x00000000004016b0
0x4059f9: 45 85 F6                   test	%r14d, %r14d
0x4059fc: 0F 85 4E 02 00 00          jne	0x0000000000405c50
0x405a02: 4F 8D 2C 2F                lea	(%r15,%r13,1), %r13
0x405a06: 48 B8 63 68 61 72 73 65    mov	$0x2e74657372616863, %rax
          74 2E
0x405a10: BE 6E AF 40 00             mov	$0x40af6e, %esi
0x405a15: 4C 89 FF                   mov	%r15, %rdi
0x405a18: 49 89 45 00                mov	%rax, 0x0(%r13)
0x405a1c: 41 C7 45 08 61 6C 69 61    movl	$0x61696c61, 0x8(%r13)
0x405a24: 66 41 C7 45 0C 73 00       movw	$0x73, 0xc(%r13)
0x405a2b: 45 31 ED                   xor	%r13d, %r13d
0x405a2e: E8 3D BB FF FF             callq	0x0000000000401570
0x405a33: 48 85 C0                   test	%rax, %rax
0x405a36: 48 89 C5                   mov	%rax, %rbp
0x405a39: BA B8 B1 40 00             mov	$0x40b1b8, %edx
0x405a3e: 0F 84 AF 01 00 00          je	0x0000000000405bf3
0x405a44: 48 8D 54 24 20             lea	0x20(%rsp), %rdx
0x405a49: 4C 8D 74 24 60             lea	0x60(%rsp), %r14
0x405a4e: 48 89 54 24 08             mov	%rdx, 0x8(%rsp)
0x405a53: 0F 1F 44 00 00             nopl	0x0(%rax,%rax,1)
0x405a58: 48 8B 45 08                mov	0x8(%rbp), %rax
0x405a5c: 48 3B 45 10                cmp	0x10(%rbp), %rax
0x405a60: 0F 83 58 02 00 00          jae	0x0000000000405cbe
0x405a66: 0F B6 38                   movzbl	(%rax), %edi
0x405a69: 48 83 C0 01                add	$0x1, %rax
0x405a6d: 48 89 45 08                mov	%rax, 0x8(%rbp)
0x405a71: 83 FF 20                   cmp	$0x20, %edi
0x405a74: 0F 84 A6 01 00 00          je	0x0000000000405c20
0x405a7a: 83 FF 0A                   cmp	$0xa, %edi
0x405a7d: 0F 84 9D 01 00 00          je	0x0000000000405c20
0x405a83: 83 FF 09                   cmp	$0x9, %edi
0x405a86: 0F 84 94 01 00 00          je	0x0000000000405c20
0x405a8c: 83 FF 23                   cmp	$0x23, %edi
0x405a8f: 90                         nop	
0x405a90: 0F 84 1A 01 00 00          je	0x0000000000405bb0
0x405a96: 48 89 EE                   mov	%rbp, %rsi
0x405a99: E8 42 BB FF FF             callq	0x00000000004015e0
0x405a9e: 48 8D 4C 24 20             lea	0x20(%rsp), %rcx
0x405aa3: 31 C0                      xor	%eax, %eax
0x405aa5: 4C 89 F2                   mov	%r14, %rdx
0x405aa8: BE 79 BA 40 00             mov	$0x40ba79, %esi
0x405aad: 48 89 EF                   mov	%rbp, %rdi
0x405ab0: E8 DB BC FF FF             callq	0x0000000000401790
0x405ab5: 83 F8 01                   cmp	$0x1, %eax
0x405ab8: 0F 8E 15 01 00 00          jle	0x0000000000405bd3
0x405abe: 4C 89 F1                   mov	%r14, %rcx
0x405ac1: 8B 11                      mov	(%rcx), %edx
0x405ac3: 48 83 C1 04                add	$0x4, %rcx
0x405ac7: 8D 82 FF FE FE FE          lea	-0x1010101(%rdx), %eax
0x405acd: F7 D2                      not	%edx
0x405acf: 21 D0                      and	%edx, %eax
0x405ad1: 25 80 80 80 80             and	$0x80808080, %eax
0x405ad6: 74 E9                      je	0x0000000000405ac1
0x405ad8: 89 C2                      mov	%eax, %edx
0x405ada: 4C 8D 44 24 20             lea	0x20(%rsp), %r8
0x405adf: C1 EA 10                   shr	$0x10, %edx
0x405ae2: A9 80 80 00 00             test	$0x8080, %eax
0x405ae7: 0F 44 C2                   cmove	%edx, %eax
0x405aea: 48 8D 51 02                lea	0x2(%rcx), %rdx
0x405aee: 48 0F 44 CA                cmove	%rdx, %rcx
0x405af2: 00 C0                      add	%al, %al
0x405af4: 48 83 D9 03                sbb	$0x3, %rcx
0x405af8: 4C 29 F1                   sub	%r14, %rcx
0x405afb: 41 8B 10                   mov	(%r8), %edx
0x405afe: 49 83 C0 04                add	$0x4, %r8
0x405b02: 8D 82 FF FE FE FE          lea	-0x1010101(%rdx), %eax
0x405b08: F7 D2                      not	%edx
0x405b0a: 21 D0                      and	%edx, %eax
0x405b0c: 25 80 80 80 80             and	$0x80808080, %eax
0x405b11: 74 E8                      je	0x0000000000405afb
0x405b13: 89 C2                      mov	%eax, %edx
0x405b15: C1 EA 10                   shr	$0x10, %edx
0x405b18: A9 80 80 00 00             test	$0x8080, %eax
0x405b1d: 0F 44 C2                   cmove	%edx, %eax
0x405b20: 49 8D 50 02                lea	0x2(%r8), %rdx
0x405b24: 4C 0F 44 C2                cmove	%rdx, %r8
0x405b28: 00 C0                      add	%al, %al
0x405b2a: 49 83 D8 03                sbb	$0x3, %r8
0x405b2e: 4C 2B 44 24 08             sub	0x8(%rsp), %r8
0x405b33: 4D 85 ED                   test	%r13, %r13
0x405b36: 0F 85 40 01 00 00          jne	0x0000000000405c7c
0x405b3c: 4A 8D 04 01                lea	(%rcx,%r8,1), %rax
0x405b40: 48 89 4C 24 18             mov	%rcx, 0x18(%rsp)
0x405b45: 4C 89 44 24 10             mov	%r8, 0x10(%rsp)
0x405b4a: 48 8D 78 03                lea	0x3(%rax), %rdi
0x405b4e: 4C 8D 68 02                lea	0x2(%rax), %r13
0x405b52: E8 09 BA FF FF             callq	0x0000000000401560
0x405b57: 48 8B 4C 24 18             mov	0x18(%rsp), %rcx
0x405b5c: 4C 8B 44 24 10             mov	0x10(%rsp), %r8
0x405b61: 48 89 C2                   mov	%rax, %rdx
0x405b64: 48 85 D2                   test	%rdx, %rdx
0x405b67: 0F 84 ED 00 00 00          je	0x0000000000405c5a
0x405b6d: 4D 89 EC                   mov	%r13, %r12
0x405b70: 48 C7 C0 FE FF FF FF       mov	$0xfffffffffffffffe, %rax
0x405b77: 4C 89 F6                   mov	%r14, %rsi
0x405b7a: 4D 29 C4                   sub	%r8, %r12
0x405b7d: 48 29 C8                   sub	%rcx, %rax
0x405b80: 48 89 54 24 18             mov	%rdx, 0x18(%rsp)
0x405b85: 4A 8D 3C 20                lea	(%rax,%r12,1), %rdi
0x405b89: 48 8D 3C 3A                lea	(%rdx,%rdi,1), %rdi
0x405b8d: E8 CE BB FF FF             callq	0x0000000000401760
0x405b92: 48 8B 54 24 18             mov	0x18(%rsp), %rdx
0x405b97: 48 8D 74 24 20             lea	0x20(%rsp), %rsi
0x405b9c: 4A 8D 7C 22 FF             lea	-0x1(%rdx,%r12,1), %rdi
0x405ba1: E8 BA BB FF FF             callq	0x0000000000401760
0x405ba6: 48 8B 54 24 18             mov	0x18(%rsp), %rdx
0x405bab: EB 76                      jmp	0x0000000000405c23
0x405bad: 0F 1F 00                   nopl	(%rax)
0x405bb0: 48 8B 55 08                mov	0x8(%rbp), %rdx
0x405bb4: 48 3B 55 10                cmp	0x10(%rbp), %rdx
0x405bb8: 0F 83 F3 00 00 00          jae	0x0000000000405cb1
0x405bbe: 0F B6 02                   movzbl	(%rdx), %eax
0x405bc1: 48 83 C2 01                add	$0x1, %rdx
0x405bc5: 48 89 55 08                mov	%rdx, 0x8(%rbp)
0x405bc9: 83 F8 0A                   cmp	$0xa, %eax
0x405bcc: 74 52                      je	0x0000000000405c20
0x405bce: 83 F8 FF                   cmp	$0xffffffffffffffff, %eax
0x405bd1: 75 DD                      jne	0x0000000000405bb0
0x405bd3: 48 89 EF                   mov	%rbp, %rdi
0x405bd6: 4C 89 64 24 18             mov	%r12, 0x18(%rsp)
0x405bdb: E8 A0 BB FF FF             callq	0x0000000000401780
0x405be0: 4D 85 ED                   test	%r13, %r13
0x405be3: 48 8B 54 24 18             mov	0x18(%rsp), %rdx
0x405be8: 0F 84 84 00 00 00          je	0x0000000000405c72
0x405bee: 42 C6 04 2A 00             movb	$0x0, (%rdx,%r13,1)
0x405bf3: 4C 89 FF                   mov	%r15, %rdi
0x405bf6: 48 89 54 24 18             mov	%rdx, 0x18(%rsp)
0x405bfb: E8 00 BA FF FF             callq	0x0000000000401600
0x405c00: 48 8B 54 24 18             mov	0x18(%rsp), %rdx
0x405c05: 48 89 15 F4 77 20 00       mov	%rdx, 0x2077f4(%rip)	#  0x000000000060d400
0x405c0c: E9 FB FC FF FF             jmpq	0x000000000040590c
0x405c11: 45 31 ED                   xor	%r13d, %r13d
0x405c14: 45 31 F6                   xor	%r14d, %r14d
0x405c17: E9 A9 FD FF FF             jmpq	0x00000000004059c5
0x405c1c: 0F 1F 40 00                nopl	0x0(%rax)
0x405c20: 4C 89 E2                   mov	%r12, %rdx
0x405c23: 49 89 D4                   mov	%rdx, %r12
0x405c26: E9 2D FE FF FF             jmpq	0x0000000000405a58
0x405c2b: 48 89 C7                   mov	%rax, %rdi
0x405c2e: 48 89 44 24 18             mov	%rax, 0x18(%rsp)
0x405c33: E8 D8 B9 FF FF             callq	0x0000000000401610
0x405c38: 48 85 C0                   test	%rax, %rax
0x405c3b: 48 89 C5                   mov	%rax, %rbp
0x405c3e: 48 8B 74 24 18             mov	0x18(%rsp), %rsi
0x405c43: 74 CC                      je	0x0000000000405c11
0x405c45: 48 8D 40 FF                lea	-0x1(%rax), %rax
0x405c49: E9 61 FD FF FF             jmpq	0x00000000004059af
0x405c4e: 66 90                      xchg	%ax, %ax
0x405c50: 41 C6 04 2F 2F             movb	$0x2f, (%r15,%rbp,1)
0x405c55: E9 A8 FD FF FF             jmpq	0x0000000000405a02
0x405c5a: 4D 85 E4                   test	%r12, %r12
0x405c5d: 0F 1F 00                   nopl	(%rax)
0x405c60: 74 08                      je	0x0000000000405c6a
0x405c62: 4C 89 E7                   mov	%r12, %rdi
0x405c65: E8 96 B9 FF FF             callq	0x0000000000401600
0x405c6a: 48 89 EF                   mov	%rbp, %rdi
0x405c6d: E8 0E BB FF FF             callq	0x0000000000401780
0x405c72: BA B8 B1 40 00             mov	$0x40b1b8, %edx
0x405c77: E9 77 FF FF FF             jmpq	0x0000000000405bf3
0x405c7c: 4D 8D 6C 0D 02             lea	0x2(%r13,%rcx,1), %r13
0x405c81: 4C 89 E7                   mov	%r12, %rdi
0x405c84: 48 89 4C 24 18             mov	%rcx, 0x18(%rsp)
0x405c89: 4C 89 44 24 10             mov	%r8, 0x10(%rsp)
0x405c8e: 4D 01 C5                   add	%r8, %r13
0x405c91: 49 8D 75 01                lea	0x1(%r13), %rsi
0x405c95: E8 36 BB FF FF             callq	0x00000000004017d0
0x405c9a: 4C 8B 44 24 10             mov	0x10(%rsp), %r8
0x405c9f: 48 89 C2                   mov	%rax, %rdx
0x405ca2: 48 8B 4C 24 18             mov	0x18(%rsp), %rcx
0x405ca7: E9 B8 FE FF FF             jmpq	0x0000000000405b64
0x405cac: E8 8F BA FF FF             callq	0x0000000000401740
0x405cb1: 48 89 EF                   mov	%rbp, %rdi
0x405cb4: E8 D7 B8 FF FF             callq	0x0000000000401590
0x405cb9: E9 0B FF FF FF             jmpq	0x0000000000405bc9
0x405cbe: 48 89 EF                   mov	%rbp, %rdi
0x405cc1: E8 CA B8 FF FF             callq	0x0000000000401590
0x405cc6: 83 F8 FF                   cmp	$0xffffffffffffffff, %eax
0x405cc9: 89 C7                      mov	%eax, %edi
0x405ccb: 0F 84 02 FF FF FF          je	0x0000000000405bd3
0x405cd1: E9 9B FD FF FF             jmpq	0x0000000000405a71
0x405cd6: 90                         nop	
0x405cd7: 90                         nop	
0x405cd8: 90                         nop	
0x405cd9: 90                         nop	
0x405cda: 90                         nop	
0x405cdb: 90                         nop	
0x405cdc: 90                         nop	
0x405cdd: 90                         nop	
0x405cde: 90                         nop	
0x405cdf: 90                         nop	
0x405ce0: 55                         push	%rbp
0x405ce1: 53                         push	%rbx
0x405ce2: 48 89 FB                   mov	%rdi, %rbx
0x405ce5: 48 83 EC 08                sub	$0x8, %rsp
0x405ce9: 80 7F 0C 00                cmpb	$0x0, 0xc(%rdi)
0x405ced: 75 3A                      jne	0x0000000000405d29
0x405cef: 80 3F 00                   cmpb	$0x0, (%rdi)
0x405cf2: 48 8D 6F 04                lea	0x4(%rdi), %rbp
0x405cf6: 75 4F                      jne	0x0000000000405d47
0x405cf8: 48 8B 57 10                mov	0x10(%rdi), %rdx
0x405cfc: 0F B6 02                   movzbl	(%rdx), %eax
0x405cff: 89 C1                      mov	%eax, %ecx
0x405d01: C0 E9 05                   shr	$0x5, %cl
0x405d04: 0F B6 C9                   movzbl	%cl, %ecx
0x405d07: 8B 0C 8D A0 BA 40 00       mov	0x40baa0(,%rcx,4), %ecx
0x405d0e: 0F A3 C1                   bt	%eax, %ecx
0x405d11: 73 1D                      jae	0x0000000000405d30
0x405d13: 48 C7 47 18 01 00 00 00    movq	$0x1, 0x18(%rdi)
0x405d1b: 0F BE 02                   movsbl	(%rdx), %eax
0x405d1e: C6 47 20 01                movb	$0x1, 0x20(%rdi)
0x405d22: 89 47 24                   mov	%eax, 0x24(%rdi)
0x405d25: C6 43 0C 01                movb	$0x1, 0xc(%rbx)
0x405d29: 48 83 C4 08                add	$0x8, %rsp
0x405d2d: 5B                         pop	%rbx
0x405d2e: 5D                         pop	%rbp
0x405d2f: C3                         retq	
0x405d30: 48 8D 6F 04                lea	0x4(%rdi), %rbp
0x405d34: 48 89 EF                   mov	%rbp, %rdi
0x405d37: E8 D4 B9 FF FF             callq	0x0000000000401710
0x405d3c: 85 C0                      test	%eax, %eax
0x405d3e: 0F 84 AA 00 00 00          je	0x0000000000405dee
0x405d44: C6 03 01                   movb	$0x1, (%rbx)
0x405d47: E8 D4 B8 FF FF             callq	0x0000000000401620
0x405d4c: 48 8B 7B 10                mov	0x10(%rbx), %rdi
0x405d50: 48 89 C6                   mov	%rax, %rsi
0x405d53: E8 58 D9 FF FF             callq	0x00000000004036b0
0x405d58: 48 8B 73 10                mov	0x10(%rbx), %rsi
0x405d5c: 48 8D 7B 24                lea	0x24(%rbx), %rdi
0x405d60: 48 89 E9                   mov	%rbp, %rcx
0x405d63: 48 89 C2                   mov	%rax, %rdx
0x405d66: E8 15 B7 FF FF             callq	0x0000000000401480
0x405d6b: 48 83 F8 FF                cmp	$0xffffffffffffffff, %rax
0x405d6f: 48 89 43 18                mov	%rax, 0x18(%rbx)
0x405d73: 74 4B                      je	0x0000000000405dc0
0x405d75: 48 83 F8 FE                cmp	$0xfffffffffffffffe, %rax
0x405d79: 74 5D                      je	0x0000000000405dd8
0x405d7b: 48 85 C0                   test	%rax, %rax
0x405d7e: 66 90                      xchg	%ax, %ax
0x405d80: 75 1C                      jne	0x0000000000405d9e
0x405d82: 48 8B 43 10                mov	0x10(%rbx), %rax
0x405d86: 48 C7 43 18 01 00 00 00    movq	$0x1, 0x18(%rbx)
0x405d8e: 80 38 00                   cmpb	$0x0, (%rax)
0x405d91: 0F 85 89 00 00 00          jne	0x0000000000405e20
0x405d97: 8B 43 24                   mov	0x24(%rbx), %eax
0x405d9a: 85 C0                      test	%eax, %eax
0x405d9c: 75 69                      jne	0x0000000000405e07
0x405d9e: C6 43 20 01                movb	$0x1, 0x20(%rbx)
0x405da2: 48 89 EF                   mov	%rbp, %rdi
0x405da5: E8 66 B9 FF FF             callq	0x0000000000401710
0x405daa: 85 C0                      test	%eax, %eax
0x405dac: 0F 84 73 FF FF FF          je	0x0000000000405d25
0x405db2: C6 03 00                   movb	$0x0, (%rbx)
0x405db5: E9 6B FF FF FF             jmpq	0x0000000000405d25
0x405dba: 66 0F 1F 44 00 00          nopw	0x0(%rax,%rax,1)
0x405dc0: 48 C7 43 18 01 00 00 00    movq	$0x1, 0x18(%rbx)
0x405dc8: C6 43 20 00                movb	$0x0, 0x20(%rbx)
0x405dcc: E9 54 FF FF FF             jmpq	0x0000000000405d25
0x405dd1: 0F 1F 80 00 00 00 00       nopl	0x0(%rax)
0x405dd8: 48 8B 7B 10                mov	0x10(%rbx), %rdi
0x405ddc: E8 2F B8 FF FF             callq	0x0000000000401610
0x405de1: C6 43 20 00                movb	$0x0, 0x20(%rbx)
0x405de5: 48 89 43 18                mov	%rax, 0x18(%rbx)
0x405de9: E9 37 FF FF FF             jmpq	0x0000000000405d25
0x405dee: B9 C0 BA 40 00             mov	$0x40bac0, %ecx
0x405df3: BA 8E 00 00 00             mov	$0x8e, %edx
0x405df8: BE 18 B1 40 00             mov	$0x40b118, %esi
0x405dfd: BF 22 B1 40 00             mov	$0x40b122, %edi
0x405e02: E8 19 B7 FF FF             callq	0x0000000000401520
0x405e07: B9 C0 BA 40 00             mov	$0x40bac0, %ecx
0x405e0c: BA AB 00 00 00             mov	$0xab, %edx
0x405e11: BE 18 B1 40 00             mov	$0x40b118, %esi
0x405e16: BF 50 B1 40 00             mov	$0x40b150, %edi
0x405e1b: E8 00 B7 FF FF             callq	0x0000000000401520
0x405e20: B9 C0 BA 40 00             mov	$0x40bac0, %ecx
0x405e25: BA AA 00 00 00             mov	$0xaa, %edx
0x405e2a: BE 18 B1 40 00             mov	$0x40b118, %esi
0x405e2f: BF 39 B1 40 00             mov	$0x40b139, %edi
0x405e34: E8 E7 B6 FF FF             callq	0x0000000000401520
0x405e39: 0F 1F 80 00 00 00 00       nopl	0x0(%rax)
0x405e40: 55                         push	%rbp
0x405e41: 48 89 E5                   mov	%rsp, %rbp
0x405e44: 41 56                      push	%r14
0x405e46: 49 89 D6                   mov	%rdx, %r14
0x405e49: 41 55                      push	%r13
0x405e4b: 41 54                      push	%r12
0x405e4d: 49 89 F4                   mov	%rsi, %r12
0x405e50: 53                         push	%rbx
0x405e51: 48 89 FB                   mov	%rdi, %rbx
0x405e54: 48 89 F7                   mov	%rsi, %rdi
0x405e57: 48 83 EC 10                sub	$0x10, %rsp
0x405e5b: 64 48 8B 04 25 28 00 00    mov	%fs:0x28, %rax
          00
0x405e64: 48 89 45 D8                mov	%rax, -0x28(%rbp)
0x405e68: 31 C0                      xor	%eax, %eax
0x405e6a: E8 A1 B7 FF FF             callq	0x0000000000401610
0x405e6f: 49 89 C5                   mov	%rax, %r13
0x405e72: 48 B8 FF FF FF FF FF FF    mov	$0x1fffffffffffffff, %rax
          FF 1F
0x405e7c: 49 39 C5                   cmp	%rax, %r13
0x405e7f: 0F 87 34 01 00 00          ja	0x0000000000405fb9
0x405e85: 4A 8D 3C ED 00 00 00 00    lea	0x0(,%r13,8), %rdi
0x405e8d: 48 81 FF AF 0F 00 00       cmp	$0xfaf, %rdi
0x405e94: 0F 86 BD 00 00 00          jbe	0x0000000000405f57
0x405e9a: E8 61 39 00 00             callq	0x0000000000409800
0x405e9f: 48 89 C7                   mov	%rax, %rdi
0x405ea2: 48 85 FF                   test	%rdi, %rdi
0x405ea5: 0F 84 0E 01 00 00          je	0x0000000000405fb9
0x405eab: 49 83 FD 02                cmp	$0x2, %r13
0x405eaf: 48 C7 47 08 01 00 00 00    movq	$0x1, 0x8(%rdi)
0x405eb7: 76 41                      jbe	0x0000000000405efa
0x405eb9: 31 D2                      xor	%edx, %edx
0x405ebb: B8 02 00 00 00             mov	$0x2, %eax
0x405ec0: 41 0F B6 4C 04 FF          movzbl	-0x1(%r12,%rax,1), %ecx
0x405ec6: 41 3A 0C 14                cmp	(%r12,%rdx,1), %cl
0x405eca: 75 1A                      jne	0x0000000000405ee6
0x405ecc: E9 BF 00 00 00             jmpq	0x0000000000405f90
0x405ed1: 0F 1F 80 00 00 00 00       nopl	0x0(%rax)
0x405ed8: 48 2B 14 D7                sub	(%rdi,%rdx,8), %rdx
0x405edc: 41 3A 0C 14                cmp	(%r12,%rdx,1), %cl
0x405ee0: 0F 84 AA 00 00 00          je	0x0000000000405f90
0x405ee6: 48 85 D2                   test	%rdx, %rdx
0x405ee9: 75 ED                      jne	0x0000000000405ed8
0x405eeb: 48 89 04 C7                mov	%rax, (%rdi,%rax,8)
0x405eef: 31 D2                      xor	%edx, %edx
0x405ef1: 48 83 C0 01                add	$0x1, %rax
0x405ef5: 4C 39 E8                   cmp	%r13, %rax
0x405ef8: 75 C6                      jne	0x0000000000405ec0
0x405efa: 49 C7 06 00 00 00 00       movq	$0x0, (%r14)
0x405f01: 0F B6 13                   movzbl	(%rbx), %edx
0x405f04: 48 89 D9                   mov	%rbx, %rcx
0x405f07: 31 C0                      xor	%eax, %eax
0x405f09: 0F 1F 80 00 00 00 00       nopl	0x0(%rax)
0x405f10: 84 D2                      test	%dl, %dl
0x405f12: 74 1D                      je	0x0000000000405f31
0x405f14: 41 38 14 04                cmp	%dl, (%r12,%rax,1)
0x405f18: 0F 84 8A 00 00 00          je	0x0000000000405fa8
0x405f1e: 48 85 C0                   test	%rax, %rax
0x405f21: 74 5D                      je	0x0000000000405f80
0x405f23: 48 8B 34 C7                mov	(%rdi,%rax,8), %rsi
0x405f27: 48 01 F1                   add	%rsi, %rcx
0x405f2a: 48 29 F0                   sub	%rsi, %rax
0x405f2d: 84 D2                      test	%dl, %dl
0x405f2f: 75 E3                      jne	0x0000000000405f14
0x405f31: E8 4A 38 00 00             callq	0x0000000000409780
0x405f36: B8 01 00 00 00             mov	$0x1, %eax
0x405f3b: 48 8B 55 D8                mov	-0x28(%rbp), %rdx
0x405f3f: 64 48 33 14 25 28 00 00    xor	%fs:0x28, %rdx
          00
0x405f48: 75 76                      jne	0x0000000000405fc0
0x405f4a: 48 8D 65 E0                lea	-0x20(%rbp), %rsp
0x405f4e: 5B                         pop	%rbx
0x405f4f: 41 5C                      pop	%r12
0x405f51: 41 5D                      pop	%r13
0x405f53: 41 5E                      pop	%r14
0x405f55: C9                         leaveq	
0x405f56: C3                         retq	
0x405f57: 4A 8D 04 ED 2E 00 00 00    lea	0x2e(,%r13,8), %rax
0x405f5f: 48 83 E0 F0                and	$0xfffffffffffffff0, %rax
0x405f63: 48 29 C4                   sub	%rax, %rsp
0x405f66: 48 8D 7C 24 0F             lea	0xf(%rsp), %rdi
0x405f6b: 48 83 E7 F0                and	$0xfffffffffffffff0, %rdi
0x405f6f: 48 83 C7 10                add	$0x10, %rdi
0x405f73: E9 2A FF FF FF             jmpq	0x0000000000405ea2
0x405f78: 0F 1F 84 00 00 00 00 00    nopl	0x0(%rax,%rax,1)
0x405f80: 48 83 C1 01                add	$0x1, %rcx
0x405f84: 48 83 C3 01                add	$0x1, %rbx
0x405f88: 0F B6 13                   movzbl	(%rbx), %edx
0x405f8b: EB 83                      jmp	0x0000000000405f10
0x405f8d: 0F 1F 00                   nopl	(%rax)
0x405f90: 48 83 C2 01                add	$0x1, %rdx
0x405f94: 48 89 C1                   mov	%rax, %rcx
0x405f97: 48 29 D1                   sub	%rdx, %rcx
0x405f9a: 48 89 0C C7                mov	%rcx, (%rdi,%rax,8)
0x405f9e: E9 4E FF FF FF             jmpq	0x0000000000405ef1
0x405fa3: 0F 1F 44 00 00             nopl	0x0(%rax,%rax,1)
0x405fa8: 48 83 C0 01                add	$0x1, %rax
0x405fac: 4C 39 E8                   cmp	%r13, %rax
0x405faf: 75 D3                      jne	0x0000000000405f84
0x405fb1: 49 89 0E                   mov	%rcx, (%r14)
0x405fb4: E9 78 FF FF FF             jmpq	0x0000000000405f31
0x405fb9: 31 C0                      xor	%eax, %eax
0x405fbb: E9 7B FF FF FF             jmpq	0x0000000000405f3b
0x405fc0: E8 7B B7 FF FF             callq	0x0000000000401740
0x405fc5: 66 66 2E 0F 1F 84 00 00    nopw	%cs:0x0(%rax,%rax,1)
          00 00 00
0x405fd0: 55                         push	%rbp
0x405fd1: 48 89 E5                   mov	%rsp, %rbp
0x405fd4: 41 57                      push	%r15
0x405fd6: 41 56                      push	%r14
0x405fd8: 41 55                      push	%r13
0x405fda: 41 54                      push	%r12
0x405fdc: 53                         push	%rbx
0x405fdd: 48 89 F3                   mov	%rsi, %rbx
0x405fe0: 48 81 EC 08 01 00 00       sub	$0x108, %rsp
0x405fe7: 48 89 BD E8 FE FF FF       mov	%rdi, -0x118(%rbp)
0x405fee: 48 89 F7                   mov	%rsi, %rdi
0x405ff1: 64 48 8B 04 25 28 00 00    mov	%fs:0x28, %rax
          00
0x405ffa: 48 89 45 C8                mov	%rax, -0x38(%rbp)
0x405ffe: 31 C0                      xor	%eax, %eax
0x406000: 48 89 95 E0 FE FF FF       mov	%rdx, -0x120(%rbp)
0x406007: E8 64 38 00 00             callq	0x0000000000409870
0x40600c: 48 89 85 F0 FE FF FF       mov	%rax, -0x110(%rbp)
0x406013: 48 B8 92 24 49 92 24 49    mov	$0x492492492492492, %rax
          92 04
0x40601d: 48 39 85 F0 FE FF FF       cmp	%rax, -0x110(%rbp)
0x406024: 76 24                      jbe	0x000000000040604a
0x406026: 31 C0                      xor	%eax, %eax
0x406028: 48 8B 55 C8                mov	-0x38(%rbp), %rdx
0x40602c: 64 48 33 14 25 28 00 00    xor	%fs:0x28, %rdx
          00
0x406035: 0F 85 0E 09 00 00          jne	0x0000000000406949
0x40603b: 48 8D 65 D8                lea	-0x28(%rbp), %rsp
0x40603f: 5B                         pop	%rbx
0x406040: 41 5C                      pop	%r12
0x406042: 41 5D                      pop	%r13
0x406044: 41 5E                      pop	%r14
0x406046: 41 5F                      pop	%r15
0x406048: C9                         leaveq	
0x406049: C3                         retq	
0x40604a: 48 8B 85 F0 FE FF FF       mov	-0x110(%rbp), %rax
0x406051: 48 8B BD F0 FE FF FF       mov	-0x110(%rbp), %rdi
0x406058: 48 C1 E0 03                shl	$0x3, %rax
0x40605c: 48 C1 E7 06                shl	$0x6, %rdi
0x406060: 48 29 C7                   sub	%rax, %rdi
0x406063: 48 81 FF AF 0F 00 00       cmp	$0xfaf, %rdi
0x40606a: 0F 86 F3 02 00 00          jbe	0x0000000000406363
0x406070: E8 8B 37 00 00             callq	0x0000000000409800
0x406075: 49 89 C6                   mov	%rax, %r14
0x406078: 4D 85 F6                   test	%r14, %r14
0x40607b: 74 A9                      je	0x0000000000406026
0x40607d: 4C 8D 6D 80                lea	-0x80(%rbp), %r13
0x406081: 48 89 5D 90                mov	%rbx, -0x70(%rbp)
0x406085: C6 45 80 00                movb	$0x0, -0x80(%rbp)
0x406089: 48 C7 45 84 00 00 00 00    movq	$0x0, -0x7c(%rbp)
0x406091: C6 45 8C 00                movb	$0x0, -0x74(%rbp)
0x406095: 4C 89 F3                   mov	%r14, %rbx
0x406098: 49 8D 55 04                lea	0x4(%r13), %rdx
0x40609c: 4D 89 F4                   mov	%r14, %r12
0x40609f: 4D 8D 7D 28                lea	0x28(%r13), %r15
0x4060a3: 48 89 95 F8 FE FF FF       mov	%rdx, -0x108(%rbp)
0x4060aa: EB 43                      jmp	0x00000000004060ef
0x4060ac: 0F 1F 40 00                nopl	0x0(%rax)
0x4060b0: 48 8B 45 90                mov	-0x70(%rbp), %rax
0x4060b4: 4C 39 F8                   cmp	%r15, %rax
0x4060b7: 0F 84 FC 07 00 00          je	0x00000000004068b9
0x4060bd: 49 89 04 24                mov	%rax, (%r12)
0x4060c1: 48 8B 45 98                mov	-0x68(%rbp), %rax
0x4060c5: 49 89 44 24 08             mov	%rax, 0x8(%r12)
0x4060ca: 0F B6 45 A0                movzbl	-0x60(%rbp), %eax
0x4060ce: 84 C0                      test	%al, %al
0x4060d0: 41 88 44 24 10             mov	%al, 0x10(%r12)
0x4060d5: 74 08                      je	0x00000000004060df
0x4060d7: 8B 45 A4                   mov	-0x5c(%rbp), %eax
0x4060da: 41 89 44 24 14             mov	%eax, 0x14(%r12)
0x4060df: 48 8B 45 98                mov	-0x68(%rbp), %rax
0x4060e3: 48 01 45 90                add	%rax, -0x70(%rbp)
0x4060e7: 49 83 C4 30                add	$0x30, %r12
0x4060eb: C6 45 8C 00                movb	$0x0, -0x74(%rbp)
0x4060ef: 80 7D 80 00                cmpb	$0x0, -0x80(%rbp)
0x4060f3: 0F 85 7F 05 00 00          jne	0x0000000000406678
0x4060f9: 48 8B 55 90                mov	-0x70(%rbp), %rdx
0x4060fd: 0F B6 02                   movzbl	(%rdx), %eax
0x406100: 89 C1                      mov	%eax, %ecx
0x406102: C0 E9 05                   shr	$0x5, %cl
0x406105: 0F B6 C9                   movzbl	%cl, %ecx
0x406108: 8B 0C 8D A0 BA 40 00       mov	0x40baa0(,%rcx,4), %ecx
0x40610f: 0F A3 C1                   bt	%eax, %ecx
0x406112: 0F 83 48 05 00 00          jae	0x0000000000406660
0x406118: 48 C7 45 98 01 00 00 00    movq	$0x1, -0x68(%rbp)
0x406120: 0F BE 02                   movsbl	(%rdx), %eax
0x406123: C6 45 A0 01                movb	$0x1, -0x60(%rbp)
0x406127: 89 45 A4                   mov	%eax, -0x5c(%rbp)
0x40612a: 80 7D A0 00                cmpb	$0x0, -0x60(%rbp)
0x40612e: C6 45 8C 01                movb	$0x1, -0x74(%rbp)
0x406132: 0F 84 78 FF FF FF          je	0x00000000004060b0
0x406138: 44 8B 55 A4                mov	-0x5c(%rbp), %r10d
0x40613c: 45 85 D2                   test	%r10d, %r10d
0x40613f: 0F 85 6B FF FF FF          jne	0x00000000004060b0
0x406145: 48 8B 85 F0 FE FF FF       mov	-0x110(%rbp), %rax
0x40614c: 41 B8 02 00 00 00          mov	$0x2, %r8d
0x406152: 4C 8D 2C 40                lea	(%rax,%rax,2), %r13
0x406156: 31 C0                      xor	%eax, %eax
0x406158: 49 C1 E5 04                shl	$0x4, %r13
0x40615c: 48 83 BD F0 FE FF FF 02    cmpq	$0x2, -0x110(%rbp)
0x406164: 4F 8D 2C 2E                lea	(%r14,%r13,1), %r13
0x406168: 49 C7 45 08 01 00 00 00    movq	$0x1, 0x8(%r13)
0x406170: 0F 86 88 00 00 00          jbe	0x00000000004061fe
0x406176: 0F B6 53 40                movzbl	0x40(%rbx), %edx
0x40617a: EB 31                      jmp	0x00000000004061ad
0x40617c: 0F 1F 40 00                nopl	0x0(%rax)
0x406180: 48 8D 3C 40                lea	(%rax,%rax,2), %rdi
0x406184: 48 C1 E7 04                shl	$0x4, %rdi
0x406188: 49 8D 3C 3E                lea	(%r14,%rdi,1), %rdi
0x40618c: 80 7F 10 00                cmpb	$0x0, 0x10(%rdi)
0x406190: 74 2B                      je	0x00000000004061bd
0x406192: 8B 4B 44                   mov	0x44(%rbx), %ecx
0x406195: 3B 4F 14                   cmp	0x14(%rdi), %ecx
0x406198: 0F 94 C1                   sete	%cl
0x40619b: 84 C9                      test	%cl, %cl
0x40619d: 75 3B                      jne	0x00000000004061da
0x40619f: 48 85 C0                   test	%rax, %rax
0x4061a2: 0F 84 A8 04 00 00          je	0x0000000000406650
0x4061a8: 49 2B 44 C5 00             sub	0x0(%r13,%rax,8), %rax
0x4061ad: 84 D2                      test	%dl, %dl
0x4061af: 75 CF                      jne	0x0000000000406180
0x4061b1: 48 8D 3C 40                lea	(%rax,%rax,2), %rdi
0x4061b5: 48 C1 E7 04                shl	$0x4, %rdi
0x4061b9: 49 8D 3C 3E                lea	(%r14,%rdi,1), %rdi
0x4061bd: 48 8B 4B 38                mov	0x38(%rbx), %rcx
0x4061c1: 48 3B 4F 08                cmp	0x8(%rdi), %rcx
0x4061c5: 75 D8                      jne	0x000000000040619f
0x4061c7: 48 8B 73 30                mov	0x30(%rbx), %rsi
0x4061cb: 48 8B 3F                   mov	(%rdi), %rdi
0x4061ce: 48 39 C9                   cmp	%rcx, %rcx
0x4061d1: F3 A6                      repz  cmpsb	%es:(%rdi), %ds:(%rsi)
0x4061d3: 0F 94 C1                   sete	%cl
0x4061d6: 84 C9                      test	%cl, %cl
0x4061d8: 74 C5                      je	0x000000000040619f
0x4061da: 48 83 C0 01                add	$0x1, %rax
0x4061de: 4C 89 C2                   mov	%r8, %rdx
0x4061e1: 48 29 C2                   sub	%rax, %rdx
0x4061e4: 4B 89 54 C5 00             mov	%rdx, 0x0(%r13,%r8,8)
0x4061e9: 49 83 C0 01                add	$0x1, %r8
0x4061ed: 48 83 C3 30                add	$0x30, %rbx
0x4061f1: 4C 3B 85 F0 FE FF FF       cmp	-0x110(%rbp), %r8
0x4061f8: 0F 85 78 FF FF FF          jne	0x0000000000406176
0x4061fe: 48 8B 95 E8 FE FF FF       mov	-0x118(%rbp), %rdx
0x406205: 48 8B 85 E0 FE FF FF       mov	-0x120(%rbp), %rax
0x40620c: 48 8D 9D 40 FF FF FF       lea	-0xc0(%rbp), %rbx
0x406213: C6 85 40 FF FF FF 00       movb	$0x0, -0xc0(%rbp)
0x40621a: C6 85 4C FF FF FF 00       movb	$0x0, -0xb4(%rbp)
0x406221: 45 31 FF                   xor	%r15d, %r15d
0x406224: C6 85 00 FF FF FF 00       movb	$0x0, -0x100(%rbp)
0x40622b: C6 85 0C FF FF FF 00       movb	$0x0, -0xf4(%rbp)
0x406232: 48 C7 00 00 00 00 00       movq	$0x0, (%rax)
0x406239: 48 89 95 50 FF FF FF       mov	%rdx, -0xb0(%rbp)
0x406240: 31 C0                      xor	%eax, %eax
0x406242: 48 89 95 10 FF FF FF       mov	%rdx, -0xf0(%rbp)
0x406249: 48 8D 95 00 FF FF FF       lea	-0x100(%rbp), %rdx
0x406250: 48 C7 85 44 FF FF FF 00    movq	$0x0, -0xbc(%rbp)
          00 00 00
0x40625b: 48 C7 85 04 FF FF FF 00    movq	$0x0, -0xfc(%rbp)
          00 00 00
0x406266: 48 83 C2 04                add	$0x4, %rdx
0x40626a: 48 89 95 E8 FE FF FF       mov	%rdx, -0x118(%rbp)
0x406271: 48 8D 53 04                lea	0x4(%rbx), %rdx
0x406275: 48 89 95 F8 FE FF FF       mov	%rdx, -0x108(%rbp)
0x40627c: EB 61                      jmp	0x00000000004062df
0x40627e: 66 90                      xchg	%ax, %ax
0x406280: 4B 8D 14 7F                lea	(%r15,%r15,2), %rdx
0x406284: 48 C1 E2 04                shl	$0x4, %rdx
0x406288: 49 8D 14 16                lea	(%r14,%rdx,1), %rdx
0x40628c: 80 7A 10 00                cmpb	$0x0, 0x10(%rdx)
0x406290: 0F 84 EA 00 00 00          je	0x0000000000406380
0x406296: 84 C0                      test	%al, %al
0x406298: 0F 84 E2 00 00 00          je	0x0000000000406380
0x40629e: 8B 42 14                   mov	0x14(%rdx), %eax
0x4062a1: 3B 85 24 FF FF FF          cmp	-0xdc(%rbp), %eax
0x4062a7: 0F 94 C0                   sete	%al
0x4062aa: 84 C0                      test	%al, %al
0x4062ac: 0F 84 DF 00 00 00          je	0x0000000000406391
0x4062b2: 49 83 C7 01                add	$0x1, %r15
0x4062b6: 48 8B 85 18 FF FF FF       mov	-0xe8(%rbp), %rax
0x4062bd: 48 01 85 10 FF FF FF       add	%rax, -0xf0(%rbp)
0x4062c4: 4C 39 BD F0 FE FF FF       cmp	%r15, -0x110(%rbp)
0x4062cb: C6 85 0C FF FF FF 00       movb	$0x0, -0xf4(%rbp)
0x4062d2: 0F 84 42 06 00 00          je	0x000000000040691a
0x4062d8: 0F B6 85 0C FF FF FF       movzbl	-0xf4(%rbp), %eax
0x4062df: 84 C0                      test	%al, %al
0x4062e1: 75 51                      jne	0x0000000000406334
0x4062e3: 80 BD 00 FF FF FF 00       cmpb	$0x0, -0x100(%rbp)
0x4062ea: 0F 85 8B 02 00 00          jne	0x000000000040657b
0x4062f0: 48 8B 95 10 FF FF FF       mov	-0xf0(%rbp), %rdx
0x4062f7: 0F B6 02                   movzbl	(%rdx), %eax
0x4062fa: 89 C1                      mov	%eax, %ecx
0x4062fc: C0 E9 05                   shr	$0x5, %cl
0x4062ff: 0F B6 C9                   movzbl	%cl, %ecx
0x406302: 8B 0C 8D A0 BA 40 00       mov	0x40baa0(,%rcx,4), %ecx
0x406309: 0F A3 C1                   bt	%eax, %ecx
0x40630c: 0F 83 4E 02 00 00          jae	0x0000000000406560
0x406312: 48 C7 85 18 FF FF FF 01    movq	$0x1, -0xe8(%rbp)
          00 00 00
0x40631d: 0F BE 02                   movsbl	(%rdx), %eax
0x406320: C6 85 20 FF FF FF 01       movb	$0x1, -0xe0(%rbp)
0x406327: 89 85 24 FF FF FF          mov	%eax, -0xdc(%rbp)
0x40632d: C6 85 0C FF FF FF 01       movb	$0x1, -0xf4(%rbp)
0x406334: 0F B6 85 20 FF FF FF       movzbl	-0xe0(%rbp), %eax
0x40633b: 84 C0                      test	%al, %al
0x40633d: 0F 84 3D FF FF FF          je	0x0000000000406280
0x406343: 8B 95 24 FF FF FF          mov	-0xdc(%rbp), %edx
0x406349: 85 D2                      test	%edx, %edx
0x40634b: 0F 85 2F FF FF FF          jne	0x0000000000406280
0x406351: 4C 89 F7                   mov	%r14, %rdi
0x406354: E8 27 34 00 00             callq	0x0000000000409780
0x406359: B8 01 00 00 00             mov	$0x1, %eax
0x40635e: E9 C5 FC FF FF             jmpq	0x0000000000406028
0x406363: 48 83 C7 2E                add	$0x2e, %rdi
0x406367: 48 83 E7 F0                and	$0xfffffffffffffff0, %rdi
0x40636b: 48 29 FC                   sub	%rdi, %rsp
0x40636e: 4C 8D 74 24 0F             lea	0xf(%rsp), %r14
0x406373: 49 83 E6 F0                and	$0xfffffffffffffff0, %r14
0x406377: 49 83 C6 10                add	$0x10, %r14
0x40637b: E9 F8 FC FF FF             jmpq	0x0000000000406078
0x406380: 48 8B 4A 08                mov	0x8(%rdx), %rcx
0x406384: 48 3B 8D 18 FF FF FF       cmp	-0xe8(%rbp), %rcx
0x40638b: 0F 84 9F 02 00 00          je	0x0000000000406630
0x406391: 4D 85 FF                   test	%r15, %r15
0x406394: 0F 84 66 03 00 00          je	0x0000000000406700
0x40639a: 4F 8B 64 FD 00             mov	0x0(%r13,%r15,8), %r12
0x40639f: 4D 29 E7                   sub	%r12, %r15
0x4063a2: 4D 85 E4                   test	%r12, %r12
0x4063a5: 0F 84 2D FF FF FF          je	0x00000000004062d8
0x4063ab: 80 BD 4C FF FF FF 00       cmpb	$0x0, -0xb4(%rbp)
0x4063b2: 75 51                      jne	0x0000000000406405
0x4063b4: 80 BD 40 FF FF FF 00       cmpb	$0x0, -0xc0(%rbp)
0x4063bb: 0F 85 7F 00 00 00          jne	0x0000000000406440
0x4063c1: 48 8B 95 50 FF FF FF       mov	-0xb0(%rbp), %rdx
0x4063c8: 0F B6 02                   movzbl	(%rdx), %eax
0x4063cb: 89 C1                      mov	%eax, %ecx
0x4063cd: C0 E9 05                   shr	$0x5, %cl
0x4063d0: 0F B6 C9                   movzbl	%cl, %ecx
0x4063d3: 8B 0C 8D A0 BA 40 00       mov	0x40baa0(,%rcx,4), %ecx
0x4063da: 0F A3 C1                   bt	%eax, %ecx
0x4063dd: 0F 83 15 01 00 00          jae	0x00000000004064f8
0x4063e3: 48 C7 85 58 FF FF FF 01    movq	$0x1, -0xa8(%rbp)
          00 00 00
0x4063ee: 0F BE 02                   movsbl	(%rdx), %eax
0x4063f1: C6 85 60 FF FF FF 01       movb	$0x1, -0xa0(%rbp)
0x4063f8: 89 85 64 FF FF FF          mov	%eax, -0x9c(%rbp)
0x4063fe: C6 85 4C FF FF FF 01       movb	$0x1, -0xb4(%rbp)
0x406405: 80 BD 60 FF FF FF 00       cmpb	$0x0, -0xa0(%rbp)
0x40640c: 0F 85 CE 00 00 00          jne	0x00000000004064e0
0x406412: 48 8B 85 58 FF FF FF       mov	-0xa8(%rbp), %rax
0x406419: 48 01 85 50 FF FF FF       add	%rax, -0xb0(%rbp)
0x406420: 49 83 EC 01                sub	$0x1, %r12
0x406424: C6 85 4C FF FF FF 00       movb	$0x0, -0xb4(%rbp)
0x40642b: 0F 84 A7 FE FF FF          je	0x00000000004062d8
0x406431: 80 BD 40 FF FF FF 00       cmpb	$0x0, -0xc0(%rbp)
0x406438: 74 87                      je	0x00000000004063c1
0x40643a: 66 0F 1F 44 00 00          nopw	0x0(%rax,%rax,1)
0x406440: E8 DB B1 FF FF             callq	0x0000000000401620
0x406445: 48 8B BD 50 FF FF FF       mov	-0xb0(%rbp), %rdi
0x40644c: 48 89 C6                   mov	%rax, %rsi
0x40644f: E8 5C D2 FF FF             callq	0x00000000004036b0
0x406454: 48 8B B5 50 FF FF FF       mov	-0xb0(%rbp), %rsi
0x40645b: 48 8D 4B 04                lea	0x4(%rbx), %rcx
0x40645f: 48 8D 7B 24                lea	0x24(%rbx), %rdi
0x406463: 48 89 C2                   mov	%rax, %rdx
0x406466: E8 15 B0 FF FF             callq	0x0000000000401480
0x40646b: 48 83 F8 FF                cmp	$0xffffffffffffffff, %rax
0x40646f: 48 89 85 58 FF FF FF       mov	%rax, -0xa8(%rbp)
0x406476: 0F 84 A4 00 00 00          je	0x0000000000406520
0x40647c: 48 83 F8 FE                cmp	$0xfffffffffffffffe, %rax
0x406480: 0F 84 BA 00 00 00          je	0x0000000000406540
0x406486: 48 85 C0                   test	%rax, %rax
0x406489: 75 2B                      jne	0x00000000004064b6
0x40648b: 48 8B 85 50 FF FF FF       mov	-0xb0(%rbp), %rax
0x406492: 48 C7 85 58 FF FF FF 01    movq	$0x1, -0xa8(%rbp)
          00 00 00
0x40649d: 80 38 00                   cmpb	$0x0, (%rax)
0x4064a0: 0F 85 A8 04 00 00          jne	0x000000000040694e
0x4064a6: 44 8B 8D 64 FF FF FF       mov	-0x9c(%rbp), %r9d
0x4064ad: 45 85 C9                   test	%r9d, %r9d
0x4064b0: 0F 85 B1 04 00 00          jne	0x0000000000406967
0x4064b6: 48 8D 7B 04                lea	0x4(%rbx), %rdi
0x4064ba: C6 85 60 FF FF FF 01       movb	$0x1, -0xa0(%rbp)
0x4064c1: E8 4A B2 FF FF             callq	0x0000000000401710
0x4064c6: 85 C0                      test	%eax, %eax
0x4064c8: 0F 84 30 FF FF FF          je	0x00000000004063fe
0x4064ce: C6 85 40 FF FF FF 00       movb	$0x0, -0xc0(%rbp)
0x4064d5: E9 24 FF FF FF             jmpq	0x00000000004063fe
0x4064da: 66 0F 1F 44 00 00          nopw	0x0(%rax,%rax,1)
0x4064e0: 44 8B 85 64 FF FF FF       mov	-0x9c(%rbp), %r8d
0x4064e7: 45 85 C0                   test	%r8d, %r8d
0x4064ea: 0F 85 22 FF FF FF          jne	0x0000000000406412
0x4064f0: E8 BB AF FF FF             callq	0x00000000004014b0
0x4064f5: 0F 1F 00                   nopl	(%rax)
0x4064f8: 48 8B BD F8 FE FF FF       mov	-0x108(%rbp), %rdi
0x4064ff: E8 0C B2 FF FF             callq	0x0000000000401710
0x406504: 85 C0                      test	%eax, %eax
0x406506: 0F 84 24 04 00 00          je	0x0000000000406930
0x40650c: C6 85 40 FF FF FF 01       movb	$0x1, -0xc0(%rbp)
0x406513: E9 28 FF FF FF             jmpq	0x0000000000406440
0x406518: 0F 1F 84 00 00 00 00 00    nopl	0x0(%rax,%rax,1)
0x406520: 48 C7 85 58 FF FF FF 01    movq	$0x1, -0xa8(%rbp)
          00 00 00
0x40652b: C6 85 60 FF FF FF 00       movb	$0x0, -0xa0(%rbp)
0x406532: E9 C7 FE FF FF             jmpq	0x00000000004063fe
0x406537: 66 0F 1F 84 00 00 00 00    nopw	0x0(%rax,%rax,1)
          00
0x406540: 48 8B BD 50 FF FF FF       mov	-0xb0(%rbp), %rdi
0x406547: E8 C4 B0 FF FF             callq	0x0000000000401610
0x40654c: C6 85 60 FF FF FF 00       movb	$0x0, -0xa0(%rbp)
0x406553: 48 89 85 58 FF FF FF       mov	%rax, -0xa8(%rbp)
0x40655a: E9 9F FE FF FF             jmpq	0x00000000004063fe
0x40655f: 90                         nop	
0x406560: 48 8B BD E8 FE FF FF       mov	-0x118(%rbp), %rdi
0x406567: E8 A4 B1 FF FF             callq	0x0000000000401710
0x40656c: 85 C0                      test	%eax, %eax
0x40656e: 0F 84 BC 03 00 00          je	0x0000000000406930
0x406574: C6 85 00 FF FF FF 01       movb	$0x1, -0x100(%rbp)
0x40657b: E8 A0 B0 FF FF             callq	0x0000000000401620
0x406580: 48 8B BD 10 FF FF FF       mov	-0xf0(%rbp), %rdi
0x406587: 48 89 C6                   mov	%rax, %rsi
0x40658a: E8 21 D1 FF FF             callq	0x00000000004036b0
0x40658f: 48 8D 8D 00 FF FF FF       lea	-0x100(%rbp), %rcx
0x406596: 48 8D BD 00 FF FF FF       lea	-0x100(%rbp), %rdi
0x40659d: 48 8B B5 10 FF FF FF       mov	-0xf0(%rbp), %rsi
0x4065a4: 48 89 C2                   mov	%rax, %rdx
0x4065a7: 48 83 C1 04                add	$0x4, %rcx
0x4065ab: 48 83 C7 24                add	$0x24, %rdi
0x4065af: E8 CC AE FF FF             callq	0x0000000000401480
0x4065b4: 48 83 F8 FF                cmp	$0xffffffffffffffff, %rax
0x4065b8: 48 89 85 18 FF FF FF       mov	%rax, -0xe8(%rbp)
0x4065bf: 0F 84 D3 01 00 00          je	0x0000000000406798
0x4065c5: 48 83 F8 FE                cmp	$0xfffffffffffffffe, %rax
0x4065c9: 0F 84 E1 01 00 00          je	0x00000000004067b0
0x4065cf: 48 85 C0                   test	%rax, %rax
0x4065d2: 75 29                      jne	0x00000000004065fd
0x4065d4: 48 8B 85 10 FF FF FF       mov	-0xf0(%rbp), %rax
0x4065db: 48 C7 85 18 FF FF FF 01    movq	$0x1, -0xe8(%rbp)
          00 00 00
0x4065e6: 80 38 00                   cmpb	$0x0, (%rax)
0x4065e9: 0F 85 5F 03 00 00          jne	0x000000000040694e
0x4065ef: 8B 8D 24 FF FF FF          mov	-0xdc(%rbp), %ecx
0x4065f5: 85 C9                      test	%ecx, %ecx
0x4065f7: 0F 85 6A 03 00 00          jne	0x0000000000406967
0x4065fd: 48 8D BD 00 FF FF FF       lea	-0x100(%rbp), %rdi
0x406604: C6 85 20 FF FF FF 01       movb	$0x1, -0xe0(%rbp)
0x40660b: 48 83 C7 04                add	$0x4, %rdi
0x40660f: E8 FC B0 FF FF             callq	0x0000000000401710
0x406614: 85 C0                      test	%eax, %eax
0x406616: 0F 84 11 FD FF FF          je	0x000000000040632d
0x40661c: C6 85 00 FF FF FF 00       movb	$0x0, -0x100(%rbp)
0x406623: E9 05 FD FF FF             jmpq	0x000000000040632d
0x406628: 0F 1F 84 00 00 00 00 00    nopl	0x0(%rax,%rax,1)
0x406630: 48 8B 32                   mov	(%rdx), %rsi
0x406633: 48 8B BD 10 FF FF FF       mov	-0xf0(%rbp), %rdi
0x40663a: 48 39 C9                   cmp	%rcx, %rcx
0x40663d: F3 A6                      repz  cmpsb	%es:(%rdi), %ds:(%rsi)
0x40663f: 0F 94 C0                   sete	%al
0x406642: E9 63 FC FF FF             jmpq	0x00000000004062aa
0x406647: 66 0F 1F 84 00 00 00 00    nopw	0x0(%rax,%rax,1)
          00
0x406650: 4F 89 44 C5 00             mov	%r8, 0x0(%r13,%r8,8)
0x406655: E9 8F FB FF FF             jmpq	0x00000000004061e9
0x40665a: 66 0F 1F 44 00 00          nopw	0x0(%rax,%rax,1)
0x406660: 48 8B BD F8 FE FF FF       mov	-0x108(%rbp), %rdi
0x406667: E8 A4 B0 FF FF             callq	0x0000000000401710
0x40666c: 85 C0                      test	%eax, %eax
0x40666e: 0F 84 BC 02 00 00          je	0x0000000000406930
0x406674: C6 45 80 01                movb	$0x1, -0x80(%rbp)
0x406678: E8 A3 AF FF FF             callq	0x0000000000401620
0x40667d: 48 8B 7D 90                mov	-0x70(%rbp), %rdi
0x406681: 48 89 C6                   mov	%rax, %rsi
0x406684: E8 27 D0 FF FF             callq	0x00000000004036b0
0x406689: 48 8B 75 90                mov	-0x70(%rbp), %rsi
0x40668d: 49 8D 4D 04                lea	0x4(%r13), %rcx
0x406691: 49 8D 7D 24                lea	0x24(%r13), %rdi
0x406695: 48 89 C2                   mov	%rax, %rdx
0x406698: E8 E3 AD FF FF             callq	0x0000000000401480
0x40669d: 48 83 F8 FF                cmp	$0xffffffffffffffff, %rax
0x4066a1: 48 89 45 98                mov	%rax, -0x68(%rbp)
0x4066a5: 0F 84 E7 01 00 00          je	0x0000000000406892
0x4066ab: 48 83 F8 FE                cmp	$0xfffffffffffffffe, %rax
0x4066af: 0F 84 EE 01 00 00          je	0x00000000004068a3
0x4066b5: 48 85 C0                   test	%rax, %rax
0x4066b8: 75 22                      jne	0x00000000004066dc
0x4066ba: 48 8B 45 90                mov	-0x70(%rbp), %rax
0x4066be: 48 C7 45 98 01 00 00 00    movq	$0x1, -0x68(%rbp)
0x4066c6: 80 38 00                   cmpb	$0x0, (%rax)
0x4066c9: 0F 85 7F 02 00 00          jne	0x000000000040694e
0x4066cf: 44 8B 5D A4                mov	-0x5c(%rbp), %r11d
0x4066d3: 45 85 DB                   test	%r11d, %r11d
0x4066d6: 0F 85 8B 02 00 00          jne	0x0000000000406967
0x4066dc: 49 8D 7D 04                lea	0x4(%r13), %rdi
0x4066e0: C6 45 A0 01                movb	$0x1, -0x60(%rbp)
0x4066e4: E8 27 B0 FF FF             callq	0x0000000000401710
0x4066e9: 85 C0                      test	%eax, %eax
0x4066eb: 0F 84 39 FA FF FF          je	0x000000000040612a
0x4066f1: C6 45 80 00                movb	$0x0, -0x80(%rbp)
0x4066f5: E9 30 FA FF FF             jmpq	0x000000000040612a
0x4066fa: 66 0F 1F 44 00 00          nopw	0x0(%rax,%rax,1)
0x406700: 80 BD 4C FF FF FF 00       cmpb	$0x0, -0xb4(%rbp)
0x406707: 75 51                      jne	0x000000000040675a
0x406709: 80 BD 40 FF FF FF 00       cmpb	$0x0, -0xc0(%rbp)
0x406710: 0F 85 E4 00 00 00          jne	0x00000000004067fa
0x406716: 48 8B 95 50 FF FF FF       mov	-0xb0(%rbp), %rdx
0x40671d: 0F B6 02                   movzbl	(%rdx), %eax
0x406720: 89 C1                      mov	%eax, %ecx
0x406722: C0 E9 05                   shr	$0x5, %cl
0x406725: 0F B6 C9                   movzbl	%cl, %ecx
0x406728: 8B 0C 8D A0 BA 40 00       mov	0x40baa0(,%rcx,4), %ecx
0x40672f: 0F A3 C1                   bt	%eax, %ecx
0x406732: 0F 83 A7 00 00 00          jae	0x00000000004067df
0x406738: 48 C7 85 58 FF FF FF 01    movq	$0x1, -0xa8(%rbp)
          00 00 00
0x406743: 0F BE 02                   movsbl	(%rdx), %eax
0x406746: C6 85 60 FF FF FF 01       movb	$0x1, -0xa0(%rbp)
0x40674d: 89 85 64 FF FF FF          mov	%eax, -0x9c(%rbp)
0x406753: C6 85 4C FF FF FF 01       movb	$0x1, -0xb4(%rbp)
0x40675a: 80 BD 60 FF FF FF 00       cmpb	$0x0, -0xa0(%rbp)
0x406761: 75 6C                      jne	0x00000000004067cf
0x406763: 48 8B 85 58 FF FF FF       mov	-0xa8(%rbp), %rax
0x40676a: C6 85 4C FF FF FF 00       movb	$0x0, -0xb4(%rbp)
0x406771: 48 01 85 50 FF FF FF       add	%rax, -0xb0(%rbp)
0x406778: C6 85 0C FF FF FF 00       movb	$0x0, -0xf4(%rbp)
0x40677f: 48 8B 85 18 FF FF FF       mov	-0xe8(%rbp), %rax
0x406786: 48 01 85 10 FF FF FF       add	%rax, -0xf0(%rbp)
0x40678d: E9 46 FB FF FF             jmpq	0x00000000004062d8
0x406792: 66 0F 1F 44 00 00          nopw	0x0(%rax,%rax,1)
0x406798: 48 C7 85 18 FF FF FF 01    movq	$0x1, -0xe8(%rbp)
          00 00 00
0x4067a3: C6 85 20 FF FF FF 00       movb	$0x0, -0xe0(%rbp)
0x4067aa: E9 7E FB FF FF             jmpq	0x000000000040632d
0x4067af: 90                         nop	
0x4067b0: 48 8B BD 10 FF FF FF       mov	-0xf0(%rbp), %rdi
0x4067b7: E8 54 AE FF FF             callq	0x0000000000401610
0x4067bc: C6 85 20 FF FF FF 00       movb	$0x0, -0xe0(%rbp)
0x4067c3: 48 89 85 18 FF FF FF       mov	%rax, -0xe8(%rbp)
0x4067ca: E9 5E FB FF FF             jmpq	0x000000000040632d
0x4067cf: 8B B5 64 FF FF FF          mov	-0x9c(%rbp), %esi
0x4067d5: 85 F6                      test	%esi, %esi
0x4067d7: 0F 84 13 FD FF FF          je	0x00000000004064f0
0x4067dd: EB 84                      jmp	0x0000000000406763
0x4067df: 48 8B BD F8 FE FF FF       mov	-0x108(%rbp), %rdi
0x4067e6: E8 25 AF FF FF             callq	0x0000000000401710
0x4067eb: 85 C0                      test	%eax, %eax
0x4067ed: 0F 84 3D 01 00 00          je	0x0000000000406930
0x4067f3: C6 85 40 FF FF FF 01       movb	$0x1, -0xc0(%rbp)
0x4067fa: E8 21 AE FF FF             callq	0x0000000000401620
0x4067ff: 48 8B BD 50 FF FF FF       mov	-0xb0(%rbp), %rdi
0x406806: 48 89 C6                   mov	%rax, %rsi
0x406809: E8 A2 CE FF FF             callq	0x00000000004036b0
0x40680e: 48 8B B5 50 FF FF FF       mov	-0xb0(%rbp), %rsi
0x406815: 48 8D 4B 04                lea	0x4(%rbx), %rcx
0x406819: 48 8D 7B 24                lea	0x24(%rbx), %rdi
0x40681d: 48 89 C2                   mov	%rax, %rdx
0x406820: E8 5B AC FF FF             callq	0x0000000000401480
0x406825: 48 83 F8 FF                cmp	$0xffffffffffffffff, %rax
0x406829: 48 89 85 58 FF FF FF       mov	%rax, -0xa8(%rbp)
0x406830: 0F 84 AE 00 00 00          je	0x00000000004068e4
0x406836: 48 83 F8 FE                cmp	$0xfffffffffffffffe, %rax
0x40683a: 0F 84 BB 00 00 00          je	0x00000000004068fb
0x406840: 48 85 C0                   test	%rax, %rax
0x406843: 75 29                      jne	0x000000000040686e
0x406845: 48 8B 85 50 FF FF FF       mov	-0xb0(%rbp), %rax
0x40684c: 48 C7 85 58 FF FF FF 01    movq	$0x1, -0xa8(%rbp)
          00 00 00
0x406857: 80 38 00                   cmpb	$0x0, (%rax)
0x40685a: 0F 85 EE 00 00 00          jne	0x000000000040694e
0x406860: 8B BD 64 FF FF FF          mov	-0x9c(%rbp), %edi
0x406866: 85 FF                      test	%edi, %edi
0x406868: 0F 85 F9 00 00 00          jne	0x0000000000406967
0x40686e: 48 8D 7B 04                lea	0x4(%rbx), %rdi
0x406872: C6 85 60 FF FF FF 01       movb	$0x1, -0xa0(%rbp)
0x406879: E8 92 AE FF FF             callq	0x0000000000401710
0x40687e: 85 C0                      test	%eax, %eax
0x406880: 0F 84 CD FE FF FF          je	0x0000000000406753
0x406886: C6 85 40 FF FF FF 00       movb	$0x0, -0xc0(%rbp)
0x40688d: E9 C1 FE FF FF             jmpq	0x0000000000406753
0x406892: 48 C7 45 98 01 00 00 00    movq	$0x1, -0x68(%rbp)
0x40689a: C6 45 A0 00                movb	$0x0, -0x60(%rbp)
0x40689e: E9 87 F8 FF FF             jmpq	0x000000000040612a
0x4068a3: 48 8B 7D 90                mov	-0x70(%rbp), %rdi
0x4068a7: E8 64 AD FF FF             callq	0x0000000000401610
0x4068ac: C6 45 A0 00                movb	$0x0, -0x60(%rbp)
0x4068b0: 48 89 45 98                mov	%rax, -0x68(%rbp)
0x4068b4: E9 71 F8 FF FF             jmpq	0x000000000040612a
0x4068b9: 49 8D 4C 24 18             lea	0x18(%r12), %rcx
0x4068be: 48 8B 55 98                mov	-0x68(%rbp), %rdx
0x4068c2: 4C 89 FE                   mov	%r15, %rsi
0x4068c5: 48 89 CF                   mov	%rcx, %rdi
0x4068c8: 48 89 8D D8 FE FF FF       mov	%rcx, -0x128(%rbp)
0x4068cf: E8 DC AD FF FF             callq	0x00000000004016b0
0x4068d4: 48 8B 8D D8 FE FF FF       mov	-0x128(%rbp), %rcx
0x4068db: 49 89 0C 24                mov	%rcx, (%r12)
0x4068df: E9 DD F7 FF FF             jmpq	0x00000000004060c1
0x4068e4: 48 C7 85 58 FF FF FF 01    movq	$0x1, -0xa8(%rbp)
          00 00 00
0x4068ef: C6 85 60 FF FF FF 00       movb	$0x0, -0xa0(%rbp)
0x4068f6: E9 58 FE FF FF             jmpq	0x0000000000406753
0x4068fb: 48 8B BD 50 FF FF FF       mov	-0xb0(%rbp), %rdi
0x406902: E8 09 AD FF FF             callq	0x0000000000401610
0x406907: C6 85 60 FF FF FF 00       movb	$0x0, -0xa0(%rbp)
0x40690e: 48 89 85 58 FF FF FF       mov	%rax, -0xa8(%rbp)
0x406915: E9 39 FE FF FF             jmpq	0x0000000000406753
0x40691a: 48 8B 85 50 FF FF FF       mov	-0xb0(%rbp), %rax
0x406921: 48 8B 95 E0 FE FF FF       mov	-0x120(%rbp), %rdx
0x406928: 48 89 02                   mov	%rax, (%rdx)
0x40692b: E9 21 FA FF FF             jmpq	0x0000000000406351
0x406930: B9 C0 BA 40 00             mov	$0x40bac0, %ecx
0x406935: BA 8E 00 00 00             mov	$0x8e, %edx
0x40693a: BE 18 B1 40 00             mov	$0x40b118, %esi
0x40693f: BF 22 B1 40 00             mov	$0x40b122, %edi
0x406944: E8 D7 AB FF FF             callq	0x0000000000401520
0x406949: E8 F2 AD FF FF             callq	0x0000000000401740
0x40694e: B9 C0 BA 40 00             mov	$0x40bac0, %ecx
0x406953: BA AA 00 00 00             mov	$0xaa, %edx
0x406958: BE 18 B1 40 00             mov	$0x40b118, %esi
0x40695d: BF 39 B1 40 00             mov	$0x40b139, %edi
0x406962: E8 B9 AB FF FF             callq	0x0000000000401520
0x406967: B9 C0 BA 40 00             mov	$0x40bac0, %ecx
0x40696c: BA AB 00 00 00             mov	$0xab, %edx
0x406971: BE 18 B1 40 00             mov	$0x40b118, %esi
0x406976: BF 50 B1 40 00             mov	$0x40b150, %edi
0x40697b: E8 A0 AB FF FF             callq	0x0000000000401520
0x406980: 48 89 5C 24 D0             mov	%rbx, -0x30(%rsp)
0x406985: 48 89 6C 24 D8             mov	%rbp, -0x28(%rsp)
0x40698a: 48 89 F3                   mov	%rsi, %rbx
0x40698d: 4C 89 64 24 E0             mov	%r12, -0x20(%rsp)
0x406992: 4C 89 6C 24 E8             mov	%r13, -0x18(%rsp)
0x406997: 48 89 FD                   mov	%rdi, %rbp
0x40699a: 4C 89 74 24 F0             mov	%r14, -0x10(%rsp)
0x40699f: 4C 89 7C 24 F8             mov	%r15, -0x8(%rsp)
0x4069a4: 48 81 EC 08 02 00 00       sub	$0x208, %rsp
0x4069ab: 64 48 8B 04 25 28 00 00    mov	%fs:0x28, %rax
          00
0x4069b4: 48 89 84 24 C8 01 00 00    mov	%rax, 0x1c8(%rsp)
0x4069bc: 31 C0                      xor	%eax, %eax
0x4069be: E8 5D AC FF FF             callq	0x0000000000401620
0x4069c3: 48 83 F8 01                cmp	$0x1, %rax
0x4069c7: 0F 86 4B 05 00 00          jbe	0x0000000000406f18
0x4069cd: 48 89 9C 24 90 01 00 00    mov	%rbx, 0x190(%rsp)
0x4069d5: C6 84 24 80 01 00 00 00    movb	$0x0, 0x180(%rsp)
0x4069dd: 4C 8D A4 24 80 01 00 00    lea	0x180(%rsp), %r12
0x4069e5: 48 C7 84 24 84 01 00 00    movq	$0x0, 0x184(%rsp)
          00 00 00 00
0x4069f1: C6 84 24 8C 01 00 00 00    movb	$0x0, 0x18c(%rsp)
0x4069f9: 0F B6 03                   movzbl	(%rbx), %eax
0x4069fc: 4D 8D 6C 24 04             lea	0x4(%r12), %r13
0x406a01: 89 C2                      mov	%eax, %edx
0x406a03: C0 EA 05                   shr	$0x5, %dl
0x406a06: 0F B6 D2                   movzbl	%dl, %edx
0x406a09: 8B 14 95 A0 BA 40 00       mov	0x40baa0(,%rdx,4), %edx
0x406a10: 0F A3 C2                   bt	%eax, %edx
0x406a13: 0F 82 67 05 00 00          jb	0x0000000000406f80
0x406a19: 4C 89 EF                   mov	%r13, %rdi
0x406a1c: E8 EF AC FF FF             callq	0x0000000000401710
0x406a21: 85 C0                      test	%eax, %eax
0x406a23: 0F 84 6F 0A 00 00          je	0x0000000000407498
0x406a29: C6 84 24 80 01 00 00 01    movb	$0x1, 0x180(%rsp)
0x406a31: E8 EA AB FF FF             callq	0x0000000000401620
0x406a36: 48 8B BC 24 90 01 00 00    mov	0x190(%rsp), %rdi
0x406a3e: 48 89 C6                   mov	%rax, %rsi
0x406a41: E8 6A CC FF FF             callq	0x00000000004036b0
0x406a46: 48 8B B4 24 90 01 00 00    mov	0x190(%rsp), %rsi
0x406a4e: 49 8D 7C 24 24             lea	0x24(%r12), %rdi
0x406a53: 4C 89 E9                   mov	%r13, %rcx
0x406a56: 48 89 C2                   mov	%rax, %rdx
0x406a59: E8 22 AA FF FF             callq	0x0000000000401480
0x406a5e: 48 83 F8 FF                cmp	$0xffffffffffffffff, %rax
0x406a62: 48 89 84 24 98 01 00 00    mov	%rax, 0x198(%rsp)
0x406a6a: 0F 84 50 05 00 00          je	0x0000000000406fc0
0x406a70: 48 83 F8 FE                cmp	$0xfffffffffffffffe, %rax
0x406a74: 0F 84 46 08 00 00          je	0x00000000004072c0
0x406a7a: 48 85 C0                   test	%rax, %rax
0x406a7d: 75 2E                      jne	0x0000000000406aad
0x406a7f: 48 8B 84 24 90 01 00 00    mov	0x190(%rsp), %rax
0x406a87: 48 C7 84 24 98 01 00 00    movq	$0x1, 0x198(%rsp)
          01 00 00 00
0x406a93: 80 38 00                   cmpb	$0x0, (%rax)
0x406a96: 0F 85 2E 0A 00 00          jne	0x00000000004074ca
0x406a9c: 44 8B 9C 24 A4 01 00 00    mov	0x1a4(%rsp), %r11d
0x406aa4: 45 85 DB                   test	%r11d, %r11d
0x406aa7: 0F 85 04 0A 00 00          jne	0x00000000004074b1
0x406aad: 49 8D 7C 24 04             lea	0x4(%r12), %rdi
0x406ab2: C6 84 24 A0 01 00 00 01    movb	$0x1, 0x1a0(%rsp)
0x406aba: E8 51 AC FF FF             callq	0x0000000000401710
0x406abf: 85 C0                      test	%eax, %eax
0x406ac1: 74 0D                      je	0x0000000000406ad0
0x406ac3: C6 84 24 80 01 00 00 00    movb	$0x0, 0x180(%rsp)
0x406acb: 0F 1F 44 00 00             nopl	0x0(%rax,%rax,1)
0x406ad0: 80 BC 24 A0 01 00 00 00    cmpb	$0x0, 0x1a0(%rsp)
0x406ad8: C6 84 24 8C 01 00 00 01    movb	$0x1, 0x18c(%rsp)
0x406ae0: 0F 85 C2 04 00 00          jne	0x0000000000406fa8
0x406ae6: 4C 8D B4 24 80 00 00 00    lea	0x80(%rsp), %r14
0x406aee: 4C 8D AC 24 C0 00 00 00    lea	0xc0(%rsp), %r13
0x406af6: 48 89 9C 24 50 01 00 00    mov	%rbx, 0x150(%rsp)
0x406afe: C6 84 24 40 01 00 00 00    movb	$0x0, 0x140(%rsp)
0x406b06: 48 C7 84 24 44 01 00 00    movq	$0x0, 0x144(%rsp)
          00 00 00 00
0x406b12: 49 89 EC                   mov	%rbp, %r12
0x406b15: 49 8D 56 24                lea	0x24(%r14), %rdx
0x406b19: 49 8D 45 04                lea	0x4(%r13), %rax
0x406b1d: 4D 8D 7E 04                lea	0x4(%r14), %r15
0x406b21: C6 84 24 4C 01 00 00 00    movb	$0x0, 0x14c(%rsp)
0x406b29: 48 89 AC 24 10 01 00 00    mov	%rbp, 0x110(%rsp)
0x406b31: C6 84 24 00 01 00 00 00    movb	$0x0, 0x100(%rsp)
0x406b39: 48 C7 84 24 04 01 00 00    movq	$0x0, 0x104(%rsp)
          00 00 00 00
0x406b45: C6 84 24 0C 01 00 00 00    movb	$0x0, 0x10c(%rsp)
0x406b4d: 48 C7 44 24 50 00 00 00    movq	$0x0, 0x50(%rsp)
          00
0x406b56: 48 C7 44 24 58 00 00 00    movq	$0x0, 0x58(%rsp)
          00
0x406b5f: 48 C7 44 24 38 00 00 00    movq	$0x0, 0x38(%rsp)
          00
0x406b68: 48 C7 44 24 48 00 00 00    movq	$0x0, 0x48(%rsp)
          00
0x406b71: C6 44 24 67 01             movb	$0x1, 0x67(%rsp)
0x406b76: 48 89 54 24 68             mov	%rdx, 0x68(%rsp)
0x406b7b: 48 89 44 24 40             mov	%rax, 0x40(%rsp)
0x406b80: 48 8D BC 24 00 01 00 00    lea	0x100(%rsp), %rdi
0x406b88: E8 53 F1 FF FF             callq	0x0000000000405ce0
0x406b8d: 0F B6 84 24 20 01 00 00    movzbl	0x120(%rsp), %eax
0x406b95: 84 C0                      test	%al, %al
0x406b97: 74 11                      je	0x0000000000406baa
0x406b99: 44 8B 8C 24 24 01 00 00    mov	0x124(%rsp), %r9d
0x406ba1: 45 85 C9                   test	%r9d, %r9d
0x406ba4: 0F 84 3E 04 00 00          je	0x0000000000406fe8
0x406baa: 80 7C 24 67 00             cmpb	$0x0, 0x67(%rsp)
0x406baf: 0F 84 BB 00 00 00          je	0x0000000000406c70
0x406bb5: 48 83 7C 24 48 09          cmpq	$0x9, 0x48(%rsp)
0x406bbb: 0F 86 AF 00 00 00          jbe	0x0000000000406c70
0x406bc1: 48 8B 54 24 50             mov	0x50(%rsp), %rdx
0x406bc6: 48 39 54 24 38             cmp	%rdx, 0x38(%rsp)
0x406bcb: 0F 82 9F 00 00 00          jb	0x0000000000406c70
0x406bd1: 48 8B 6C 24 38             mov	0x38(%rsp), %rbp
0x406bd6: 48 2B 6C 24 58             sub	0x58(%rsp), %rbp
0x406bdb: 74 39                      je	0x0000000000406c16
0x406bdd: 48 8D BC 24 40 01 00 00    lea	0x140(%rsp), %rdi
0x406be5: E8 F6 F0 FF FF             callq	0x0000000000405ce0
0x406bea: 80 BC 24 60 01 00 00 00    cmpb	$0x0, 0x160(%rsp)
0x406bf2: 0F 85 E0 07 00 00          jne	0x00000000004073d8
0x406bf8: 48 8B 84 24 58 01 00 00    mov	0x158(%rsp), %rax
0x406c00: 48 01 84 24 50 01 00 00    add	%rax, 0x150(%rsp)
0x406c08: 48 83 ED 01                sub	$0x1, %rbp
0x406c0c: C6 84 24 4C 01 00 00 00    movb	$0x0, 0x14c(%rsp)
0x406c14: 75 C7                      jne	0x0000000000406bdd
0x406c16: 48 8D BC 24 40 01 00 00    lea	0x140(%rsp), %rdi
0x406c1e: E8 BD F0 FF FF             callq	0x0000000000405ce0
0x406c23: 80 BC 24 60 01 00 00 00    cmpb	$0x0, 0x160(%rsp)
0x406c2b: 0F 84 41 08 00 00          je	0x0000000000407472
0x406c31: 8B BC 24 64 01 00 00       mov	0x164(%rsp), %edi
0x406c38: 85 FF                      test	%edi, %edi
0x406c3a: 0F 85 32 08 00 00          jne	0x0000000000407472
0x406c40: 48 8D 54 24 78             lea	0x78(%rsp), %rdx
0x406c45: 48 89 DE                   mov	%rbx, %rsi
0x406c48: 4C 89 E7                   mov	%r12, %rdi
0x406c4b: E8 80 F3 FF FF             callq	0x0000000000405fd0
0x406c50: 84 C0                      test	%al, %al
0x406c52: 0F 85 36 08 00 00          jne	0x000000000040748e
0x406c58: 48 8B 54 24 38             mov	0x38(%rsp), %rdx
0x406c5d: 0F B6 84 24 20 01 00 00    movzbl	0x120(%rsp), %eax
0x406c65: C6 44 24 67 00             movb	$0x0, 0x67(%rsp)
0x406c6a: 48 89 54 24 58             mov	%rdx, 0x58(%rsp)
0x406c6f: 90                         nop	
0x406c70: 48 8B 6C 24 38             mov	0x38(%rsp), %rbp
0x406c75: 48 83 C5 01                add	$0x1, %rbp
0x406c79: 84 C0                      test	%al, %al
0x406c7b: 0F 84 BF 06 00 00          je	0x0000000000407340
0x406c81: 80 BC 24 A0 01 00 00 00    cmpb	$0x0, 0x1a0(%rsp)
0x406c89: 0F 84 B1 06 00 00          je	0x0000000000407340
0x406c8f: 8B 84 24 24 01 00 00       mov	0x124(%rsp), %eax
0x406c96: 3B 84 24 A4 01 00 00       cmp	0x1a4(%rsp), %eax
0x406c9d: 0F 94 C0                   sete	%al
0x406ca0: 84 C0                      test	%al, %al
0x406ca2: 0F 84 AE 06 00 00          je	0x0000000000407356
0x406ca8: 48 8B 84 24 00 01 00 00    mov	0x100(%rsp), %rax
0x406cb0: 48 8B 94 24 20 01 00 00    mov	0x120(%rsp), %rdx
0x406cb8: 4C 89 F7                   mov	%r14, %rdi
0x406cbb: 49 C7 07 00 00 00 00       movq	$0x0, (%r15)
0x406cc2: 48 89 9C 24 90 00 00 00    mov	%rbx, 0x90(%rsp)
0x406cca: C6 84 24 80 00 00 00 00    movb	$0x0, 0x80(%rsp)
0x406cd2: C6 84 24 8C 00 00 00 00    movb	$0x0, 0x8c(%rsp)
0x406cda: 48 89 84 24 C0 00 00 00    mov	%rax, 0xc0(%rsp)
0x406ce2: 48 89 94 24 E0 00 00 00    mov	%rdx, 0xe0(%rsp)
0x406cea: 48 8B 84 24 08 01 00 00    mov	0x108(%rsp), %rax
0x406cf2: 48 8B 94 24 28 01 00 00    mov	0x128(%rsp), %rdx
0x406cfa: 48 89 84 24 C8 00 00 00    mov	%rax, 0xc8(%rsp)
0x406d02: 48 89 94 24 E8 00 00 00    mov	%rdx, 0xe8(%rsp)
0x406d0a: 48 8B 84 24 10 01 00 00    mov	0x110(%rsp), %rax
0x406d12: 48 8B 94 24 30 01 00 00    mov	0x130(%rsp), %rdx
0x406d1a: C6 84 24 CC 00 00 00 00    movb	$0x0, 0xcc(%rsp)
0x406d22: 48 89 84 24 D0 00 00 00    mov	%rax, 0xd0(%rsp)
0x406d2a: 48 89 94 24 F0 00 00 00    mov	%rdx, 0xf0(%rsp)
0x406d32: 48 8B 84 24 18 01 00 00    mov	0x118(%rsp), %rax
0x406d3a: 48 8B 94 24 38 01 00 00    mov	0x138(%rsp), %rdx
0x406d42: 48 01 84 24 D0 00 00 00    add	%rax, 0xd0(%rsp)
0x406d4a: 48 89 84 24 D8 00 00 00    mov	%rax, 0xd8(%rsp)
0x406d52: 48 89 94 24 F8 00 00 00    mov	%rdx, 0xf8(%rsp)
0x406d5a: E8 81 EF FF FF             callq	0x0000000000405ce0
0x406d5f: 80 BC 24 A0 00 00 00 00    cmpb	$0x0, 0xa0(%rsp)
0x406d67: 0F 85 81 06 00 00          jne	0x00000000004073ee
0x406d6d: 48 8B 6C 24 38             mov	0x38(%rsp), %rbp
0x406d72: 48 8B 84 24 98 00 00 00    mov	0x98(%rsp), %rax
0x406d7a: 4C 89 64 24 38             mov	%r12, 0x38(%rsp)
0x406d7f: 48 01 84 24 90 00 00 00    add	%rax, 0x90(%rsp)
0x406d87: 49 89 DC                   mov	%rbx, %r12
0x406d8a: C6 84 24 8C 00 00 00 00    movb	$0x0, 0x8c(%rsp)
0x406d92: 48 8B 5C 24 68             mov	0x68(%rsp), %rbx
0x406d97: 48 83 C5 02                add	$0x2, %rbp
0x406d9b: EB 69                      jmp	0x0000000000406e06
0x406d9d: 0F 1F 00                   nopl	(%rax)
0x406da0: 8B 84 24 E4 00 00 00       mov	0xe4(%rsp), %eax
0x406da7: 85 C0                      test	%eax, %eax
0x406da9: 0F 84 39 02 00 00          je	0x0000000000406fe8
0x406daf: 80 BC 24 A0 00 00 00 00    cmpb	$0x0, 0xa0(%rsp)
0x406db7: 0F 84 1D 01 00 00          je	0x0000000000406eda
0x406dbd: 3B 84 24 A4 00 00 00       cmp	0xa4(%rsp), %eax
0x406dc4: 0F 95 C0                   setne	%al
0x406dc7: 84 C0                      test	%al, %al
0x406dc9: 48 8D 55 01                lea	0x1(%rbp), %rdx
0x406dcd: 0F 85 2F 06 00 00          jne	0x0000000000407402
0x406dd3: 48 8B 84 24 D8 00 00 00    mov	0xd8(%rsp), %rax
0x406ddb: 48 01 84 24 D0 00 00 00    add	%rax, 0xd0(%rsp)
0x406de3: 48 89 D5                   mov	%rdx, %rbp
0x406de6: 48 8B 84 24 98 00 00 00    mov	0x98(%rsp), %rax
0x406dee: 48 01 84 24 90 00 00 00    add	%rax, 0x90(%rsp)
0x406df6: C6 84 24 CC 00 00 00 00    movb	$0x0, 0xcc(%rsp)
0x406dfe: C6 84 24 8C 00 00 00 00    movb	$0x0, 0x8c(%rsp)
0x406e06: 80 BC 24 80 00 00 00 00    cmpb	$0x0, 0x80(%rsp)
0x406e0e: 0F 85 14 02 00 00          jne	0x0000000000407028
0x406e14: 48 8B 94 24 90 00 00 00    mov	0x90(%rsp), %rdx
0x406e1c: 0F B6 02                   movzbl	(%rdx), %eax
0x406e1f: 89 C1                      mov	%eax, %ecx
0x406e21: C0 E9 05                   shr	$0x5, %cl
0x406e24: 0F B6 C9                   movzbl	%cl, %ecx
0x406e27: 8B 0C 8D A0 BA 40 00       mov	0x40baa0(,%rcx,4), %ecx
0x406e2e: 0F A3 C1                   bt	%eax, %ecx
0x406e31: 0F 83 D9 01 00 00          jae	0x0000000000407010
0x406e37: 48 C7 84 24 98 00 00 00    movq	$0x1, 0x98(%rsp)
          01 00 00 00
0x406e43: 0F BE 02                   movsbl	(%rdx), %eax
0x406e46: C6 84 24 A0 00 00 00 01    movb	$0x1, 0xa0(%rsp)
0x406e4e: 89 84 24 A4 00 00 00       mov	%eax, 0xa4(%rsp)
0x406e55: 80 BC 24 A0 00 00 00 00    cmpb	$0x0, 0xa0(%rsp)
0x406e5d: C6 84 24 8C 00 00 00 01    movb	$0x1, 0x8c(%rsp)
0x406e65: 0F 85 85 01 00 00          jne	0x0000000000406ff0
0x406e6b: 80 BC 24 CC 00 00 00 00    cmpb	$0x0, 0xcc(%rsp)
0x406e73: 75 57                      jne	0x0000000000406ecc
0x406e75: 80 BC 24 C0 00 00 00 00    cmpb	$0x0, 0xc0(%rsp)
0x406e7d: 0F 85 5F 02 00 00          jne	0x00000000004070e2
0x406e83: 48 8B 94 24 D0 00 00 00    mov	0xd0(%rsp), %rdx
0x406e8b: 0F B6 02                   movzbl	(%rdx), %eax
0x406e8e: 89 C1                      mov	%eax, %ecx
0x406e90: C0 E9 05                   shr	$0x5, %cl
0x406e93: 0F B6 C9                   movzbl	%cl, %ecx
0x406e96: 8B 0C 8D A0 BA 40 00       mov	0x40baa0(,%rcx,4), %ecx
0x406e9d: 0F A3 C1                   bt	%eax, %ecx
0x406ea0: 0F 83 22 02 00 00          jae	0x00000000004070c8
0x406ea6: 48 C7 84 24 D8 00 00 00    movq	$0x1, 0xd8(%rsp)
          01 00 00 00
0x406eb2: 0F BE 02                   movsbl	(%rdx), %eax
0x406eb5: C6 84 24 E0 00 00 00 01    movb	$0x1, 0xe0(%rsp)
0x406ebd: 89 84 24 E4 00 00 00       mov	%eax, 0xe4(%rsp)
0x406ec4: C6 84 24 CC 00 00 00 01    movb	$0x1, 0xcc(%rsp)
0x406ecc: 80 BC 24 E0 00 00 00 00    cmpb	$0x0, 0xe0(%rsp)
0x406ed4: 0F 85 C6 FE FF FF          jne	0x0000000000406da0
0x406eda: 48 8B 8C 24 D8 00 00 00    mov	0xd8(%rsp), %rcx
0x406ee2: 48 3B 8C 24 98 00 00 00    cmp	0x98(%rsp), %rcx
0x406eea: B8 01 00 00 00             mov	$0x1, %eax
0x406eef: 0F 85 D2 FE FF FF          jne	0x0000000000406dc7
0x406ef5: 48 8B BC 24 90 00 00 00    mov	0x90(%rsp), %rdi
0x406efd: 48 8B B4 24 D0 00 00 00    mov	0xd0(%rsp), %rsi
0x406f05: 48 39 C9                   cmp	%rcx, %rcx
0x406f08: F3 A6                      repz  cmpsb	%es:(%rdi), %ds:(%rsi)
0x406f0a: 0F 95 C0                   setne	%al
0x406f0d: E9 B5 FE FF FF             jmpq	0x0000000000406dc7
0x406f12: 66 0F 1F 44 00 00          nopw	0x0(%rax,%rax,1)
0x406f18: 44 0F B6 2B                movzbl	(%rbx), %r13d
0x406f1c: 45 84 ED                   test	%r13b, %r13b
0x406f1f: 0F 85 63 02 00 00          jne	0x0000000000407188
0x406f25: 49 89 EC                   mov	%rbp, %r12
0x406f28: 48 8B 94 24 C8 01 00 00    mov	0x1c8(%rsp), %rdx
0x406f30: 64 48 33 14 25 28 00 00    xor	%fs:0x28, %rdx
          00
0x406f39: 4C 89 E0                   mov	%r12, %rax
0x406f3c: 0F 85 47 05 00 00          jne	0x0000000000407489
0x406f42: 48 8B 9C 24 D8 01 00 00    mov	0x1d8(%rsp), %rbx
0x406f4a: 48 8B AC 24 E0 01 00 00    mov	0x1e0(%rsp), %rbp
0x406f52: 4C 8B A4 24 E8 01 00 00    mov	0x1e8(%rsp), %r12
0x406f5a: 4C 8B AC 24 F0 01 00 00    mov	0x1f0(%rsp), %r13
0x406f62: 4C 8B B4 24 F8 01 00 00    mov	0x1f8(%rsp), %r14
0x406f6a: 4C 8B BC 24 00 02 00 00    mov	0x200(%rsp), %r15
0x406f72: 48 81 C4 08 02 00 00       add	$0x208, %rsp
0x406f79: C3                         retq	
0x406f7a: 66 0F 1F 44 00 00          nopw	0x0(%rax,%rax,1)
0x406f80: 48 C7 84 24 98 01 00 00    movq	$0x1, 0x198(%rsp)
          01 00 00 00
0x406f8c: 0F BE 03                   movsbl	(%rbx), %eax
0x406f8f: C6 84 24 A0 01 00 00 01    movb	$0x1, 0x1a0(%rsp)
0x406f97: 89 84 24 A4 01 00 00       mov	%eax, 0x1a4(%rsp)
0x406f9e: E9 2D FB FF FF             jmpq	0x0000000000406ad0
0x406fa3: 0F 1F 44 00 00             nopl	0x0(%rax,%rax,1)
0x406fa8: 44 8B 94 24 A4 01 00 00    mov	0x1a4(%rsp), %r10d
0x406fb0: 45 85 D2                   test	%r10d, %r10d
0x406fb3: 0F 84 6C FF FF FF          je	0x0000000000406f25
0x406fb9: E9 28 FB FF FF             jmpq	0x0000000000406ae6
0x406fbe: 66 90                      xchg	%ax, %ax
0x406fc0: 48 C7 84 24 98 01 00 00    movq	$0x1, 0x198(%rsp)
          01 00 00 00
0x406fcc: C6 84 24 A0 01 00 00 00    movb	$0x0, 0x1a0(%rsp)
0x406fd4: E9 F7 FA FF FF             jmpq	0x0000000000406ad0
0x406fd9: 41 80 3C 24 00             cmpb	$0x0, (%r12)
0x406fde: 0F 85 24 03 00 00          jne	0x0000000000407308
0x406fe4: 0F 1F 40 00                nopl	0x0(%rax)
0x406fe8: 45 31 E4                   xor	%r12d, %r12d
0x406feb: E9 38 FF FF FF             jmpq	0x0000000000406f28
0x406ff0: 8B 94 24 A4 00 00 00       mov	0xa4(%rsp), %edx
0x406ff7: 85 D2                      test	%edx, %edx
0x406ff9: 0F 85 6C FE FF FF          jne	0x0000000000406e6b
0x406fff: 4C 8B A4 24 10 01 00 00    mov	0x110(%rsp), %r12
0x407007: E9 1C FF FF FF             jmpq	0x0000000000406f28
0x40700c: 0F 1F 40 00                nopl	0x0(%rax)
0x407010: 4C 89 FF                   mov	%r15, %rdi
0x407013: E8 F8 A6 FF FF             callq	0x0000000000401710
0x407018: 85 C0                      test	%eax, %eax
0x40701a: 0F 84 78 04 00 00          je	0x0000000000407498
0x407020: C6 84 24 80 00 00 00 01    movb	$0x1, 0x80(%rsp)
0x407028: E8 F3 A5 FF FF             callq	0x0000000000401620
0x40702d: 48 8B BC 24 90 00 00 00    mov	0x90(%rsp), %rdi
0x407035: 48 89 C6                   mov	%rax, %rsi
0x407038: E8 73 C6 FF FF             callq	0x00000000004036b0
0x40703d: 48 8B B4 24 90 00 00 00    mov	0x90(%rsp), %rsi
0x407045: 4C 89 F9                   mov	%r15, %rcx
0x407048: 48 89 C2                   mov	%rax, %rdx
0x40704b: 48 89 DF                   mov	%rbx, %rdi
0x40704e: E8 2D A4 FF FF             callq	0x0000000000401480
0x407053: 48 83 F8 FF                cmp	$0xffffffffffffffff, %rax
0x407057: 48 89 84 24 98 00 00 00    mov	%rax, 0x98(%rsp)
0x40705f: 0F 84 83 02 00 00          je	0x00000000004072e8
0x407065: 48 83 F8 FE                cmp	$0xfffffffffffffffe, %rax
0x407069: 0F 84 19 03 00 00          je	0x0000000000407388
0x40706f: 48 85 C0                   test	%rax, %rax
0x407072: 75 2C                      jne	0x00000000004070a0
0x407074: 48 8B 84 24 90 00 00 00    mov	0x90(%rsp), %rax
0x40707c: 48 C7 84 24 98 00 00 00    movq	$0x1, 0x98(%rsp)
          01 00 00 00
0x407088: 80 38 00                   cmpb	$0x0, (%rax)
0x40708b: 0F 85 39 04 00 00          jne	0x00000000004074ca
0x407091: 8B 8C 24 A4 00 00 00       mov	0xa4(%rsp), %ecx
0x407098: 85 C9                      test	%ecx, %ecx
0x40709a: 0F 85 11 04 00 00          jne	0x00000000004074b1
0x4070a0: 4C 89 FF                   mov	%r15, %rdi
0x4070a3: C6 84 24 A0 00 00 00 01    movb	$0x1, 0xa0(%rsp)
0x4070ab: E8 60 A6 FF FF             callq	0x0000000000401710
0x4070b0: 85 C0                      test	%eax, %eax
0x4070b2: 0F 84 9D FD FF FF          je	0x0000000000406e55
0x4070b8: C6 84 24 80 00 00 00 00    movb	$0x0, 0x80(%rsp)
0x4070c0: E9 90 FD FF FF             jmpq	0x0000000000406e55
0x4070c5: 0F 1F 00                   nopl	(%rax)
0x4070c8: 48 8B 7C 24 40             mov	0x40(%rsp), %rdi
0x4070cd: E8 3E A6 FF FF             callq	0x0000000000401710
0x4070d2: 85 C0                      test	%eax, %eax
0x4070d4: 0F 84 BE 03 00 00          je	0x0000000000407498
0x4070da: C6 84 24 C0 00 00 00 01    movb	$0x1, 0xc0(%rsp)
0x4070e2: E8 39 A5 FF FF             callq	0x0000000000401620
0x4070e7: 48 8B BC 24 D0 00 00 00    mov	0xd0(%rsp), %rdi
0x4070ef: 48 89 C6                   mov	%rax, %rsi
0x4070f2: E8 B9 C5 FF FF             callq	0x00000000004036b0
0x4070f7: 48 8B B4 24 D0 00 00 00    mov	0xd0(%rsp), %rsi
0x4070ff: 49 8D 4D 04                lea	0x4(%r13), %rcx
0x407103: 49 8D 7D 24                lea	0x24(%r13), %rdi
0x407107: 48 89 C2                   mov	%rax, %rdx
0x40710a: E8 71 A3 FF FF             callq	0x0000000000401480
0x40710f: 48 83 F8 FF                cmp	$0xffffffffffffffff, %rax
0x407113: 48 89 84 24 D8 00 00 00    mov	%rax, 0xd8(%rsp)
0x40711b: 0F 84 FF 01 00 00          je	0x0000000000407320
0x407121: 48 83 F8 FE                cmp	$0xfffffffffffffffe, %rax
0x407125: 0F 84 85 02 00 00          je	0x00000000004073b0
0x40712b: 48 85 C0                   test	%rax, %rax
0x40712e: 75 2C                      jne	0x000000000040715c
0x407130: 48 8B 84 24 D0 00 00 00    mov	0xd0(%rsp), %rax
0x407138: 48 C7 84 24 D8 00 00 00    movq	$0x1, 0xd8(%rsp)
          01 00 00 00
0x407144: 80 38 00                   cmpb	$0x0, (%rax)
0x407147: 0F 85 7D 03 00 00          jne	0x00000000004074ca
0x40714d: 8B 84 24 E4 00 00 00       mov	0xe4(%rsp), %eax
0x407154: 85 C0                      test	%eax, %eax
0x407156: 0F 85 55 03 00 00          jne	0x00000000004074b1
0x40715c: 49 8D 7D 04                lea	0x4(%r13), %rdi
0x407160: C6 84 24 E0 00 00 00 01    movb	$0x1, 0xe0(%rsp)
0x407168: E8 A3 A5 FF FF             callq	0x0000000000401710
0x40716d: 85 C0                      test	%eax, %eax
0x40716f: 0F 84 4F FD FF FF          je	0x0000000000406ec4
0x407175: C6 84 24 C0 00 00 00 00    movb	$0x0, 0xc0(%rsp)
0x40717d: E9 42 FD FF FF             jmpq	0x0000000000406ec4
0x407182: 66 0F 1F 44 00 00          nopw	0x0(%rax,%rax,1)
0x407188: 80 7D 00 00                cmpb	$0x0, 0x0(%rbp)
0x40718c: 4C 8D 53 01                lea	0x1(%rbx), %r10
0x407190: 0F 84 52 FE FF FF          je	0x0000000000406fe8
0x407196: 48 8D 4D 01                lea	0x1(%rbp), %rcx
0x40719a: 49 89 DB                   mov	%rbx, %r11
0x40719d: 45 31 C9                   xor	%r9d, %r9d
0x4071a0: 45 31 F6                   xor	%r14d, %r14d
0x4071a3: 48 C7 44 24 38 00 00 00    movq	$0x0, 0x38(%rsp)
          00
0x4071ac: BA 01 00 00 00             mov	$0x1, %edx
0x4071b1: 49 89 CC                   mov	%rcx, %r12
0x4071b4: 45 31 FF                   xor	%r15d, %r15d
0x4071b7: 48 89 D9                   mov	%rbx, %rcx
0x4071ba: 4A 8D 5C 35 00             lea	0x0(%rbp,%r14,1), %rbx
0x4071bf: 84 D2                      test	%dl, %dl
0x4071c1: 49 89 D8                   mov	%rbx, %r8
0x4071c4: 74 7A                      je	0x0000000000407240
0x4071c6: 49 83 FE 09                cmp	$0x9, %r14
0x4071ca: 76 74                      jbe	0x0000000000407240
0x4071cc: 4D 39 CF                   cmp	%r9, %r15
0x4071cf: 72 6F                      jb	0x0000000000407240
0x4071d1: 4D 85 DB                   test	%r11, %r11
0x4071d4: 0F 84 52 02 00 00          je	0x000000000040742c
0x4071da: 4C 89 FE                   mov	%r15, %rsi
0x4071dd: 48 2B 74 24 38             sub	0x38(%rsp), %rsi
0x4071e2: 4C 89 DF                   mov	%r11, %rdi
0x4071e5: 88 54 24 28                mov	%dl, 0x28(%rsp)
0x4071e9: 48 89 4C 24 10             mov	%rcx, 0x10(%rsp)
0x4071ee: 4C 89 4C 24 18             mov	%r9, 0x18(%rsp)
0x4071f3: 4C 89 54 24 20             mov	%r10, 0x20(%rsp)
0x4071f8: 4C 89 5C 24 30             mov	%r11, 0x30(%rsp)
0x4071fd: 48 89 5C 24 08             mov	%rbx, 0x8(%rsp)
0x407202: E8 C9 A3 FF FF             callq	0x00000000004015d0
0x407207: 4C 8B 5C 24 30             mov	0x30(%rsp), %r11
0x40720c: 4C 89 7C 24 38             mov	%r15, 0x38(%rsp)
0x407211: 0F B6 54 24 28             movzbl	0x28(%rsp), %edx
0x407216: 48 8B 4C 24 10             mov	0x10(%rsp), %rcx
0x40721b: 4C 8B 44 24 08             mov	0x8(%rsp), %r8
0x407220: 4C 8B 4C 24 18             mov	0x18(%rsp), %r9
0x407225: 49 01 C3                   add	%rax, %r11
0x407228: 4C 8B 54 24 20             mov	0x20(%rsp), %r10
0x40722d: 41 80 3B 00                cmpb	$0x0, (%r11)
0x407231: 0F 84 F5 01 00 00          je	0x000000000040742c
0x407237: 4C 89 7C 24 38             mov	%r15, 0x38(%rsp)
0x40723c: 0F 1F 40 00                nopl	0x0(%rax)
0x407240: 49 83 C6 01                add	$0x1, %r14
0x407244: 45 3A 6C 24 FF             cmp	-0x1(%r12), %r13b
0x407249: 49 8D 47 01                lea	0x1(%r15), %rax
0x40724d: 0F 85 86 FD FF FF          jne	0x0000000000406fd9
0x407253: 41 0F B6 32                movzbl	(%r10), %esi
0x407257: 40 84 F6                   test	%sil, %sil
0x40725a: 74 54                      je	0x00000000004072b0
0x40725c: 41 0F B6 3C 24             movzbl	(%r12), %edi
0x407261: 40 84 FF                   test	%dil, %dil
0x407264: 0F 84 7E FD FF FF          je	0x0000000000406fe8
0x40726a: 40 38 FE                   cmp	%dil, %sil
0x40726d: 49 8D 47 02                lea	0x2(%r15), %rax
0x407271: 0F 85 91 00 00 00          jne	0x0000000000407308
0x407277: 4C 89 FE                   mov	%r15, %rsi
0x40727a: 48 F7 DE                   neg	%rsi
0x40727d: 4C 8D 3C 31                lea	(%rcx,%rsi,1), %r15
0x407281: 48 01 F3                   add	%rsi, %rbx
0x407284: EB 20                      jmp	0x00000000004072a6
0x407286: 66 2E 0F 1F 84 00 00 00    nopw	%cs:0x0(%rax,%rax,1)
          00 00
0x407290: 0F B6 3C 03                movzbl	(%rbx,%rax,1), %edi
0x407294: 40 84 FF                   test	%dil, %dil
0x407297: 0F 84 4B FD FF FF          je	0x0000000000406fe8
0x40729d: 48 83 C0 01                add	$0x1, %rax
0x4072a1: 40 38 FE                   cmp	%dil, %sil
0x4072a4: 75 62                      jne	0x0000000000407308
0x4072a6: 41 0F B6 34 07             movzbl	(%r15,%rax,1), %esi
0x4072ab: 40 84 F6                   test	%sil, %sil
0x4072ae: 75 E0                      jne	0x0000000000407290
0x4072b0: 4D 89 C4                   mov	%r8, %r12
0x4072b3: E9 70 FC FF FF             jmpq	0x0000000000406f28
0x4072b8: 0F 1F 84 00 00 00 00 00    nopl	0x0(%rax,%rax,1)
0x4072c0: 48 8B BC 24 90 01 00 00    mov	0x190(%rsp), %rdi
0x4072c8: E8 43 A3 FF FF             callq	0x0000000000401610
0x4072cd: C6 84 24 A0 01 00 00 00    movb	$0x0, 0x1a0(%rsp)
0x4072d5: 48 89 84 24 98 01 00 00    mov	%rax, 0x198(%rsp)
0x4072dd: E9 EE F7 FF FF             jmpq	0x0000000000406ad0
0x4072e2: 66 0F 1F 44 00 00          nopw	0x0(%rax,%rax,1)
0x4072e8: 48 C7 84 24 98 00 00 00    movq	$0x1, 0x98(%rsp)
          01 00 00 00
0x4072f4: C6 84 24 A0 00 00 00 00    movb	$0x0, 0xa0(%rsp)
0x4072fc: E9 54 FB FF FF             jmpq	0x0000000000406e55
0x407301: 0F 1F 80 00 00 00 00       nopl	0x0(%rax)
0x407308: 49 83 C4 01                add	$0x1, %r12
0x40730c: 49 83 C1 05                add	$0x5, %r9
0x407310: 49 89 C7                   mov	%rax, %r15
0x407313: E9 A2 FE FF FF             jmpq	0x00000000004071ba
0x407318: 0F 1F 84 00 00 00 00 00    nopl	0x0(%rax,%rax,1)
0x407320: 48 C7 84 24 D8 00 00 00    movq	$0x1, 0xd8(%rsp)
          01 00 00 00
0x40732c: C6 84 24 E0 00 00 00 00    movb	$0x0, 0xe0(%rsp)
0x407334: E9 8B FB FF FF             jmpq	0x0000000000406ec4
0x407339: 0F 1F 80 00 00 00 00       nopl	0x0(%rax)
0x407340: 48 8B 8C 24 18 01 00 00    mov	0x118(%rsp), %rcx
0x407348: 48 3B 8C 24 98 01 00 00    cmp	0x198(%rsp), %rcx
0x407350: 0F 84 B9 00 00 00          je	0x000000000040740f
0x407356: 48 8B 84 24 18 01 00 00    mov	0x118(%rsp), %rax
0x40735e: 48 83 44 24 48 01          addq	$0x1, 0x48(%rsp)
0x407364: 48 01 84 24 10 01 00 00    add	%rax, 0x110(%rsp)
0x40736c: C6 84 24 0C 01 00 00 00    movb	$0x0, 0x10c(%rsp)
0x407374: 48 83 44 24 50 05          addq	$0x5, 0x50(%rsp)
0x40737a: 48 89 6C 24 38             mov	%rbp, 0x38(%rsp)
0x40737f: E9 FC F7 FF FF             jmpq	0x0000000000406b80
0x407384: 0F 1F 40 00                nopl	0x0(%rax)
0x407388: 48 8B BC 24 90 00 00 00    mov	0x90(%rsp), %rdi
0x407390: E8 7B A2 FF FF             callq	0x0000000000401610
0x407395: C6 84 24 A0 00 00 00 00    movb	$0x0, 0xa0(%rsp)
0x40739d: 48 89 84 24 98 00 00 00    mov	%rax, 0x98(%rsp)
0x4073a5: E9 AB FA FF FF             jmpq	0x0000000000406e55
0x4073aa: 66 0F 1F 44 00 00          nopw	0x0(%rax,%rax,1)
0x4073b0: 48 8B BC 24 D0 00 00 00    mov	0xd0(%rsp), %rdi
0x4073b8: E8 53 A2 FF FF             callq	0x0000000000401610
0x4073bd: C6 84 24 E0 00 00 00 00    movb	$0x0, 0xe0(%rsp)
0x4073c5: 48 89 84 24 D8 00 00 00    mov	%rax, 0xd8(%rsp)
0x4073cd: E9 F2 FA FF FF             jmpq	0x0000000000406ec4
0x4073d2: 66 0F 1F 44 00 00          nopw	0x0(%rax,%rax,1)
0x4073d8: 44 8B 84 24 64 01 00 00    mov	0x164(%rsp), %r8d
0x4073e0: 45 85 C0                   test	%r8d, %r8d
0x4073e3: 0F 84 2D F8 FF FF          je	0x0000000000406c16
0x4073e9: E9 0A F8 FF FF             jmpq	0x0000000000406bf8
0x4073ee: 8B B4 24 A4 00 00 00       mov	0xa4(%rsp), %esi
0x4073f5: 85 F6                      test	%esi, %esi
0x4073f7: 0F 85 70 F9 FF FF          jne	0x0000000000406d6d
0x4073fd: E8 AE A0 FF FF             callq	0x00000000004014b0
0x407402: 4C 89 E3                   mov	%r12, %rbx
0x407405: 4C 8B 64 24 38             mov	0x38(%rsp), %r12
0x40740a: E9 47 FF FF FF             jmpq	0x0000000000407356
0x40740f: 48 8B BC 24 90 01 00 00    mov	0x190(%rsp), %rdi
0x407417: 48 8B B4 24 10 01 00 00    mov	0x110(%rsp), %rsi
0x40741f: 48 39 C9                   cmp	%rcx, %rcx
0x407422: F3 A6                      repz  cmpsb	%es:(%rdi), %ds:(%rsi)
0x407424: 0F 94 C0                   sete	%al
0x407427: E9 74 F8 FF FF             jmpq	0x0000000000406ca0
0x40742c: 48 8D 54 24 78             lea	0x78(%rsp), %rdx
0x407431: 48 89 CE                   mov	%rcx, %rsi
0x407434: 48 89 DF                   mov	%rbx, %rdi
0x407437: 48 89 4C 24 10             mov	%rcx, 0x10(%rsp)
0x40743c: 4C 89 44 24 08             mov	%r8, 0x8(%rsp)
0x407441: 4C 89 4C 24 18             mov	%r9, 0x18(%rsp)
0x407446: 4C 89 54 24 20             mov	%r10, 0x20(%rsp)
0x40744b: E8 F0 E9 FF FF             callq	0x0000000000405e40
0x407450: 84 C0                      test	%al, %al
0x407452: 48 8B 4C 24 10             mov	0x10(%rsp), %rcx
0x407457: 4C 8B 44 24 08             mov	0x8(%rsp), %r8
0x40745c: 4C 8B 4C 24 18             mov	0x18(%rsp), %r9
0x407461: 4C 8B 54 24 20             mov	0x20(%rsp), %r10
0x407466: 75 26                      jne	0x000000000040748e
0x407468: 45 31 DB                   xor	%r11d, %r11d
0x40746b: 31 D2                      xor	%edx, %edx
0x40746d: E9 CE FD FF FF             jmpq	0x0000000000407240
0x407472: 48 8B 54 24 38             mov	0x38(%rsp), %rdx
0x407477: 0F B6 84 24 20 01 00 00    movzbl	0x120(%rsp), %eax
0x40747f: 48 89 54 24 58             mov	%rdx, 0x58(%rsp)
0x407484: E9 E7 F7 FF FF             jmpq	0x0000000000406c70
0x407489: E8 B2 A2 FF FF             callq	0x0000000000401740
0x40748e: 4C 8B 64 24 78             mov	0x78(%rsp), %r12
0x407493: E9 90 FA FF FF             jmpq	0x0000000000406f28
0x407498: B9 C0 BA 40 00             mov	$0x40bac0, %ecx
0x40749d: BA 8E 00 00 00             mov	$0x8e, %edx
0x4074a2: BE 18 B1 40 00             mov	$0x40b118, %esi
0x4074a7: BF 22 B1 40 00             mov	$0x40b122, %edi
0x4074ac: E8 6F A0 FF FF             callq	0x0000000000401520
0x4074b1: B9 C0 BA 40 00             mov	$0x40bac0, %ecx
0x4074b6: BA AB 00 00 00             mov	$0xab, %edx
0x4074bb: BE 18 B1 40 00             mov	$0x40b118, %esi
0x4074c0: BF 50 B1 40 00             mov	$0x40b150, %edi
0x4074c5: E8 56 A0 FF FF             callq	0x0000000000401520
0x4074ca: B9 C0 BA 40 00             mov	$0x40bac0, %ecx
0x4074cf: BA AA 00 00 00             mov	$0xaa, %edx
0x4074d4: BE 18 B1 40 00             mov	$0x40b118, %esi
0x4074d9: BF 39 B1 40 00             mov	$0x40b139, %edi
0x4074de: E8 3D A0 FF FF             callq	0x0000000000401520
0x4074e3: 90                         nop	
0x4074e4: 90                         nop	
0x4074e5: 90                         nop	
0x4074e6: 90                         nop	
0x4074e7: 90                         nop	
0x4074e8: 90                         nop	
0x4074e9: 90                         nop	
0x4074ea: 90                         nop	
0x4074eb: 90                         nop	
0x4074ec: 90                         nop	
0x4074ed: 90                         nop	
0x4074ee: 90                         nop	
0x4074ef: 90                         nop	
0x4074f0: 41 57                      push	%r15
0x4074f2: 41 56                      push	%r14
0x4074f4: 41 55                      push	%r13
0x4074f6: 41 54                      push	%r12
0x4074f8: 49 89 F4                   mov	%rsi, %r12
0x4074fb: 55                         push	%rbp
0x4074fc: 53                         push	%rbx
0x4074fd: 48 83 EC 48                sub	$0x48, %rsp
0x407501: 48 89 7C 24 38             mov	%rdi, 0x38(%rsp)
0x407506: E8 05 A1 FF FF             callq	0x0000000000401610
0x40750b: 49 89 C5                   mov	%rax, %r13
0x40750e: 48 89 44 24 30             mov	%rax, 0x30(%rsp)
0x407513: 49 C1 E5 04                shl	$0x4, %r13
0x407517: 48 3D 00 00 00 10          cmp	$0x10000000, %rax
0x40751d: 4C 0F 43 E8                cmovae	%rax, %r13
0x407521: 49 8D 6D 01                lea	0x1(%r13), %rbp
0x407525: 48 89 EF                   mov	%rbp, %rdi
0x407528: E8 33 A0 FF FF             callq	0x0000000000401560
0x40752d: 48 85 C0                   test	%rax, %rax
0x407530: 48 89 C3                   mov	%rax, %rbx
0x407533: 0F 84 F1 01 00 00          je	0x000000000040772a
0x407539: 45 31 C0                   xor	%r8d, %r8d
0x40753c: 31 C9                      xor	%ecx, %ecx
0x40753e: 31 D2                      xor	%edx, %edx
0x407540: 31 F6                      xor	%esi, %esi
0x407542: 4C 89 E7                   mov	%r12, %rdi
0x407545: 4C 8D 74 24 28             lea	0x28(%rsp), %r14
0x40754a: E8 31 A1 FF FF             callq	0x0000000000401680
0x40754f: 4C 8D 7C 24 30             lea	0x30(%rsp), %r15
0x407554: 4C 89 6C 24 20             mov	%r13, 0x20(%rsp)
0x407559: 48 89 5C 24 28             mov	%rbx, 0x28(%rsp)
0x40755e: 4C 8D 6C 24 20             lea	0x20(%rsp), %r13
0x407563: E9 8A 00 00 00             jmpq	0x00000000004075f2
0x407568: 0F 1F 84 00 00 00 00 00    nopl	0x0(%rax,%rax,1)
0x407570: E8 AB A1 FF FF             callq	0x0000000000401720
0x407575: 48 89 C1                   mov	%rax, %rcx
0x407578: 8B 00                      mov	(%rax), %eax
0x40757a: 83 F8 16                   cmp	$0x16, %eax
0x40757d: 0F 84 0C 01 00 00          je	0x000000000040768f
0x407583: 83 F8 07                   cmp	$0x7, %eax
0x407586: 0F 85 5F 01 00 00          jne	0x00000000004076eb
0x40758c: 48 8B 44 24 28             mov	0x28(%rsp), %rax
0x407591: 48 8D 54 2D 00             lea	0x0(%rbp,%rbp,1), %rdx
0x407596: 48 39 D5                   cmp	%rdx, %rbp
0x407599: 48 89 44 24 18             mov	%rax, 0x18(%rsp)
0x40759e: 0F 83 3C 01 00 00          jae	0x00000000004076e0
0x4075a4: 48 89 D6                   mov	%rdx, %rsi
0x4075a7: 48 89 DF                   mov	%rbx, %rdi
0x4075aa: 48 89 54 24 10             mov	%rdx, 0x10(%rsp)
0x4075af: 48 89 4C 24 08             mov	%rcx, 0x8(%rsp)
0x4075b4: E8 17 A2 FF FF             callq	0x00000000004017d0
0x4075b9: 48 85 C0                   test	%rax, %rax
0x4075bc: 48 8B 54 24 10             mov	0x10(%rsp), %rdx
0x4075c1: 48 8B 4C 24 08             mov	0x8(%rsp), %rcx
0x4075c6: 0F 84 54 01 00 00          je	0x0000000000407720
0x4075cc: 48 8B 4C 24 18             mov	0x18(%rsp), %rcx
0x4075d1: 48 89 D5                   mov	%rdx, %rbp
0x4075d4: 48 29 D9                   sub	%rbx, %rcx
0x4075d7: 48 89 CB                   mov	%rcx, %rbx
0x4075da: 48 8D 0C 08                lea	(%rax,%rcx,1), %rcx
0x4075de: 48 89 4C 24 28             mov	%rcx, 0x28(%rsp)
0x4075e3: 48 8D 4A FF                lea	-0x1(%rdx), %rcx
0x4075e7: 48 29 D9                   sub	%rbx, %rcx
0x4075ea: 48 89 C3                   mov	%rax, %rbx
0x4075ed: 48 89 4C 24 20             mov	%rcx, 0x20(%rsp)
0x4075f2: 48 8D 74 24 38             lea	0x38(%rsp), %rsi
0x4075f7: 4D 89 E8                   mov	%r13, %r8
0x4075fa: 4C 89 F1                   mov	%r14, %rcx
0x4075fd: 4C 89 FA                   mov	%r15, %rdx
0x407600: 4C 89 E7                   mov	%r12, %rdi
0x407603: E8 78 A0 FF FF             callq	0x0000000000401680
0x407608: 48 83 F8 FF                cmp	$0xffffffffffffffff, %rax
0x40760c: 0F 84 5E FF FF FF          je	0x0000000000407570
0x407612: EB 7B                      jmp	0x000000000040768f
0x407614: 0F 1F 40 00                nopl	0x0(%rax)
0x407618: 0F 1F 84 00 00 00 00 00    nopl	0x0(%rax,%rax,1)
0x407620: E8 FB A0 FF FF             callq	0x0000000000401720
0x407625: 48 89 C1                   mov	%rax, %rcx
0x407628: 8B 00                      mov	(%rax), %eax
0x40762a: 83 F8 07                   cmp	$0x7, %eax
0x40762d: 0F 85 B8 00 00 00          jne	0x00000000004076eb
0x407633: 48 8B 44 24 28             mov	0x28(%rsp), %rax
0x407638: 4C 8D 7C 2D 00             lea	0x0(%rbp,%rbp,1), %r15
0x40763d: 4C 39 FD                   cmp	%r15, %rbp
0x407640: 48 89 44 24 18             mov	%rax, 0x18(%rsp)
0x407645: 0F 83 95 00 00 00          jae	0x00000000004076e0
0x40764b: 4C 89 FE                   mov	%r15, %rsi
0x40764e: 48 89 DF                   mov	%rbx, %rdi
0x407651: 48 89 4C 24 08             mov	%rcx, 0x8(%rsp)
0x407656: E8 75 A1 FF FF             callq	0x00000000004017d0
0x40765b: 48 85 C0                   test	%rax, %rax
0x40765e: 48 8B 4C 24 08             mov	0x8(%rsp), %rcx
0x407663: 0F 84 B7 00 00 00          je	0x0000000000407720
0x407669: 48 8B 54 24 18             mov	0x18(%rsp), %rdx
0x40766e: 4C 89 FD                   mov	%r15, %rbp
0x407671: 48 29 DA                   sub	%rbx, %rdx
0x407674: 48 89 D3                   mov	%rdx, %rbx
0x407677: 48 8D 14 10                lea	(%rax,%rdx,1), %rdx
0x40767b: 48 89 54 24 28             mov	%rdx, 0x28(%rsp)
0x407680: 49 8D 57 FF                lea	-0x1(%r15), %rdx
0x407684: 48 29 DA                   sub	%rbx, %rdx
0x407687: 48 89 C3                   mov	%rax, %rbx
0x40768a: 48 89 54 24 20             mov	%rdx, 0x20(%rsp)
0x40768f: 31 D2                      xor	%edx, %edx
0x407691: 31 F6                      xor	%esi, %esi
0x407693: 4D 89 E8                   mov	%r13, %r8
0x407696: 4C 89 F1                   mov	%r14, %rcx
0x407699: 4C 89 E7                   mov	%r12, %rdi
0x40769c: E8 DF 9F FF FF             callq	0x0000000000401680
0x4076a1: 48 83 F8 FF                cmp	$0xffffffffffffffff, %rax
0x4076a5: 0F 84 6D FF FF FF          je	0x0000000000407618
0x4076ab: 48 8B 44 24 28             mov	0x28(%rsp), %rax
0x4076b0: C6 00 00                   movb	$0x0, (%rax)
0x4076b3: 48 83 C0 01                add	$0x1, %rax
0x4076b7: 48 89 C6                   mov	%rax, %rsi
0x4076ba: 48 29 DE                   sub	%rbx, %rsi
0x4076bd: 48 39 EE                   cmp	%rbp, %rsi
0x4076c0: 73 47                      jae	0x0000000000407709
0x4076c2: 48 89 DF                   mov	%rbx, %rdi
0x4076c5: 48 89 44 24 28             mov	%rax, 0x28(%rsp)
0x4076ca: E8 01 A1 FF FF             callq	0x00000000004017d0
0x4076cf: 48 85 C0                   test	%rax, %rax
0x4076d2: 48 0F 45 D8                cmovne	%rax, %rbx
0x4076d6: EB 31                      jmp	0x0000000000407709
0x4076d8: 0F 1F 84 00 00 00 00 00    nopl	0x0(%rax,%rax,1)
0x4076e0: C7 01 0C 00 00 00          movl	$0xc, (%rcx)
0x4076e6: B8 0C 00 00 00             mov	$0xc, %eax
0x4076eb: 48 89 DF                   mov	%rbx, %rdi
0x4076ee: 89 44 24 10                mov	%eax, 0x10(%rsp)
0x4076f2: 48 89 4C 24 08             mov	%rcx, 0x8(%rsp)
0x4076f7: E8 04 9F FF FF             callq	0x0000000000401600
0x4076fc: 8B 44 24 10                mov	0x10(%rsp), %eax
0x407700: 48 8B 4C 24 08             mov	0x8(%rsp), %rcx
0x407705: 31 DB                      xor	%ebx, %ebx
0x407707: 89 01                      mov	%eax, (%rcx)
0x407709: 48 83 C4 48                add	$0x48, %rsp
0x40770d: 48 89 D8                   mov	%rbx, %rax
0x407710: 5B                         pop	%rbx
0x407711: 5D                         pop	%rbp
0x407712: 41 5C                      pop	%r12
0x407714: 41 5D                      pop	%r13
0x407716: 41 5E                      pop	%r14
0x407718: 41 5F                      pop	%r15
0x40771a: C3                         retq	
0x40771b: 0F 1F 44 00 00             nopl	0x0(%rax,%rax,1)
0x407720: C7 01 0C 00 00 00          movl	$0xc, (%rcx)
0x407726: B0 0C                      mov	$0xc, %al
0x407728: EB C1                      jmp	0x00000000004076eb
0x40772a: E8 F1 9F FF FF             callq	0x0000000000401720
0x40772f: C7 00 0C 00 00 00          movl	$0xc, (%rax)
0x407735: EB D2                      jmp	0x0000000000407709
0x407737: 66 0F 1F 84 00 00 00 00    nopw	0x0(%rax,%rax,1)
          00
0x407740: 48 89 5C 24 E8             mov	%rbx, -0x18(%rsp)
0x407745: 48 89 6C 24 F0             mov	%rbp, -0x10(%rsp)
0x40774a: 48 89 FB                   mov	%rdi, %rbx
0x40774d: 4C 89 64 24 F8             mov	%r12, -0x8(%rsp)
0x407752: 48 83 EC 18                sub	$0x18, %rsp
0x407756: 80 3F 00                   cmpb	$0x0, (%rdi)
0x407759: 48 89 F5                   mov	%rsi, %rbp
0x40775c: 49 89 D4                   mov	%rdx, %r12
0x40775f: 74 0F                      je	0x0000000000407770
0x407761: 48 89 D6                   mov	%rdx, %rsi
0x407764: 48 89 EF                   mov	%rbp, %rdi
0x407767: E8 B4 E0 FF FF             callq	0x0000000000405820
0x40776c: 85 C0                      test	%eax, %eax
0x40776e: 75 40                      jne	0x00000000004077b0
0x407770: 48 89 DF                   mov	%rbx, %rdi
0x407773: E8 78 9E FF FF             callq	0x00000000004015f0
0x407778: 48 85 C0                   test	%rax, %rax
0x40777b: 49 89 C4                   mov	%rax, %r12
0x40777e: 74 20                      je	0x00000000004077a0
0x407780: 4C 89 E0                   mov	%r12, %rax
0x407783: 48 8B 1C 24                mov	(%rsp), %rbx
0x407787: 48 8B 6C 24 08             mov	0x8(%rsp), %rbp
0x40778c: 4C 8B 64 24 10             mov	0x10(%rsp), %r12
0x407791: 48 83 C4 18                add	$0x18, %rsp
0x407795: C3                         retq	
0x407796: 66 2E 0F 1F 84 00 00 00    nopw	%cs:0x0(%rax,%rax,1)
          00 00
0x4077a0: E8 7B 9F FF FF             callq	0x0000000000401720
0x4077a5: C7 00 0C 00 00 00          movl	$0xc, (%rax)
0x4077ab: EB D3                      jmp	0x0000000000407780
0x4077ad: 0F 1F 00                   nopl	(%rax)
0x4077b0: 48 89 EE                   mov	%rbp, %rsi
0x4077b3: 4C 89 E7                   mov	%r12, %rdi
0x4077b6: 45 31 E4                   xor	%r12d, %r12d
0x4077b9: E8 02 9E FF FF             callq	0x00000000004015c0
0x4077be: 48 83 F8 FF                cmp	$0xffffffffffffffff, %rax
0x4077c2: 48 89 C5                   mov	%rax, %rbp
0x4077c5: 74 B9                      je	0x0000000000407780
0x4077c7: 48 89 DF                   mov	%rbx, %rdi
0x4077ca: 48 89 C6                   mov	%rax, %rsi
0x4077cd: E8 1E FD FF FF             callq	0x00000000004074f0
0x4077d2: 48 85 C0                   test	%rax, %rax
0x4077d5: 48 89 C3                   mov	%rax, %rbx
0x4077d8: 74 11                      je	0x00000000004077eb
0x4077da: 48 89 EF                   mov	%rbp, %rdi
0x4077dd: E8 5E A0 FF FF             callq	0x0000000000401840
0x4077e2: 85 C0                      test	%eax, %eax
0x4077e4: 78 28                      js	0x000000000040780e
0x4077e6: 49 89 DC                   mov	%rbx, %r12
0x4077e9: EB 95                      jmp	0x0000000000407780
0x4077eb: 0F 1F 44 00 00             nopl	0x0(%rax,%rax,1)
0x4077f0: E8 2B 9F FF FF             callq	0x0000000000401720
0x4077f5: 44 8B 20                   mov	(%rax), %r12d
0x4077f8: 48 89 C3                   mov	%rax, %rbx
0x4077fb: 48 89 EF                   mov	%rbp, %rdi
0x4077fe: E8 3D A0 FF FF             callq	0x0000000000401840
0x407803: 44 89 23                   mov	%r12d, (%rbx)
0x407806: 45 31 E4                   xor	%r12d, %r12d
0x407809: E9 72 FF FF FF             jmpq	0x0000000000407780
0x40780e: E8 0D 9F FF FF             callq	0x0000000000401720
0x407813: 44 8B 20                   mov	(%rax), %r12d
0x407816: 48 89 C5                   mov	%rax, %rbp
0x407819: 48 89 DF                   mov	%rbx, %rdi
0x40781c: E8 DF 9D FF FF             callq	0x0000000000401600
0x407821: 44 89 65 00                mov	%r12d, 0x0(%rbp)
0x407825: 45 31 E4                   xor	%r12d, %r12d
0x407828: E9 53 FF FF FF             jmpq	0x0000000000407780
0x40782d: 0F 1F 00                   nopl	(%rax)
0x407830: 41 57                      push	%r15
0x407832: 41 56                      push	%r14
0x407834: 41 55                      push	%r13
0x407836: 41 54                      push	%r12
0x407838: 49 89 D4                   mov	%rdx, %r12
0x40783b: 31 D2                      xor	%edx, %edx
0x40783d: 55                         push	%rbp
0x40783e: 53                         push	%rbx
0x40783f: 48 81 EC 68 10 00 00       sub	$0x1068, %rsp
0x407846: 48 89 7C 24 18             mov	%rdi, 0x18(%rsp)
0x40784b: 48 89 74 24 10             mov	%rsi, 0x10(%rsp)
0x407850: 4C 89 E7                   mov	%r12, %rdi
0x407853: 48 89 4C 24 28             mov	%rcx, 0x28(%rsp)
0x407858: 4C 89 44 24 20             mov	%r8, 0x20(%rsp)
0x40785d: 31 C9                      xor	%ecx, %ecx
0x40785f: 45 31 C0                   xor	%r8d, %r8d
0x407862: 31 F6                      xor	%esi, %esi
0x407864: 64 48 8B 04 25 28 00 00    mov	%fs:0x28, %rax
          00
0x40786d: 48 89 84 24 58 10 00 00    mov	%rax, 0x1058(%rsp)
0x407875: 31 C0                      xor	%eax, %eax
0x407877: E8 04 9E FF FF             callq	0x0000000000401680
0x40787c: 48 8B 44 24 10             mov	0x10(%rsp), %rax
0x407881: 48 8B 54 24 18             mov	0x18(%rsp), %rdx
0x407886: 48 85 C0                   test	%rax, %rax
0x407889: 48 89 54 24 38             mov	%rdx, 0x38(%rsp)
0x40788e: 48 89 44 24 30             mov	%rax, 0x30(%rsp)
0x407893: 0F 84 7F 00 00 00          je	0x0000000000407918
0x407899: 48 8D 44 24 40             lea	0x40(%rsp), %rax
0x40789e: 31 ED                      xor	%ebp, %ebp
0x4078a0: 48 8D 5C 24 50             lea	0x50(%rsp), %rbx
0x4078a5: 4C 8D 7C 24 48             lea	0x48(%rsp), %r15
0x4078aa: 4C 8D 6C 24 30             lea	0x30(%rsp), %r13
0x4078af: 4C 8D 74 24 38             lea	0x38(%rsp), %r14
0x4078b4: 48 89 44 24 08             mov	%rax, 0x8(%rsp)
0x4078b9: EB 18                      jmp	0x00000000004078d3
0x4078bb: 0F 1F 44 00 00             nopl	0x0(%rax,%rax,1)
0x4078c0: 48 8B 44 24 48             mov	0x48(%rsp), %rax
0x4078c5: 48 29 D8                   sub	%rbx, %rax
0x4078c8: 48 01 C5                   add	%rax, %rbp
0x4078cb: 48 83 7C 24 30 00          cmpq	$0x0, 0x30(%rsp)
0x4078d1: 74 5D                      je	0x0000000000407930
0x4078d3: 4C 8B 44 24 08             mov	0x8(%rsp), %r8
0x4078d8: 4C 89 F9                   mov	%r15, %rcx
0x4078db: 4C 89 EA                   mov	%r13, %rdx
0x4078de: 4C 89 F6                   mov	%r14, %rsi
0x4078e1: 4C 89 E7                   mov	%r12, %rdi
0x4078e4: 48 89 5C 24 48             mov	%rbx, 0x48(%rsp)
0x4078e9: 48 C7 44 24 40 00 10 00    movq	$0x1000, 0x40(%rsp)
          00
0x4078f2: E8 89 9D FF FF             callq	0x0000000000401680
0x4078f7: 48 83 F8 FF                cmp	$0xffffffffffffffff, %rax
0x4078fb: 75 C3                      jne	0x00000000004078c0
0x4078fd: E8 1E 9E FF FF             callq	0x0000000000401720
0x407902: 8B 00                      mov	(%rax), %eax
0x407904: 83 F8 07                   cmp	$0x7, %eax
0x407907: 74 B7                      je	0x00000000004078c0
0x407909: 83 F8 16                   cmp	$0x16, %eax
0x40790c: 74 22                      je	0x0000000000407930
0x40790e: B8 FF FF FF FF             mov	$0xffffffff, %eax
0x407913: E9 3E 01 00 00             jmpq	0x0000000000407a56
0x407918: 48 8D 54 24 40             lea	0x40(%rsp), %rdx
0x40791d: 48 8D 5C 24 50             lea	0x50(%rsp), %rbx
0x407922: 4C 8D 7C 24 48             lea	0x48(%rsp), %r15
0x407927: 31 ED                      xor	%ebp, %ebp
0x407929: 48 89 54 24 08             mov	%rdx, 0x8(%rsp)
0x40792e: 66 90                      xchg	%ax, %ax
0x407930: 4C 8B 44 24 08             mov	0x8(%rsp), %r8
0x407935: 31 D2                      xor	%edx, %edx
0x407937: 31 F6                      xor	%esi, %esi
0x407939: 4C 89 F9                   mov	%r15, %rcx
0x40793c: 4C 89 E7                   mov	%r12, %rdi
0x40793f: 48 89 5C 24 48             mov	%rbx, 0x48(%rsp)
0x407944: 48 C7 44 24 40 00 10 00    movq	$0x1000, 0x40(%rsp)
          00
0x40794d: E8 2E 9D FF FF             callq	0x0000000000401680
0x407952: 48 83 F8 FF                cmp	$0xffffffffffffffff, %rax
0x407956: 74 B6                      je	0x000000000040790e
0x407958: 48 8B 44 24 48             mov	0x48(%rsp), %rax
0x40795d: 48 29 D8                   sub	%rbx, %rax
0x407960: 48 01 C5                   add	%rax, %rbp
0x407963: 0F 84 DF 00 00 00          je	0x0000000000407a48
0x407969: 48 8B 44 24 28             mov	0x28(%rsp), %rax
0x40796e: 48 8B 18                   mov	(%rax), %rbx
0x407971: 48 85 DB                   test	%rbx, %rbx
0x407974: 0F 84 06 01 00 00          je	0x0000000000407a80
0x40797a: 48 8B 54 24 20             mov	0x20(%rsp), %rdx
0x40797f: 48 3B 2A                   cmp	(%rdx), %rbp
0x407982: 0F 87 F8 00 00 00          ja	0x0000000000407a80
0x407988: 31 D2                      xor	%edx, %edx
0x40798a: 45 31 C0                   xor	%r8d, %r8d
0x40798d: 31 C9                      xor	%ecx, %ecx
0x40798f: 31 F6                      xor	%esi, %esi
0x407991: 4C 89 E7                   mov	%r12, %rdi
0x407994: 4C 8D 6C 24 30             lea	0x30(%rsp), %r13
0x407999: E8 E2 9C FF FF             callq	0x0000000000401680
0x40799e: 48 8B 44 24 18             mov	0x18(%rsp), %rax
0x4079a3: 48 8B 54 24 10             mov	0x10(%rsp), %rdx
0x4079a8: 4C 8D 74 24 38             lea	0x38(%rsp), %r14
0x4079ad: 48 89 5C 24 38             mov	%rbx, 0x38(%rsp)
0x4079b2: 48 89 6C 24 30             mov	%rbp, 0x30(%rsp)
0x4079b7: 48 89 44 24 48             mov	%rax, 0x48(%rsp)
0x4079bc: 48 89 54 24 40             mov	%rdx, 0x40(%rsp)
0x4079c1: 48 89 D0                   mov	%rdx, %rax
0x4079c4: EB 0F                      jmp	0x00000000004079d5
0x4079c6: 66 2E 0F 1F 84 00 00 00    nopw	%cs:0x0(%rax,%rax,1)
          00 00
0x4079d0: 48 8B 44 24 40             mov	0x40(%rsp), %rax
0x4079d5: 48 85 C0                   test	%rax, %rax
0x4079d8: 74 2C                      je	0x0000000000407a06
0x4079da: 48 8B 54 24 08             mov	0x8(%rsp), %rdx
0x4079df: 4D 89 E8                   mov	%r13, %r8
0x4079e2: 4C 89 F1                   mov	%r14, %rcx
0x4079e5: 4C 89 FE                   mov	%r15, %rsi
0x4079e8: 4C 89 E7                   mov	%r12, %rdi
0x4079eb: E8 90 9C FF FF             callq	0x0000000000401680
0x4079f0: 48 83 F8 FF                cmp	$0xffffffffffffffff, %rax
0x4079f4: 75 DA                      jne	0x00000000004079d0
0x4079f6: E8 25 9D FF FF             callq	0x0000000000401720
0x4079fb: 83 38 16                   cmpl	$0x16, (%rax)
0x4079fe: 66 90                      xchg	%ax, %ax
0x407a00: 0F 85 A2 00 00 00          jne	0x0000000000407aa8
0x407a06: 31 D2                      xor	%edx, %edx
0x407a08: 31 F6                      xor	%esi, %esi
0x407a0a: 4D 89 E8                   mov	%r13, %r8
0x407a0d: 4C 89 F1                   mov	%r14, %rcx
0x407a10: 4C 89 E7                   mov	%r12, %rdi
0x407a13: E8 68 9C FF FF             callq	0x0000000000401680
0x407a18: 48 83 F8 FF                cmp	$0xffffffffffffffff, %rax
0x407a1c: 0F 84 86 00 00 00          je	0x0000000000407aa8
0x407a22: 48 83 7C 24 30 00          cmpq	$0x0, 0x30(%rsp)
0x407a28: 0F 85 A4 00 00 00          jne	0x0000000000407ad2
0x407a2e: 48 8B 44 24 28             mov	0x28(%rsp), %rax
0x407a33: 48 8B 54 24 20             mov	0x20(%rsp), %rdx
0x407a38: 48 89 18                   mov	%rbx, (%rax)
0x407a3b: 48 89 2A                   mov	%rbp, (%rdx)
0x407a3e: 31 C0                      xor	%eax, %eax
0x407a40: EB 14                      jmp	0x0000000000407a56
0x407a42: 66 0F 1F 44 00 00          nopw	0x0(%rax,%rax,1)
0x407a48: 48 8B 54 24 20             mov	0x20(%rsp), %rdx
0x407a4d: 31 C0                      xor	%eax, %eax
0x407a4f: 48 C7 02 00 00 00 00       movq	$0x0, (%rdx)
0x407a56: 48 8B 94 24 58 10 00 00    mov	0x1058(%rsp), %rdx
0x407a5e: 64 48 33 14 25 28 00 00    xor	%fs:0x28, %rdx
          00
0x407a67: 75 6E                      jne	0x0000000000407ad7
0x407a69: 48 81 C4 68 10 00 00       add	$0x1068, %rsp
0x407a70: 5B                         pop	%rbx
0x407a71: 5D                         pop	%rbp
0x407a72: 41 5C                      pop	%r12
0x407a74: 41 5D                      pop	%r13
0x407a76: 41 5E                      pop	%r14
0x407a78: 41 5F                      pop	%r15
0x407a7a: C3                         retq	
0x407a7b: 0F 1F 44 00 00             nopl	0x0(%rax,%rax,1)
0x407a80: 48 89 EF                   mov	%rbp, %rdi
0x407a83: E8 D8 9A FF FF             callq	0x0000000000401560
0x407a88: 48 85 C0                   test	%rax, %rax
0x407a8b: 48 89 C3                   mov	%rax, %rbx
0x407a8e: 0F 85 F4 FE FF FF          jne	0x0000000000407988
0x407a94: E8 87 9C FF FF             callq	0x0000000000401720
0x407a99: C7 00 0C 00 00 00          movl	$0xc, (%rax)
0x407a9f: 83 C8 FF                   or	$0xffffffffffffffff, %eax
0x407aa2: EB B2                      jmp	0x0000000000407a56
0x407aa4: 0F 1F 40 00                nopl	0x0(%rax)
0x407aa8: 48 8B 44 24 28             mov	0x28(%rsp), %rax
0x407aad: 48 39 18                   cmp	%rbx, (%rax)
0x407ab0: 0F 84 58 FE FF FF          je	0x000000000040790e
0x407ab6: E8 65 9C FF FF             callq	0x0000000000401720
0x407abb: 44 8B 20                   mov	(%rax), %r12d
0x407abe: 48 89 C5                   mov	%rax, %rbp
0x407ac1: 48 89 DF                   mov	%rbx, %rdi
0x407ac4: E8 37 9B FF FF             callq	0x0000000000401600
0x407ac9: 83 C8 FF                   or	$0xffffffffffffffff, %eax
0x407acc: 44 89 65 00                mov	%r12d, 0x0(%rbp)
0x407ad0: EB 84                      jmp	0x0000000000407a56
0x407ad2: E8 D9 99 FF FF             callq	0x00000000004014b0
0x407ad7: E8 64 9C FF FF             callq	0x0000000000401740
0x407adc: 90                         nop	
0x407add: 90                         nop	
0x407ade: 90                         nop	
0x407adf: 90                         nop	
0x407ae0: 48 83 EC 08                sub	$0x8, %rsp
0x407ae4: E8 07 9D FF FF             callq	0x00000000004017f0
0x407ae9: 48 85 C0                   test	%rax, %rax
0x407aec: 74 05                      je	0x0000000000407af3
0x407aee: 48 83 C4 08                add	$0x8, %rsp
0x407af2: C3                         retq	
0x407af3: 0F 1F 44 00 00             nopl	0x0(%rax,%rax,1)
0x407af8: E8 53 C4 FF FF             callq	0x0000000000403f50
0x407afd: 90                         nop	
0x407afe: 90                         nop	
0x407aff: 90                         nop	
0x407b00: 48 89 5C 24 E8             mov	%rbx, -0x18(%rsp)
0x407b05: 48 89 6C 24 F0             mov	%rbp, -0x10(%rsp)
0x407b0a: 48 89 FD                   mov	%rdi, %rbp
0x407b0d: 4C 89 64 24 F8             mov	%r12, -0x8(%rsp)
0x407b12: 48 83 EC 18                sub	$0x18, %rsp
0x407b16: E8 75 9B FF FF             callq	0x0000000000401690
0x407b1b: 8B 5D 00                   mov	0x0(%rbp), %ebx
0x407b1e: 48 89 EF                   mov	%rbp, %rdi
0x407b21: 49 89 C4                   mov	%rax, %r12
0x407b24: E8 57 9C FF FF             callq	0x0000000000401780
0x407b29: 83 E3 20                   and	$0x20, %ebx
0x407b2c: 85 C0                      test	%eax, %eax
0x407b2e: 0F 95 C0                   setne	%al
0x407b31: 85 DB                      test	%ebx, %ebx
0x407b33: 75 3B                      jne	0x0000000000407b70
0x407b35: 84 C0                      test	%al, %al
0x407b37: 74 11                      je	0x0000000000407b4a
0x407b39: 4D 85 E4                   test	%r12, %r12
0x407b3c: 75 22                      jne	0x0000000000407b60
0x407b3e: 66 90                      xchg	%ax, %ax
0x407b40: E8 DB 9B FF FF             callq	0x0000000000401720
0x407b45: 83 38 09                   cmpl	$0x9, (%rax)
0x407b48: 75 16                      jne	0x0000000000407b60
0x407b4a: 31 C0                      xor	%eax, %eax
0x407b4c: 48 8B 1C 24                mov	(%rsp), %rbx
0x407b50: 48 8B 6C 24 08             mov	0x8(%rsp), %rbp
0x407b55: 4C 8B 64 24 10             mov	0x10(%rsp), %r12
0x407b5a: 48 83 C4 18                add	$0x18, %rsp
0x407b5e: C3                         retq	
0x407b5f: 90                         nop	
0x407b60: B8 FF FF FF FF             mov	$0xffffffff, %eax
0x407b65: EB E5                      jmp	0x0000000000407b4c
0x407b67: 66 0F 1F 84 00 00 00 00    nopw	0x0(%rax,%rax,1)
          00
0x407b70: 84 C0                      test	%al, %al
0x407b72: 75 EC                      jne	0x0000000000407b60
0x407b74: 0F 1F 40 00                nopl	0x0(%rax)
0x407b78: E8 A3 9B FF FF             callq	0x0000000000401720
0x407b7d: C7 00 00 00 00 00          movl	$0x0, (%rax)
0x407b83: B8 FF FF FF FF             mov	$0xffffffff, %eax
0x407b88: EB C2                      jmp	0x0000000000407b4c
0x407b8a: 90                         nop	
0x407b8b: 90                         nop	
0x407b8c: 90                         nop	
0x407b8d: 90                         nop	
0x407b8e: 90                         nop	
0x407b8f: 90                         nop	
0x407b90: 48 83 EC 08                sub	$0x8, %rsp
0x407b94: BF 00 00 01 00             mov	$0x10000, %edi
0x407b99: E8 42 99 FF FF             callq	0x00000000004014e0
0x407b9e: 0F B6 00                   movzbl	(%rax), %eax
0x407ba1: BA 2E 00 00 00             mov	$0x2e, %edx
0x407ba6: 84 C0                      test	%al, %al
0x407ba8: 0F 44 C2                   cmove	%edx, %eax
0x407bab: 48 83 C4 08                add	$0x8, %rsp
0x407baf: C3                         retq	
0x407bb0: 55                         push	%rbp
0x407bb1: 48 89 E5                   mov	%rsp, %rbp
0x407bb4: 41 57                      push	%r15
0x407bb6: 41 56                      push	%r14
0x407bb8: 49 89 D6                   mov	%rdx, %r14
0x407bbb: 41 55                      push	%r13
0x407bbd: 45 31 ED                   xor	%r13d, %r13d
0x407bc0: 41 54                      push	%r12
0x407bc2: 49 89 CC                   mov	%rcx, %r12
0x407bc5: 53                         push	%rbx
0x407bc6: 48 8D 9D E0 FC FF FF       lea	-0x320(%rbp), %rbx
0x407bcd: 48 81 EC F8 03 00 00       sub	$0x3f8, %rsp
0x407bd4: 48 89 B5 90 FC FF FF       mov	%rsi, -0x370(%rbp)
0x407bdb: 48 8D B5 C0 FC FF FF       lea	-0x340(%rbp), %rsi
0x407be2: 48 89 BD A0 FC FF FF       mov	%rdi, -0x360(%rbp)
0x407be9: 48 89 DA                   mov	%rbx, %rdx
0x407bec: 4C 89 F7                   mov	%r14, %rdi
0x407bef: 64 48 8B 04 25 28 00 00    mov	%fs:0x28, %rax
          00
0x407bf8: 48 89 45 C8                mov	%rax, -0x38(%rbp)
0x407bfc: 31 C0                      xor	%eax, %eax
0x407bfe: E8 2D 21 00 00             callq	0x0000000000409d30
0x407c03: 85 C0                      test	%eax, %eax
0x407c05: 78 61                      js	0x0000000000407c68
0x407c07: 48 89 DE                   mov	%rbx, %rsi
0x407c0a: 4C 89 E7                   mov	%r12, %rdi
0x407c0d: E8 EE 1E 00 00             callq	0x0000000000409b00
0x407c12: 85 C0                      test	%eax, %eax
0x407c14: 0F 88 99 15 00 00          js	0x00000000004091b3
0x407c1a: 48 8B 85 D0 FC FF FF       mov	-0x330(%rbp), %rax
0x407c21: 48 C7 C2 FF FF FF FF       mov	$0xffffffffffffffff, %rdx
0x407c28: 48 83 C0 07                add	$0x7, %rax
0x407c2c: 48 83 F8 06                cmp	$0x6, %rax
0x407c30: 48 0F 46 C2                cmovbe	%rdx, %rax
0x407c34: 48 03 85 D8 FC FF FF       add	-0x328(%rbp), %rax
0x407c3b: 73 53                      jae	0x0000000000407c90
0x407c3d: 48 8B BD C8 FC FF FF       mov	-0x338(%rbp), %rdi
0x407c44: E8 B7 99 FF FF             callq	0x0000000000401600
0x407c49: 48 8B BD E8 FC FF FF       mov	-0x318(%rbp), %rdi
0x407c50: 48 85 FF                   test	%rdi, %rdi
0x407c53: 74 05                      je	0x0000000000407c5a
0x407c55: E8 A6 99 FF FF             callq	0x0000000000401600
0x407c5a: E8 C1 9A FF FF             callq	0x0000000000401720
0x407c5f: 45 31 ED                   xor	%r13d, %r13d
0x407c62: C7 00 0C 00 00 00          movl	$0xc, (%rax)
0x407c68: 4C 8B 4D C8                mov	-0x38(%rbp), %r9
0x407c6c: 64 4C 33 0C 25 28 00 00    xor	%fs:0x28, %r9
          00
0x407c75: 4C 89 E8                   mov	%r13, %rax
0x407c78: 0F 85 90 1A 00 00          jne	0x000000000040970e
0x407c7e: 48 8D 65 D8                lea	-0x28(%rbp), %rsp
0x407c82: 5B                         pop	%rbx
0x407c83: 41 5C                      pop	%r12
0x407c85: 41 5D                      pop	%r13
0x407c87: 41 5E                      pop	%r14
0x407c89: 41 5F                      pop	%r15
0x407c8b: C9                         leaveq	
0x407c8c: C3                         retq	
0x407c8d: 0F 1F 00                   nopl	(%rax)
0x407c90: 48 89 C7                   mov	%rax, %rdi
0x407c93: 48 83 C7 06                add	$0x6, %rdi
0x407c97: 72 A4                      jb	0x0000000000407c3d
0x407c99: 48 81 FF 9F 0F 00 00       cmp	$0xf9f, %rdi
0x407ca0: 0F 87 FA 01 00 00          ja	0x0000000000407ea0
0x407ca6: 48 83 C0 24                add	$0x24, %rax
0x407caa: 48 C7 85 60 FC FF FF 00    movq	$0x0, -0x3a0(%rbp)
          00 00 00
0x407cb5: 48 83 E0 F0                and	$0xfffffffffffffff0, %rax
0x407cb9: 48 29 C4                   sub	%rax, %rsp
0x407cbc: 48 8D 54 24 37             lea	0x37(%rsp), %rdx
0x407cc1: 48 83 E2 F0                and	$0xfffffffffffffff0, %rdx
0x407cc5: 48 89 95 B8 FC FF FF       mov	%rdx, -0x348(%rbp)
0x407ccc: 31 DB                      xor	%ebx, %ebx
0x407cce: 45 31 ED                   xor	%r13d, %r13d
0x407cd1: 48 83 BD A0 FC FF FF 00    cmpq	$0x0, -0x360(%rbp)
0x407cd9: 74 11                      je	0x0000000000407cec
0x407cdb: 48 8B 8D 90 FC FF FF       mov	-0x370(%rbp), %rcx
0x407ce2: 4C 8B AD A0 FC FF FF       mov	-0x360(%rbp), %r13
0x407ce9: 48 8B 19                   mov	(%rcx), %rbx
0x407cec: 4C 8B 85 B8 FC FF FF       mov	-0x348(%rbp), %r8
0x407cf3: 4C 8D 8D 00 FD FF FF       lea	-0x300(%rbp), %r9
0x407cfa: 4C 8B A5 C8 FC FF FF       mov	-0x338(%rbp), %r12
0x407d01: 4C 89 F1                   mov	%r14, %rcx
0x407d04: 45 31 FF                   xor	%r15d, %r15d
0x407d07: 48 C7 85 98 FC FF FF 00    movq	$0x0, -0x368(%rbp)
          00 00 00
0x407d12: 4C 89 8D 18 FC FF FF       mov	%r9, -0x3e8(%rbp)
0x407d19: 4D 89 EE                   mov	%r13, %r14
0x407d1c: 49 83 C0 01                add	$0x1, %r8
0x407d20: 4C 89 85 88 FC FF FF       mov	%r8, -0x378(%rbp)
0x407d27: 4D 8B 04 24                mov	(%r12), %r8
0x407d2b: 49 39 C8                   cmp	%rcx, %r8
0x407d2e: 0F 84 EC 00 00 00          je	0x0000000000407e20
0x407d34: 49 29 C8                   sub	%rcx, %r8
0x407d37: 48 C7 C0 FF FF FF FF       mov	$0xffffffffffffffff, %rax
0x407d3e: 4D 89 C5                   mov	%r8, %r13
0x407d41: 4D 01 FD                   add	%r15, %r13
0x407d44: 4C 0F 42 E8                cmovb	%rax, %r13
0x407d48: 4C 39 EB                   cmp	%r13, %rbx
0x407d4b: 0F 83 BD 00 00 00          jae	0x0000000000407e0e
0x407d51: 48 83 FB 00                cmp	$0x0, %rbx
0x407d55: 0F 85 25 09 00 00          jne	0x0000000000408680
0x407d5b: B3 0C                      mov	$0xc, %bl
0x407d5d: 4C 39 EB                   cmp	%r13, %rbx
0x407d60: 49 0F 42 DD                cmovb	%r13, %rbx
0x407d64: 48 83 FB FF                cmp	$0xffffffffffffffff, %rbx
0x407d68: 0F 84 6B 09 00 00          je	0x00000000004086d9
0x407d6e: 4C 3B B5 A0 FC FF FF       cmp	-0x360(%rbp), %r14
0x407d75: 0F 94 C2                   sete	%dl
0x407d78: 4D 85 F6                   test	%r14, %r14
0x407d7b: 74 08                      je	0x0000000000407d85
0x407d7d: 84 D2                      test	%dl, %dl
0x407d7f: 0F 84 0B 09 00 00          je	0x0000000000408690
0x407d85: 48 89 DF                   mov	%rbx, %rdi
0x407d88: 88 95 30 FC FF FF          mov	%dl, -0x3d0(%rbp)
0x407d8e: 48 89 8D 28 FC FF FF       mov	%rcx, -0x3d8(%rbp)
0x407d95: 4C 89 85 38 FC FF FF       mov	%r8, -0x3c8(%rbp)
0x407d9c: E8 BF 97 FF FF             callq	0x0000000000401560
0x407da1: 0F B6 95 30 FC FF FF       movzbl	-0x3d0(%rbp), %edx
0x407da8: 48 8B 8D 28 FC FF FF       mov	-0x3d8(%rbp), %rcx
0x407daf: 49 89 C1                   mov	%rax, %r9
0x407db2: 4C 8B 85 38 FC FF FF       mov	-0x3c8(%rbp), %r8
0x407db9: 4D 85 C9                   test	%r9, %r9
0x407dbc: 0F 84 17 09 00 00          je	0x00000000004086d9
0x407dc2: 4D 85 FF                   test	%r15, %r15
0x407dc5: 0F 84 AD 08 00 00          je	0x0000000000408678
0x407dcb: 84 D2                      test	%dl, %dl
0x407dcd: 0F 84 A5 08 00 00          je	0x0000000000408678
0x407dd3: 4C 89 F6                   mov	%r14, %rsi
0x407dd6: 4C 89 CF                   mov	%r9, %rdi
0x407dd9: 4C 89 FA                   mov	%r15, %rdx
0x407ddc: 48 89 8D 28 FC FF FF       mov	%rcx, -0x3d8(%rbp)
0x407de3: 4C 89 85 38 FC FF FF       mov	%r8, -0x3c8(%rbp)
0x407dea: 4C 89 8D 40 FC FF FF       mov	%r9, -0x3c0(%rbp)
0x407df1: E8 BA 98 FF FF             callq	0x00000000004016b0
0x407df6: 4C 8B 8D 40 FC FF FF       mov	-0x3c0(%rbp), %r9
0x407dfd: 4C 8B 85 38 FC FF FF       mov	-0x3c8(%rbp), %r8
0x407e04: 48 8B 8D 28 FC FF FF       mov	-0x3d8(%rbp), %rcx
0x407e0b: 4D 89 CE                   mov	%r9, %r14
0x407e0e: 4B 8D 3C 3E                lea	(%r14,%r15,1), %rdi
0x407e12: 4C 89 C2                   mov	%r8, %rdx
0x407e15: 48 89 CE                   mov	%rcx, %rsi
0x407e18: 4D 89 EF                   mov	%r13, %r15
0x407e1b: E8 90 98 FF FF             callq	0x00000000004016b0
0x407e20: 48 8B 95 98 FC FF FF       mov	-0x368(%rbp), %rdx
0x407e27: 48 39 95 C0 FC FF FF       cmp	%rdx, -0x340(%rbp)
0x407e2e: 0F 84 94 0F 00 00          je	0x0000000000408dc8
0x407e34: 41 0F B6 44 24 48          movzbl	0x48(%r12), %eax
0x407e3a: 3C 25                      cmp	$0x25, %al
0x407e3c: 0F 84 D6 08 00 00          je	0x0000000000408718
0x407e42: 49 8B 54 24 50             mov	0x50(%r12), %rdx
0x407e47: 48 83 FA FF                cmp	$0xffffffffffffffff, %rdx
0x407e4b: 0F 84 A0 02 00 00          je	0x00000000004080f1
0x407e51: 3C 6E                      cmp	$0x6e, %al
0x407e53: 0F 84 17 0A 00 00          je	0x0000000000408870
0x407e59: 3C 46                      cmp	$0x46, %al
0x407e5b: 74 73                      je	0x0000000000407ed0
0x407e5d: 3C 66                      cmp	$0x66, %al
0x407e5f: 90                         nop	
0x407e60: 74 6E                      je	0x0000000000407ed0
0x407e62: 3C 65                      cmp	$0x65, %al
0x407e64: 74 6A                      je	0x0000000000407ed0
0x407e66: 3C 45                      cmp	$0x45, %al
0x407e68: 74 66                      je	0x0000000000407ed0
0x407e6a: 3C 67                      cmp	$0x67, %al
0x407e6c: 0F 1F 40 00                nopl	0x0(%rax)
0x407e70: 74 5E                      je	0x0000000000407ed0
0x407e72: 3C 47                      cmp	$0x47, %al
0x407e74: 74 5A                      je	0x0000000000407ed0
0x407e76: 3C 61                      cmp	$0x61, %al
0x407e78: 74 56                      je	0x0000000000407ed0
0x407e7a: 3C 41                      cmp	$0x41, %al
0x407e7c: 0F 1F 40 00                nopl	0x0(%rax)
0x407e80: 74 4E                      je	0x0000000000407ed0
0x407e82: 48 8B 85 E8 FC FF FF       mov	-0x318(%rbp), %rax
0x407e89: 48 C1 E2 05                shl	$0x5, %rdx
0x407e8d: 8B 14 02                   mov	(%rdx,%rax,1), %edx
0x407e90: 89 95 AC FC FF FF          mov	%edx, -0x354(%rbp)
0x407e96: EB 57                      jmp	0x0000000000407eef
0x407e98: 0F 1F 84 00 00 00 00 00    nopl	0x0(%rax,%rax,1)
0x407ea0: 48 83 FF FF                cmp	$0xffffffffffffffff, %rdi
0x407ea4: 0F 84 93 FD FF FF          je	0x0000000000407c3d
0x407eaa: E8 B1 96 FF FF             callq	0x0000000000401560
0x407eaf: 48 85 C0                   test	%rax, %rax
0x407eb2: 48 89 85 B8 FC FF FF       mov	%rax, -0x348(%rbp)
0x407eb9: 0F 84 7E FD FF FF          je	0x0000000000407c3d
0x407ebf: 48 89 85 60 FC FF FF       mov	%rax, -0x3a0(%rbp)
0x407ec6: E9 01 FE FF FF             jmpq	0x0000000000407ccc
0x407ecb: 0F 1F 44 00 00             nopl	0x0(%rax,%rax,1)
0x407ed0: 48 C1 E2 05                shl	$0x5, %rdx
0x407ed4: 48 03 95 E8 FC FF FF       add	-0x318(%rbp), %rdx
0x407edb: 44 8B 02                   mov	(%rdx), %r8d
0x407ede: 41 83 F8 0C                cmp	$0xc, %r8d
0x407ee2: 44 89 85 AC FC FF FF       mov	%r8d, -0x354(%rbp)
0x407ee9: 0F 84 C1 0A 00 00          je	0x00000000004089b0
0x407eef: 41 8B 44 24 10             mov	0x10(%r12), %eax
0x407ef4: 48 8B 8D B8 FC FF FF       mov	-0x348(%rbp), %rcx
0x407efb: A8 01                      test	$0x1, %al
0x407efd: C6 01 25                   movb	$0x25, (%rcx)
0x407f00: 4C 8B AD 88 FC FF FF       mov	-0x378(%rbp), %r13
0x407f07: 74 0C                      je	0x0000000000407f15
0x407f09: 41 C6 45 00 27             movb	$0x27, 0x0(%r13)
0x407f0e: 49 89 CD                   mov	%rcx, %r13
0x407f11: 49 83 C5 02                add	$0x2, %r13
0x407f15: A8 02                      test	$0x2, %al
0x407f17: 74 09                      je	0x0000000000407f22
0x407f19: 41 C6 45 00 2D             movb	$0x2d, 0x0(%r13)
0x407f1e: 49 83 C5 01                add	$0x1, %r13
0x407f22: A8 04                      test	$0x4, %al
0x407f24: 74 09                      je	0x0000000000407f2f
0x407f26: 41 C6 45 00 2B             movb	$0x2b, 0x0(%r13)
0x407f2b: 49 83 C5 01                add	$0x1, %r13
0x407f2f: A8 08                      test	$0x8, %al
0x407f31: 74 09                      je	0x0000000000407f3c
0x407f33: 41 C6 45 00 20             movb	$0x20, 0x0(%r13)
0x407f38: 49 83 C5 01                add	$0x1, %r13
0x407f3c: A8 10                      test	$0x10, %al
0x407f3e: 74 09                      je	0x0000000000407f49
0x407f40: 41 C6 45 00 23             movb	$0x23, 0x0(%r13)
0x407f45: 49 83 C5 01                add	$0x1, %r13
0x407f49: A8 20                      test	$0x20, %al
0x407f4b: 74 09                      je	0x0000000000407f56
0x407f4d: 41 C6 45 00 30             movb	$0x30, 0x0(%r13)
0x407f52: 49 83 C5 01                add	$0x1, %r13
0x407f56: 49 8B 74 24 18             mov	0x18(%r12), %rsi
0x407f5b: 49 8B 4C 24 20             mov	0x20(%r12), %rcx
0x407f60: 48 39 CE                   cmp	%rcx, %rsi
0x407f63: 74 1F                      je	0x0000000000407f84
0x407f65: 48 29 F1                   sub	%rsi, %rcx
0x407f68: 4C 89 EF                   mov	%r13, %rdi
0x407f6b: 48 89 CA                   mov	%rcx, %rdx
0x407f6e: 48 89 8D 28 FC FF FF       mov	%rcx, -0x3d8(%rbp)
0x407f75: E8 36 97 FF FF             callq	0x00000000004016b0
0x407f7a: 48 8B 8D 28 FC FF FF       mov	-0x3d8(%rbp), %rcx
0x407f81: 49 01 CD                   add	%rcx, %r13
0x407f84: 49 8B 74 24 30             mov	0x30(%r12), %rsi
0x407f89: 49 8B 4C 24 38             mov	0x38(%r12), %rcx
0x407f8e: 48 39 CE                   cmp	%rcx, %rsi
0x407f91: 74 1F                      je	0x0000000000407fb2
0x407f93: 48 29 F1                   sub	%rsi, %rcx
0x407f96: 4C 89 EF                   mov	%r13, %rdi
0x407f99: 48 89 CA                   mov	%rcx, %rdx
0x407f9c: 48 89 8D 28 FC FF FF       mov	%rcx, -0x3d8(%rbp)
0x407fa3: E8 08 97 FF FF             callq	0x00000000004016b0
0x407fa8: 48 8B 8D 28 FC FF FF       mov	-0x3d8(%rbp), %rcx
0x407faf: 49 01 CD                   add	%rcx, %r13
0x407fb2: 83 BD AC FC FF FF 10       cmpl	$0x10, -0x354(%rbp)
0x407fb9: 77 35                      ja	0x0000000000407ff0
0x407fbb: 0F B6 8D AC FC FF FF       movzbl	-0x354(%rbp), %ecx
0x407fc2: B8 01 00 00 00             mov	$0x1, %eax
0x407fc7: 48 D3 E0                   shl	%cl, %rax
0x407fca: A9 80 41 01 00             test	$0x14180, %eax
0x407fcf: 0F 85 34 01 00 00          jne	0x0000000000408109
0x407fd5: F6 C4 10                   test	$0x10, %ah
0x407fd8: 0F 85 6A 09 00 00          jne	0x0000000000408948
0x407fde: F6 C4 06                   test	$0x6, %ah
0x407fe1: 0F 85 19 01 00 00          jne	0x0000000000408100
0x407fe7: 66 0F 1F 84 00 00 00 00    nopw	0x0(%rax,%rax,1)
          00
0x407ff0: 41 0F B6 44 24 48          movzbl	0x48(%r12), %eax
0x407ff6: 4D 8D 45 01                lea	0x1(%r13), %r8
0x407ffa: 41 88 45 00                mov	%al, 0x0(%r13)
0x407ffe: 4C 89 85 70 FC FF FF       mov	%r8, -0x390(%rbp)
0x408005: 41 C6 45 01 00             movb	$0x0, 0x1(%r13)
0x40800a: 49 8B 44 24 28             mov	0x28(%r12), %rax
0x40800f: C7 85 B0 FC FF FF 00 00    movl	$0x0, -0x350(%rbp)
          00 00
0x408019: 48 83 F8 FF                cmp	$0xffffffffffffffff, %rax
0x40801d: 74 27                      je	0x0000000000408046
0x40801f: 48 C1 E0 05                shl	$0x5, %rax
0x408023: 48 03 85 E8 FC FF FF       add	-0x318(%rbp), %rax
0x40802a: 83 38 05                   cmpl	$0x5, (%rax)
0x40802d: 0F 85 BE 00 00 00          jne	0x00000000004080f1
0x408033: 8B 40 10                   mov	0x10(%rax), %eax
0x408036: C7 85 B0 FC FF FF 01 00    movl	$0x1, -0x350(%rbp)
          00 00
0x408040: 89 85 F0 FC FF FF          mov	%eax, -0x310(%rbp)
0x408046: 49 8B 44 24 40             mov	0x40(%r12), %rax
0x40804b: 48 83 F8 FF                cmp	$0xffffffffffffffff, %rax
0x40804f: 74 2B                      je	0x000000000040807c
0x408051: 48 C1 E0 05                shl	$0x5, %rax
0x408055: 48 03 85 E8 FC FF FF       add	-0x318(%rbp), %rax
0x40805c: 83 38 05                   cmpl	$0x5, (%rax)
0x40805f: 0F 85 8C 00 00 00          jne	0x00000000004080f1
0x408065: 8B 95 B0 FC FF FF          mov	-0x350(%rbp), %edx
0x40806b: 8B 40 10                   mov	0x10(%rax), %eax
0x40806e: 83 85 B0 FC FF FF 01       addl	$0x1, -0x350(%rbp)
0x408075: 89 84 95 F0 FC FF FF       mov	%eax, -0x310(%rbp,%rdx,4)
0x40807c: 4D 89 FD                   mov	%r15, %r13
0x40807f: 48 C7 C0 FF FF FF FF       mov	$0xffffffffffffffff, %rax
0x408086: 49 83 C5 02                add	$0x2, %r13
0x40808a: 49 0F 43 C5                cmovae	%r13, %rax
0x40808e: 48 39 C3                   cmp	%rax, %rbx
0x408091: 0F 82 39 07 00 00          jb	0x00000000004087d0
0x408097: 49 89 DD                   mov	%rbx, %r13
0x40809a: 43 C6 04 3E 00             movb	$0x0, (%r14,%r15,1)
0x40809f: 8B 8D AC FC FF FF          mov	-0x354(%rbp), %ecx
0x4080a5: 4C 89 EB                   mov	%r13, %rbx
0x4080a8: 8B 85 F0 FC FF FF          mov	-0x310(%rbp), %eax
0x4080ae: 8B 95 F4 FC FF FF          mov	-0x30c(%rbp), %edx
0x4080b4: 89 85 7C FC FF FF          mov	%eax, -0x384(%rbp)
0x4080ba: 89 95 6C FC FF FF          mov	%edx, -0x394(%rbp)
0x4080c0: 48 89 8D 80 FC FF FF       mov	%rcx, -0x380(%rbp)
0x4080c7: 49 89 DD                   mov	%rbx, %r13
0x4080ca: 41 B8 FF FF FF 7F          mov	$0x7fffffff, %r8d
0x4080d0: C7 85 F8 FC FF FF FF FF    movl	$0xffffffff, -0x308(%rbp)
          FF FF
0x4080da: 4D 29 FD                   sub	%r15, %r13
0x4080dd: 49 81 FD FF FF FF 7F       cmp	$0x7fffffff, %r13
0x4080e4: 4D 0F 47 E8                cmova	%r8, %r13
0x4080e8: 83 BD AC FC FF FF 11       cmpl	$0x11, -0x354(%rbp)
0x4080ef: 76 2F                      jbe	0x0000000000408120
0x4080f1: E8 BA 93 FF FF             callq	0x00000000004014b0
0x4080f6: 66 2E 0F 1F 84 00 00 00    nopw	%cs:0x0(%rax,%rax,1)
          00 00
0x408100: 41 C6 45 00 6C             movb	$0x6c, 0x0(%r13)
0x408105: 49 83 C5 01                add	$0x1, %r13
0x408109: 41 C6 45 00 6C             movb	$0x6c, 0x0(%r13)
0x40810e: 49 83 C5 01                add	$0x1, %r13
0x408112: E9 D9 FE FF FF             jmpq	0x0000000000407ff0
0x408117: 66 0F 1F 84 00 00 00 00    nopw	0x0(%rax,%rax,1)
          00
0x408120: 4C 8B 8D 80 FC FF FF       mov	-0x380(%rbp), %r9
0x408127: 42 FF 24 CD D8 BA 40 00    jmpq	*0x40bad8(,%r9,8)
0x40812f: 90                         nop	
0x408130: 49 8B 44 24 50             mov	0x50(%r12), %rax
0x408135: 48 8B 95 E8 FC FF FF       mov	-0x318(%rbp), %rdx
0x40813c: 48 C1 E0 05                shl	$0x5, %rax
0x408140: 83 BD B0 FC FF FF 01       cmpl	$0x1, -0x350(%rbp)
0x408147: 4C 8B 4C 10 10             mov	0x10(%rax,%rdx,1), %r9
0x40814c: 0F 84 D6 07 00 00          je	0x0000000000408928
0x408152: 0F 82 88 07 00 00          jb	0x00000000004088e0
0x408158: 83 BD B0 FC FF FF 02       cmpl	$0x2, -0x350(%rbp)
0x40815f: 75 90                      jne	0x00000000004080f1
0x408161: 44 8B 85 6C FC FF FF       mov	-0x394(%rbp), %r8d
0x408168: 48 8D 8D F8 FC FF FF       lea	-0x308(%rbp), %rcx
0x40816f: 4F 8D 14 3E                lea	(%r14,%r15,1), %r10
0x408173: 4C 89 4C 24 08             mov	%r9, 0x8(%rsp)
0x408178: 48 89 4C 24 10             mov	%rcx, 0x10(%rsp)
0x40817d: 44 89 04 24                mov	%r8d, (%rsp)
0x408181: E9 0F 01 00 00             jmpq	0x0000000000408295
0x408186: 66 2E 0F 1F 84 00 00 00    nopw	%cs:0x0(%rax,%rax,1)
          00 00
0x408190: 49 8B 44 24 50             mov	0x50(%r12), %rax
0x408195: 48 8B 95 E8 FC FF FF       mov	-0x318(%rbp), %rdx
0x40819c: 48 C1 E0 05                shl	$0x5, %rax
0x4081a0: 83 BD B0 FC FF FF 01       cmpl	$0x1, -0x350(%rbp)
0x4081a7: 4C 8B 4C 10 10             mov	0x10(%rax,%rdx,1), %r9
0x4081ac: 0F 84 76 07 00 00          je	0x0000000000408928
0x4081b2: 0F 82 28 07 00 00          jb	0x00000000004088e0
0x4081b8: 83 BD B0 FC FF FF 02       cmpl	$0x2, -0x350(%rbp)
0x4081bf: 0F 85 2C FF FF FF          jne	0x00000000004080f1
0x4081c5: 48 8D 8D F8 FC FF FF       lea	-0x308(%rbp), %rcx
0x4081cc: 4F 8D 14 3E                lea	(%r14,%r15,1), %r10
0x4081d0: 4C 89 4C 24 08             mov	%r9, 0x8(%rsp)
0x4081d5: 48 89 4C 24 10             mov	%rcx, 0x10(%rsp)
0x4081da: 44 8B 85 6C FC FF FF       mov	-0x394(%rbp), %r8d
0x4081e1: 44 89 04 24                mov	%r8d, (%rsp)
0x4081e5: E9 AB 00 00 00             jmpq	0x0000000000408295
0x4081ea: 66 0F 1F 44 00 00          nopw	0x0(%rax,%rax,1)
0x4081f0: 49 8B 44 24 50             mov	0x50(%r12), %rax
0x4081f5: 48 8B 95 E8 FC FF FF       mov	-0x318(%rbp), %rdx
0x4081fc: 48 C1 E0 05                shl	$0x5, %rax
0x408200: 83 BD B0 FC FF FF 01       cmpl	$0x1, -0x350(%rbp)
0x408207: 44 8B 4C 10 10             mov	0x10(%rax,%rdx,1), %r9d
0x40820c: 0F 84 D6 01 00 00          je	0x00000000004083e8
0x408212: 0F 82 A8 03 00 00          jb	0x00000000004085c0
0x408218: 83 BD B0 FC FF FF 02       cmpl	$0x2, -0x350(%rbp)
0x40821f: 0F 85 CC FE FF FF          jne	0x00000000004080f1
0x408225: 48 8D 8D F8 FC FF FF       lea	-0x308(%rbp), %rcx
0x40822c: 4F 8D 14 3E                lea	(%r14,%r15,1), %r10
0x408230: 44 89 4C 24 08             mov	%r9d, 0x8(%rsp)
0x408235: 48 89 4C 24 10             mov	%rcx, 0x10(%rsp)
0x40823a: EB 9E                      jmp	0x00000000004081da
0x40823c: 0F 1F 40 00                nopl	0x0(%rax)
0x408240: 49 8B 44 24 50             mov	0x50(%r12), %rax
0x408245: 48 8B 95 E8 FC FF FF       mov	-0x318(%rbp), %rdx
0x40824c: 48 C1 E0 05                shl	$0x5, %rax
0x408250: 83 BD B0 FC FF FF 01       cmpl	$0x1, -0x350(%rbp)
0x408257: 44 8B 4C 10 10             mov	0x10(%rax,%rdx,1), %r9d
0x40825c: 0F 84 86 01 00 00          je	0x00000000004083e8
0x408262: 0F 82 58 03 00 00          jb	0x00000000004085c0
0x408268: 83 BD B0 FC FF FF 02       cmpl	$0x2, -0x350(%rbp)
0x40826f: 0F 85 7C FE FF FF          jne	0x00000000004080f1
0x408275: 44 8B 85 6C FC FF FF       mov	-0x394(%rbp), %r8d
0x40827c: 48 8D 8D F8 FC FF FF       lea	-0x308(%rbp), %rcx
0x408283: 4F 8D 14 3E                lea	(%r14,%r15,1), %r10
0x408287: 44 89 4C 24 08             mov	%r9d, 0x8(%rsp)
0x40828c: 48 89 4C 24 10             mov	%rcx, 0x10(%rsp)
0x408291: 44 89 04 24                mov	%r8d, (%rsp)
0x408295: 44 8B 8D 7C FC FF FF       mov	-0x384(%rbp), %r9d
0x40829c: 4C 8B 85 B8 FC FF FF       mov	-0x348(%rbp), %r8
0x4082a3: 4C 89 D7                   mov	%r10, %rdi
0x4082a6: 48 C7 C1 FF FF FF FF       mov	$0xffffffffffffffff, %rcx
0x4082ad: BA 01 00 00 00             mov	$0x1, %edx
0x4082b2: 4C 89 EE                   mov	%r13, %rsi
0x4082b5: 31 C0                      xor	%eax, %eax
0x4082b7: 4C 89 95 58 FC FF FF       mov	%r10, -0x3a8(%rbp)
0x4082be: E8 ED 94 FF FF             callq	0x00000000004017b0
0x4082c3: 4C 8B 95 58 FC FF FF       mov	-0x3a8(%rbp), %r10
0x4082ca: 8B 95 F8 FC FF FF          mov	-0x308(%rbp), %edx
0x4082d0: 85 D2                      test	%edx, %edx
0x4082d2: 0F 88 67 01 00 00          js	0x000000000040843f
0x4082d8: 48 63 CA                   movslq	%edx, %rcx
0x4082db: 49 39 CD                   cmp	%rcx, %r13
0x4082de: 76 0B                      jbe	0x00000000004082eb
0x4082e0: 41 80 3C 0A 00             cmpb	$0x0, (%r10,%rcx,1)
0x4082e5: 0F 85 06 FE FF FF          jne	0x00000000004080f1
0x4082eb: 39 D0                      cmp	%edx, %eax
0x4082ed: 0F 1F 00                   nopl	(%rax)
0x4082f0: 0F 8F 72 03 00 00          jg	0x0000000000408668
0x4082f6: 89 D0                      mov	%edx, %eax
0x4082f8: 8D 50 01                   lea	0x1(%rax), %edx
0x4082fb: 49 39 D5                   cmp	%rdx, %r13
0x4082fe: 0F 87 4C 0C 00 00          ja	0x0000000000408f50
0x408304: 49 81 FD FF FF FF 7F       cmp	$0x7fffffff, %r13
0x40830b: 0F 84 37 0D 00 00          je	0x0000000000409048
0x408311: 48 8D 14 1B                lea	(%rbx,%rbx,1), %rdx
0x408315: 48 85 DB                   test	%rbx, %rbx
0x408318: 48 C7 C1 FF FF FF FF       mov	$0xffffffffffffffff, %rcx
0x40831f: 48 0F 48 D1                cmovs	%rcx, %rdx
0x408323: 83 C0 02                   add	$0x2, %eax
0x408326: 4C 01 F8                   add	%r15, %rax
0x408329: 72 0A                      jb	0x0000000000408335
0x40832b: 48 39 C2                   cmp	%rax, %rdx
0x40832e: 48 89 C1                   mov	%rax, %rcx
0x408331: 48 0F 43 CA                cmovae	%rdx, %rcx
0x408335: 48 39 CB                   cmp	%rcx, %rbx
0x408338: 0F 83 89 FD FF FF          jae	0x00000000004080c7
0x40833e: 48 83 FB 00                cmp	$0x0, %rbx
0x408342: 0F 85 88 05 00 00          jne	0x00000000004088d0
0x408348: B3 0C                      mov	$0xc, %bl
0x40834a: 48 39 CB                   cmp	%rcx, %rbx
0x40834d: 48 0F 42 D9                cmovb	%rcx, %rbx
0x408351: 48 83 FB FF                cmp	$0xffffffffffffffff, %rbx
0x408355: 0F 84 7E 03 00 00          je	0x00000000004086d9
0x40835b: 4C 3B B5 A0 FC FF FF       cmp	-0x360(%rbp), %r14
0x408362: 0F 94 C2                   sete	%dl
0x408365: 4D 85 F6                   test	%r14, %r14
0x408368: 74 08                      je	0x0000000000408372
0x40836a: 84 D2                      test	%dl, %dl
0x40836c: 0F 84 36 05 00 00          je	0x00000000004088a8
0x408372: 48 89 DF                   mov	%rbx, %rdi
0x408375: 88 95 30 FC FF FF          mov	%dl, -0x3d0(%rbp)
0x40837b: E8 E0 91 FF FF             callq	0x0000000000401560
0x408380: 0F B6 95 30 FC FF FF       movzbl	-0x3d0(%rbp), %edx
0x408387: 49 89 C5                   mov	%rax, %r13
0x40838a: 4D 85 ED                   test	%r13, %r13
0x40838d: 0F 84 46 03 00 00          je	0x00000000004086d9
0x408393: 84 D2                      test	%dl, %dl
0x408395: 0F 84 25 04 00 00          je	0x00000000004087c0
0x40839b: 4D 85 FF                   test	%r15, %r15
0x40839e: 0F 84 1C 04 00 00          je	0x00000000004087c0
0x4083a4: 4C 89 F6                   mov	%r14, %rsi
0x4083a7: 4C 89 FA                   mov	%r15, %rdx
0x4083aa: 4C 89 EF                   mov	%r13, %rdi
0x4083ad: E8 FE 92 FF FF             callq	0x00000000004016b0
0x4083b2: 4D 89 EE                   mov	%r13, %r14
0x4083b5: E9 0D FD FF FF             jmpq	0x00000000004080c7
0x4083ba: 66 0F 1F 44 00 00          nopw	0x0(%rax,%rax,1)
0x4083c0: 49 8B 44 24 50             mov	0x50(%r12), %rax
0x4083c5: 48 8B 95 E8 FC FF FF       mov	-0x318(%rbp), %rdx
0x4083cc: 48 C1 E0 05                shl	$0x5, %rax
0x4083d0: 83 BD B0 FC FF FF 01       cmpl	$0x1, -0x350(%rbp)
0x4083d7: 44 0F BE 4C 10 10          movsbl	0x10(%rax,%rdx,1), %r9d
0x4083dd: 0F 85 7F FE FF FF          jne	0x0000000000408262
0x4083e3: 0F 1F 44 00 00             nopl	0x0(%rax,%rax,1)
0x4083e8: 48 8D 95 F8 FC FF FF       lea	-0x308(%rbp), %rdx
0x4083ef: 4F 8D 14 3E                lea	(%r14,%r15,1), %r10
0x4083f3: 44 89 0C 24                mov	%r9d, (%rsp)
0x4083f7: 48 89 54 24 08             mov	%rdx, 0x8(%rsp)
0x4083fc: 44 8B 8D 7C FC FF FF       mov	-0x384(%rbp), %r9d
0x408403: 4C 8B 85 B8 FC FF FF       mov	-0x348(%rbp), %r8
0x40840a: BA 01 00 00 00             mov	$0x1, %edx
0x40840f: 4C 89 D7                   mov	%r10, %rdi
0x408412: 31 C0                      xor	%eax, %eax
0x408414: 48 C7 C1 FF FF FF FF       mov	$0xffffffffffffffff, %rcx
0x40841b: 4C 89 EE                   mov	%r13, %rsi
0x40841e: 4C 89 95 58 FC FF FF       mov	%r10, -0x3a8(%rbp)
0x408425: E8 86 93 FF FF             callq	0x00000000004017b0
0x40842a: 8B 95 F8 FC FF FF          mov	-0x308(%rbp), %edx
0x408430: 4C 8B 95 58 FC FF FF       mov	-0x3a8(%rbp), %r10
0x408437: 85 D2                      test	%edx, %edx
0x408439: 0F 89 99 FE FF FF          jns	0x00000000004082d8
0x40843f: 4C 8B 8D 70 FC FF FF       mov	-0x390(%rbp), %r9
0x408446: 41 80 39 00                cmpb	$0x0, (%r9)
0x40844a: 0F 84 10 02 00 00          je	0x0000000000408660
0x408450: 41 C6 01 00                movb	$0x0, (%r9)
0x408454: E9 6E FC FF FF             jmpq	0x00000000004080c7
0x408459: 0F 1F 80 00 00 00 00       nopl	0x0(%rax)
0x408460: 49 8B 44 24 50             mov	0x50(%r12), %rax
0x408465: 48 8B 95 E8 FC FF FF       mov	-0x318(%rbp), %rdx
0x40846c: 48 C1 E0 05                shl	$0x5, %rax
0x408470: 83 BD B0 FC FF FF 01       cmpl	$0x1, -0x350(%rbp)
0x408477: 48 8D 54 10 10             lea	0x10(%rax,%rdx,1), %rdx
0x40847c: 48 8B 02                   mov	(%rdx), %rax
0x40847f: 8B 52 08                   mov	0x8(%rdx), %edx
0x408482: 0F 84 48 0A 00 00          je	0x0000000000408ed0
0x408488: 0F 82 72 08 00 00          jb	0x0000000000408d00
0x40848e: 83 BD B0 FC FF FF 02       cmpl	$0x2, -0x350(%rbp)
0x408495: 0F 85 56 FC FF FF          jne	0x00000000004080f1
0x40849b: 44 8B 8D 6C FC FF FF       mov	-0x394(%rbp), %r9d
0x4084a2: 4C 8D 85 F8 FC FF FF       lea	-0x308(%rbp), %r8
0x4084a9: 4F 8D 14 3E                lea	(%r14,%r15,1), %r10
0x4084ad: 48 89 44 24 10             mov	%rax, 0x10(%rsp)
0x4084b2: 89 54 24 18                mov	%edx, 0x18(%rsp)
0x4084b6: 48 C7 C1 FF FF FF FF       mov	$0xffffffffffffffff, %rcx
0x4084bd: 4C 89 44 24 20             mov	%r8, 0x20(%rsp)
0x4084c2: 4C 8B 85 B8 FC FF FF       mov	-0x348(%rbp), %r8
0x4084c9: 4C 89 D7                   mov	%r10, %rdi
0x4084cc: 44 89 0C 24                mov	%r9d, (%rsp)
0x4084d0: 44 8B 8D 7C FC FF FF       mov	-0x384(%rbp), %r9d
0x4084d7: BA 01 00 00 00             mov	$0x1, %edx
0x4084dc: 4C 89 EE                   mov	%r13, %rsi
0x4084df: 31 C0                      xor	%eax, %eax
0x4084e1: 4C 89 95 58 FC FF FF       mov	%r10, -0x3a8(%rbp)
0x4084e8: E8 C3 92 FF FF             callq	0x00000000004017b0
0x4084ed: 4C 8B 95 58 FC FF FF       mov	-0x3a8(%rbp), %r10
0x4084f4: E9 D1 FD FF FF             jmpq	0x00000000004082ca
0x4084f9: 0F 1F 80 00 00 00 00       nopl	0x0(%rax)
0x408500: 49 8B 44 24 50             mov	0x50(%r12), %rax
0x408505: 48 8B 95 E8 FC FF FF       mov	-0x318(%rbp), %rdx
0x40850c: 48 C1 E0 05                shl	$0x5, %rax
0x408510: 83 BD B0 FC FF FF 01       cmpl	$0x1, -0x350(%rbp)
0x408517: F2 0F 10 44 10 10          movsd	0x10(%rax,%rdx,1), %xmm0
0x40851d: 0F 84 CD 09 00 00          je	0x0000000000408ef0
0x408523: 0F 82 27 08 00 00          jb	0x0000000000408d50
0x408529: 83 BD B0 FC FF FF 02       cmpl	$0x2, -0x350(%rbp)
0x408530: 0F 85 BB FB FF FF          jne	0x00000000004080f1
0x408536: 8B 95 6C FC FF FF          mov	-0x394(%rbp), %edx
0x40853c: 4F 8D 14 3E                lea	(%r14,%r15,1), %r10
0x408540: 48 8D 85 F8 FC FF FF       lea	-0x308(%rbp), %rax
0x408547: 44 8B 8D 7C FC FF FF       mov	-0x384(%rbp), %r9d
0x40854e: 4C 8B 85 B8 FC FF FF       mov	-0x348(%rbp), %r8
0x408555: 48 C7 C1 FF FF FF FF       mov	$0xffffffffffffffff, %rcx
0x40855c: 48 89 44 24 08             mov	%rax, 0x8(%rsp)
0x408561: 4C 89 D7                   mov	%r10, %rdi
0x408564: 4C 89 EE                   mov	%r13, %rsi
0x408567: 89 14 24                   mov	%edx, (%rsp)
0x40856a: B8 01 00 00 00             mov	$0x1, %eax
0x40856f: BA 01 00 00 00             mov	$0x1, %edx
0x408574: 4C 89 95 58 FC FF FF       mov	%r10, -0x3a8(%rbp)
0x40857b: E8 30 92 FF FF             callq	0x00000000004017b0
0x408580: 4C 8B 95 58 FC FF FF       mov	-0x3a8(%rbp), %r10
0x408587: E9 3E FD FF FF             jmpq	0x00000000004082ca
0x40858c: 0F 1F 40 00                nopl	0x0(%rax)
0x408590: 49 8B 44 24 50             mov	0x50(%r12), %rax
0x408595: 48 8B 95 E8 FC FF FF       mov	-0x318(%rbp), %rdx
0x40859c: 48 C1 E0 05                shl	$0x5, %rax
0x4085a0: 83 BD B0 FC FF FF 01       cmpl	$0x1, -0x350(%rbp)
0x4085a7: 44 0F BF 4C 10 10          movswl	0x10(%rax,%rdx,1), %r9d
0x4085ad: 0F 84 35 FE FF FF          je	0x00000000004083e8
0x4085b3: 0F 83 AF FC FF FF          jae	0x0000000000408268
0x4085b9: 0F 1F 80 00 00 00 00       nopl	0x0(%rax)
0x4085c0: 4F 8D 14 3E                lea	(%r14,%r15,1), %r10
0x4085c4: 48 8D 85 F8 FC FF FF       lea	-0x308(%rbp), %rax
0x4085cb: 4C 8B 85 B8 FC FF FF       mov	-0x348(%rbp), %r8
0x4085d2: 48 C7 C1 FF FF FF FF       mov	$0xffffffffffffffff, %rcx
0x4085d9: BA 01 00 00 00             mov	$0x1, %edx
0x4085de: 4C 89 EE                   mov	%r13, %rsi
0x4085e1: 48 89 04 24                mov	%rax, (%rsp)
0x4085e5: 4C 89 D7                   mov	%r10, %rdi
0x4085e8: 31 C0                      xor	%eax, %eax
0x4085ea: 4C 89 95 58 FC FF FF       mov	%r10, -0x3a8(%rbp)
0x4085f1: E8 BA 91 FF FF             callq	0x00000000004017b0
0x4085f6: 4C 8B 95 58 FC FF FF       mov	-0x3a8(%rbp), %r10
0x4085fd: E9 C8 FC FF FF             jmpq	0x00000000004082ca
0x408602: 66 0F 1F 44 00 00          nopw	0x0(%rax,%rax,1)
0x408608: 49 8B 44 24 50             mov	0x50(%r12), %rax
0x40860d: 48 8B 95 E8 FC FF FF       mov	-0x318(%rbp), %rdx
0x408614: 48 C1 E0 05                shl	$0x5, %rax
0x408618: 83 BD B0 FC FF FF 01       cmpl	$0x1, -0x350(%rbp)
0x40861f: 44 0F B6 4C 10 10          movzbl	0x10(%rax,%rdx,1), %r9d
0x408625: 0F 85 37 FC FF FF          jne	0x0000000000408262
0x40862b: E9 B8 FD FF FF             jmpq	0x00000000004083e8
0x408630: 49 8B 44 24 50             mov	0x50(%r12), %rax
0x408635: 48 8B 95 E8 FC FF FF       mov	-0x318(%rbp), %rdx
0x40863c: 48 C1 E0 05                shl	$0x5, %rax
0x408640: 83 BD B0 FC FF FF 01       cmpl	$0x1, -0x350(%rbp)
0x408647: 44 0F B7 4C 10 10          movzwl	0x10(%rax,%rdx,1), %r9d
0x40864d: 0F 85 0F FC FF FF          jne	0x0000000000408262
0x408653: E9 90 FD FF FF             jmpq	0x00000000004083e8
0x408658: 0F 1F 84 00 00 00 00 00    nopl	0x0(%rax,%rax,1)
0x408660: 85 C0                      test	%eax, %eax
0x408662: 0F 88 F8 05 00 00          js	0x0000000000408c60
0x408668: 89 85 F8 FC FF FF          mov	%eax, -0x308(%rbp)
0x40866e: 66 90                      xchg	%ax, %ax
0x408670: E9 83 FC FF FF             jmpq	0x00000000004082f8
0x408675: 0F 1F 00                   nopl	(%rax)
0x408678: 4D 89 CE                   mov	%r9, %r14
0x40867b: E9 8E F7 FF FF             jmpq	0x0000000000407e0e
0x408680: 7C 57                      jl	0x00000000004086d9
0x408682: 48 01 DB                   add	%rbx, %rbx
0x408685: 0F 1F 00                   nopl	(%rax)
0x408688: E9 D0 F6 FF FF             jmpq	0x0000000000407d5d
0x40868d: 0F 1F 00                   nopl	(%rax)
0x408690: 48 89 DE                   mov	%rbx, %rsi
0x408693: 4C 89 F7                   mov	%r14, %rdi
0x408696: 88 95 30 FC FF FF          mov	%dl, -0x3d0(%rbp)
0x40869c: 48 89 8D 28 FC FF FF       mov	%rcx, -0x3d8(%rbp)
0x4086a3: 4C 89 85 38 FC FF FF       mov	%r8, -0x3c8(%rbp)
0x4086aa: E8 21 91 FF FF             callq	0x00000000004017d0
0x4086af: 4C 8B 85 38 FC FF FF       mov	-0x3c8(%rbp), %r8
0x4086b6: 49 89 C1                   mov	%rax, %r9
0x4086b9: 48 8B 8D 28 FC FF FF       mov	-0x3d8(%rbp), %rcx
0x4086c0: 0F B6 95 30 FC FF FF       movzbl	-0x3d0(%rbp), %edx
0x4086c7: E9 ED F6 FF FF             jmpq	0x0000000000407db9
0x4086cc: 0F 1F 40 00                nopl	0x0(%rax)
0x4086d0: 4D 39 EF                   cmp	%r13, %r15
0x4086d3: 0F 86 2D 01 00 00          jbe	0x0000000000408806
0x4086d9: 4D 89 F5                   mov	%r14, %r13
0x4086dc: 4D 85 ED                   test	%r13, %r13
0x4086df: 74 11                      je	0x00000000004086f2
0x4086e1: 4C 3B AD A0 FC FF FF       cmp	-0x360(%rbp), %r13
0x4086e8: 74 08                      je	0x00000000004086f2
0x4086ea: 4C 89 EF                   mov	%r13, %rdi
0x4086ed: E8 0E 8F FF FF             callq	0x0000000000401600
0x4086f2: 48 83 BD 60 FC FF FF 00    cmpq	$0x0, -0x3a0(%rbp)
0x4086fa: 0F 84 3D F5 FF FF          je	0x0000000000407c3d
0x408700: 48 8B BD 60 FC FF FF       mov	-0x3a0(%rbp), %rdi
0x408707: E8 F4 8E FF FF             callq	0x0000000000401600
0x40870c: E9 2C F5 FF FF             jmpq	0x0000000000407c3d
0x408711: 0F 1F 80 00 00 00 00       nopl	0x0(%rax)
0x408718: 49 83 7C 24 50 FF          cmpq	$0xffffffffffffffff, 0x50(%r12)
0x40871e: 0F 85 CD F9 FF FF          jne	0x00000000004080f1
0x408724: 4D 89 FD                   mov	%r15, %r13
0x408727: 48 C7 C1 FF FF FF FF       mov	$0xffffffffffffffff, %rcx
0x40872e: 49 83 C5 01                add	$0x1, %r13
0x408732: 4C 0F 42 E9                cmovb	%rcx, %r13
0x408736: 4C 39 EB                   cmp	%r13, %rbx
0x408739: 73 61                      jae	0x000000000040879c
0x40873b: 48 83 FB 00                cmp	$0x0, %rbx
0x40873f: 0F 85 3B 02 00 00          jne	0x0000000000408980
0x408745: B3 0C                      mov	$0xc, %bl
0x408747: 4C 39 EB                   cmp	%r13, %rbx
0x40874a: 49 0F 42 DD                cmovb	%r13, %rbx
0x40874e: 48 83 FB FF                cmp	$0xffffffffffffffff, %rbx
0x408752: 74 85                      je	0x00000000004086d9
0x408754: 4C 3B B5 A0 FC FF FF       cmp	-0x360(%rbp), %r14
0x40875b: 0F 94 C2                   sete	%dl
0x40875e: 4D 85 F6                   test	%r14, %r14
0x408761: 74 08                      je	0x000000000040876b
0x408763: 84 D2                      test	%dl, %dl
0x408765: 0F 84 25 02 00 00          je	0x0000000000408990
0x40876b: 48 89 DF                   mov	%rbx, %rdi
0x40876e: 88 95 30 FC FF FF          mov	%dl, -0x3d0(%rbp)
0x408774: E8 E7 8D FF FF             callq	0x0000000000401560
0x408779: 0F B6 95 30 FC FF FF       movzbl	-0x3d0(%rbp), %edx
0x408780: 48 89 C1                   mov	%rax, %rcx
0x408783: 48 85 C9                   test	%rcx, %rcx
0x408786: 0F 84 4D FF FF FF          je	0x00000000004086d9
0x40878c: 4D 85 FF                   test	%r15, %r15
0x40878f: 74 08                      je	0x0000000000408799
0x408791: 84 D2                      test	%dl, %dl
0x408793: 0F 85 0F 05 00 00          jne	0x0000000000408ca8
0x408799: 49 89 CE                   mov	%rcx, %r14
0x40879c: 43 C6 04 3E 25             movb	$0x25, (%r14,%r15,1)
0x4087a1: 4D 89 EF                   mov	%r13, %r15
0x4087a4: 49 8B 4C 24 08             mov	0x8(%r12), %rcx
0x4087a9: 48 83 85 98 FC FF FF 01    addq	$0x1, -0x368(%rbp)
0x4087b1: 49 83 C4 58                add	$0x58, %r12
0x4087b5: E9 6D F5 FF FF             jmpq	0x0000000000407d27
0x4087ba: 66 0F 1F 44 00 00          nopw	0x0(%rax,%rax,1)
0x4087c0: 4D 89 EE                   mov	%r13, %r14
0x4087c3: E9 FF F8 FF FF             jmpq	0x00000000004080c7
0x4087c8: 0F 1F 84 00 00 00 00 00    nopl	0x0(%rax,%rax,1)
0x4087d0: 48 85 DB                   test	%rbx, %rbx
0x4087d3: B8 0C 00 00 00             mov	$0xc, %eax
0x4087d8: 74 12                      je	0x00000000004087ec
0x4087da: 48 8D 04 1B                lea	(%rbx,%rbx,1), %rax
0x4087de: 48 85 DB                   test	%rbx, %rbx
0x4087e1: 49 C7 C1 FF FF FF FF       mov	$0xffffffffffffffff, %r9
0x4087e8: 49 0F 48 C1                cmovs	%r9, %rax
0x4087ec: 4D 39 EF                   cmp	%r13, %r15
0x4087ef: 48 C7 C2 FF FF FF FF       mov	$0xffffffffffffffff, %rdx
0x4087f6: 49 0F 46 D5                cmovbe	%r13, %rdx
0x4087fa: 48 39 D0                   cmp	%rdx, %rax
0x4087fd: 0F 82 CD FE FF FF          jb	0x00000000004086d0
0x408803: 49 89 C5                   mov	%rax, %r13
0x408806: 49 83 FD FF                cmp	$0xffffffffffffffff, %r13
0x40880a: 0F 84 C9 FE FF FF          je	0x00000000004086d9
0x408810: 4C 3B B5 A0 FC FF FF       cmp	-0x360(%rbp), %r14
0x408817: 0F 94 C2                   sete	%dl
0x40881a: 4D 85 F6                   test	%r14, %r14
0x40881d: 74 08                      je	0x0000000000408827
0x40881f: 84 D2                      test	%dl, %dl
0x408821: 0F 84 39 01 00 00          je	0x0000000000408960
0x408827: 4C 89 EF                   mov	%r13, %rdi
0x40882a: 88 95 30 FC FF FF          mov	%dl, -0x3d0(%rbp)
0x408830: E8 2B 8D FF FF             callq	0x0000000000401560
0x408835: 0F B6 95 30 FC FF FF       movzbl	-0x3d0(%rbp), %edx
0x40883c: 48 89 C3                   mov	%rax, %rbx
0x40883f: 48 85 DB                   test	%rbx, %rbx
0x408842: 0F 84 91 FE FF FF          je	0x00000000004086d9
0x408848: 4D 85 FF                   test	%r15, %r15
0x40884b: 74 12                      je	0x000000000040885f
0x40884d: 84 D2                      test	%dl, %dl
0x40884f: 74 0E                      je	0x000000000040885f
0x408851: 4C 89 FA                   mov	%r15, %rdx
0x408854: 4C 89 F6                   mov	%r14, %rsi
0x408857: 48 89 DF                   mov	%rbx, %rdi
0x40885a: E8 51 8E FF FF             callq	0x00000000004016b0
0x40885f: 49 89 DE                   mov	%rbx, %r14
0x408862: E9 33 F8 FF FF             jmpq	0x000000000040809a
0x408867: 66 0F 1F 84 00 00 00 00    nopw	0x0(%rax,%rax,1)
          00
0x408870: 48 C1 E2 05                shl	$0x5, %rdx
0x408874: 48 03 95 E8 FC FF FF       add	-0x318(%rbp), %rdx
0x40887b: 8B 02                      mov	(%rdx), %eax
0x40887d: 83 E8 12                   sub	$0x12, %eax
0x408880: 83 F8 04                   cmp	$0x4, %eax
0x408883: 0F 87 68 F8 FF FF          ja	0x00000000004080f1
0x408889: 89 C0                      mov	%eax, %eax
0x40888b: FF 24 C5 68 BB 40 00       jmpq	*0x40bb68(,%rax,8)
0x408892: 66 0F 1F 44 00 00          nopw	0x0(%rax,%rax,1)
0x408898: 48 8B 42 10                mov	0x10(%rdx), %rax
0x40889c: 4C 89 38                   mov	%r15, (%rax)
0x40889f: E9 00 FF FF FF             jmpq	0x00000000004087a4
0x4088a4: 0F 1F 40 00                nopl	0x0(%rax)
0x4088a8: 48 89 DE                   mov	%rbx, %rsi
0x4088ab: 4C 89 F7                   mov	%r14, %rdi
0x4088ae: 88 95 30 FC FF FF          mov	%dl, -0x3d0(%rbp)
0x4088b4: E8 17 8F FF FF             callq	0x00000000004017d0
0x4088b9: 0F B6 95 30 FC FF FF       movzbl	-0x3d0(%rbp), %edx
0x4088c0: 49 89 C5                   mov	%rax, %r13
0x4088c3: E9 C2 FA FF FF             jmpq	0x000000000040838a
0x4088c8: 0F 1F 84 00 00 00 00 00    nopl	0x0(%rax,%rax,1)
0x4088d0: 0F 8C 03 FE FF FF          jl	0x00000000004086d9
0x4088d6: 48 01 DB                   add	%rbx, %rbx
0x4088d9: E9 6C FA FF FF             jmpq	0x000000000040834a
0x4088de: 66 90                      xchg	%ax, %ax
0x4088e0: 4F 8D 14 3E                lea	(%r14,%r15,1), %r10
0x4088e4: 48 8D 85 F8 FC FF FF       lea	-0x308(%rbp), %rax
0x4088eb: 4C 8B 85 B8 FC FF FF       mov	-0x348(%rbp), %r8
0x4088f2: 48 C7 C1 FF FF FF FF       mov	$0xffffffffffffffff, %rcx
0x4088f9: BA 01 00 00 00             mov	$0x1, %edx
0x4088fe: 4C 89 EE                   mov	%r13, %rsi
0x408901: 48 89 04 24                mov	%rax, (%rsp)
0x408905: 4C 89 D7                   mov	%r10, %rdi
0x408908: 31 C0                      xor	%eax, %eax
0x40890a: 4C 89 95 58 FC FF FF       mov	%r10, -0x3a8(%rbp)
0x408911: E8 9A 8E FF FF             callq	0x00000000004017b0
0x408916: 4C 8B 95 58 FC FF FF       mov	-0x3a8(%rbp), %r10
0x40891d: E9 A8 F9 FF FF             jmpq	0x00000000004082ca
0x408922: 66 0F 1F 44 00 00          nopw	0x0(%rax,%rax,1)
0x408928: 48 8D 95 F8 FC FF FF       lea	-0x308(%rbp), %rdx
0x40892f: 4F 8D 14 3E                lea	(%r14,%r15,1), %r10
0x408933: 4C 89 0C 24                mov	%r9, (%rsp)
0x408937: 48 89 54 24 08             mov	%rdx, 0x8(%rsp)
0x40893c: E9 BB FA FF FF             jmpq	0x00000000004083fc
0x408941: 0F 1F 80 00 00 00 00       nopl	0x0(%rax)
0x408948: 41 C6 45 00 4C             movb	$0x4c, 0x0(%r13)
0x40894d: 49 83 C5 01                add	$0x1, %r13
0x408951: E9 9A F6 FF FF             jmpq	0x0000000000407ff0
0x408956: 66 2E 0F 1F 84 00 00 00    nopw	%cs:0x0(%rax,%rax,1)
          00 00
0x408960: 4C 89 EE                   mov	%r13, %rsi
0x408963: 4C 89 F7                   mov	%r14, %rdi
0x408966: 88 95 30 FC FF FF          mov	%dl, -0x3d0(%rbp)
0x40896c: E8 5F 8E FF FF             callq	0x00000000004017d0
0x408971: 0F B6 95 30 FC FF FF       movzbl	-0x3d0(%rbp), %edx
0x408978: 48 89 C3                   mov	%rax, %rbx
0x40897b: E9 BF FE FF FF             jmpq	0x000000000040883f
0x408980: 0F 8C 53 FD FF FF          jl	0x00000000004086d9
0x408986: 48 01 DB                   add	%rbx, %rbx
0x408989: E9 B9 FD FF FF             jmpq	0x0000000000408747
0x40898e: 66 90                      xchg	%ax, %ax
0x408990: 48 89 DE                   mov	%rbx, %rsi
0x408993: 4C 89 F7                   mov	%r14, %rdi
0x408996: 88 95 30 FC FF FF          mov	%dl, -0x3d0(%rbp)
0x40899c: E8 2F 8E FF FF             callq	0x00000000004017d0
0x4089a1: 0F B6 95 30 FC FF FF       movzbl	-0x3d0(%rbp), %edx
0x4089a8: 48 89 C1                   mov	%rax, %rcx
0x4089ab: E9 D3 FD FF FF             jmpq	0x0000000000408783
0x4089b0: DB 6A 10                   fldt	0x10(%rdx)
0x4089b3: D9 C0                      fld	%st(0)
0x4089b5: DB 3C 24                   fstpt	(%rsp)
0x4089b8: DB BD 40 FC FF FF          fstpt	-0x3c0(%rbp)
0x4089be: E8 DD 10 00 00             callq	0x0000000000409aa0
0x4089c3: 85 C0                      test	%eax, %eax
0x4089c5: DB AD 40 FC FF FF          fldt	-0x3c0(%rbp)
0x4089cb: 0F 84 FF 02 00 00          je	0x0000000000408cd0
0x4089d1: DD D8                      fstp	%st(0)
0x4089d3: 49 8B 44 24 18             mov	0x18(%r12), %rax
0x4089d8: 49 8B 4C 24 20             mov	0x20(%r12), %rcx
0x4089dd: 31 F6                      xor	%esi, %esi
0x4089df: 45 8B 4C 24 10             mov	0x10(%r12), %r9d
0x4089e4: C7 85 AC FC FF FF 00 00    movl	$0x0, -0x354(%rbp)
          00 00
0x4089ee: 48 39 C8                   cmp	%rcx, %rax
0x4089f1: 44 89 8D 80 FC FF FF       mov	%r9d, -0x380(%rbp)
0x4089f8: 74 3E                      je	0x0000000000408a38
0x4089fa: 49 8B 54 24 28             mov	0x28(%r12), %rdx
0x4089ff: 48 83 FA FF                cmp	$0xffffffffffffffff, %rdx
0x408a03: 0F 84 AD 08 00 00          je	0x00000000004092b6
0x408a09: 48 89 D0                   mov	%rdx, %rax
0x408a0c: 48 C1 E0 05                shl	$0x5, %rax
0x408a10: 48 03 85 E8 FC FF FF       add	-0x318(%rbp), %rax
0x408a17: 83 38 05                   cmpl	$0x5, (%rax)
0x408a1a: 0F 85 D1 F6 FF FF          jne	0x00000000004080f1
0x408a20: 8B 40 10                   mov	0x10(%rax), %eax
0x408a23: C7 85 AC FC FF FF 01 00    movl	$0x1, -0x354(%rbp)
          00 00
0x408a2d: 85 C0                      test	%eax, %eax
0x408a2f: 48 63 F0                   movslq	%eax, %rsi
0x408a32: 0F 88 15 0A 00 00          js	0x000000000040944d
0x408a38: 49 8B 4C 24 30             mov	0x30(%r12), %rcx
0x408a3d: 4D 8B 44 24 38             mov	0x38(%r12), %r8
0x408a42: 4C 39 C1                   cmp	%r8, %rcx
0x408a45: 0F 84 5A 0A 00 00          je	0x00000000004094a5
0x408a4b: 49 8B 44 24 40             mov	0x40(%r12), %rax
0x408a50: 48 83 F8 FF                cmp	$0xffffffffffffffff, %rax
0x408a54: 0F 84 00 08 00 00          je	0x000000000040925a
0x408a5a: 48 C1 E0 05                shl	$0x5, %rax
0x408a5e: 48 03 85 E8 FC FF FF       add	-0x318(%rbp), %rax
0x408a65: 83 38 05                   cmpl	$0x5, (%rax)
0x408a68: 0F 85 83 F6 FF FF          jne	0x00000000004080f1
0x408a6e: 8B 40 10                   mov	0x10(%rax), %eax
0x408a71: 85 C0                      test	%eax, %eax
0x408a73: 48 63 D0                   movslq	%eax, %rdx
0x408a76: 0F 88 29 0A 00 00          js	0x00000000004094a5
0x408a7c: 48 85 D2                   test	%rdx, %rdx
0x408a7f: B8 0C 00 00 00             mov	$0xc, %eax
0x408a84: 0F 85 77 07 00 00          jne	0x0000000000409201
0x408a8a: 48 39 C6                   cmp	%rax, %rsi
0x408a8d: 0F 86 CF 0C 00 00          jbe	0x0000000000409762
0x408a93: 48 8D 4E 01                lea	0x1(%rsi), %rcx
0x408a97: 48 89 F0                   mov	%rsi, %rax
0x408a9a: 48 89 8D B0 FC FF FF       mov	%rcx, -0x350(%rbp)
0x408aa1: 48 3B 85 B0 FC FF FF       cmp	-0x350(%rbp), %rax
0x408aa8: 0F 87 2B FC FF FF          ja	0x00000000004086d9
0x408aae: 48 81 BD B0 FC FF FF BC    cmpq	$0x2bc, -0x350(%rbp)
          02 00 00
0x408ab9: 4C 8D AD 00 FD FF FF       lea	-0x300(%rbp), %r13
0x408ac0: 0F 87 52 08 00 00          ja	0x0000000000409318
0x408ac6: 49 8B 44 24 50             mov	0x50(%r12), %rax
0x408acb: 48 8B 8D E8 FC FF FF       mov	-0x318(%rbp), %rcx
0x408ad2: 48 C1 E0 05                shl	$0x5, %rax
0x408ad6: DB 6C 08 10                fldt	0x10(%rax,%rcx,1)
0x408ada: 48 89 95 30 FC FF FF       mov	%rdx, -0x3d0(%rbp)
0x408ae1: 48 89 B5 50 FC FF FF       mov	%rsi, -0x3b0(%rbp)
0x408ae8: D9 C0                      fld	%st(0)
0x408aea: DB 3C 24                   fstpt	(%rsp)
0x408aed: DB BD 40 FC FF FF          fstpt	-0x3c0(%rbp)
0x408af3: E8 A8 0F 00 00             callq	0x0000000000409aa0
0x408af8: 85 C0                      test	%eax, %eax
0x408afa: 48 8B 95 30 FC FF FF       mov	-0x3d0(%rbp), %rdx
0x408b01: 48 8B B5 50 FC FF FF       mov	-0x3b0(%rbp), %rsi
0x408b08: DB AD 40 FC FF FF          fldt	-0x3c0(%rbp)
0x408b0e: 0F 84 94 04 00 00          je	0x0000000000408fa8
0x408b14: DD D8                      fstp	%st(0)
0x408b16: 41 0F B6 44 24 48          movzbl	0x48(%r12), %eax
0x408b1c: 83 E8 41                   sub	$0x41, %eax
0x408b1f: 3C 19                      cmp	$0x19, %al
0x408b21: 0F 87 FE 06 00 00          ja	0x0000000000409225
0x408b27: 49 8D 7D 03                lea	0x3(%r13), %rdi
0x408b2b: 41 C6 45 00 4E             movb	$0x4e, 0x0(%r13)
0x408b30: 41 C6 45 01 41             movb	$0x41, 0x1(%r13)
0x408b35: 41 C6 45 02 4E             movb	$0x4e, 0x2(%r13)
0x408b3a: 31 C0                      xor	%eax, %eax
0x408b3c: 8B 95 AC FC FF FF          mov	-0x354(%rbp), %edx
0x408b42: 85 D2                      test	%edx, %edx
0x408b44: 0F 85 16 04 00 00          jne	0x0000000000408f60
0x408b4a: 48 89 F9                   mov	%rdi, %rcx
0x408b4d: 4C 29 E9                   sub	%r13, %rcx
0x408b50: 48 39 8D B0 FC FF FF       cmp	%rcx, -0x350(%rbp)
0x408b57: 0F 86 94 F5 FF FF          jbe	0x00000000004080f1
0x408b5d: 48 89 D8                   mov	%rbx, %rax
0x408b60: 4C 29 F8                   sub	%r15, %rax
0x408b63: 48 39 C8                   cmp	%rcx, %rax
0x408b66: 0F 87 77 06 00 00          ja	0x00000000004091e3
0x408b6c: 48 89 CA                   mov	%rcx, %rdx
0x408b6f: 48 C7 C0 FF FF FF FF       mov	$0xffffffffffffffff, %rax
0x408b76: 4C 01 FA                   add	%r15, %rdx
0x408b79: 48 0F 43 C2                cmovae	%rdx, %rax
0x408b7d: 48 89 95 B0 FC FF FF       mov	%rdx, -0x350(%rbp)
0x408b84: 48 39 C3                   cmp	%rax, %rbx
0x408b87: 0F 83 A3 00 00 00          jae	0x0000000000408c30
0x408b8d: 48 83 FB 00                cmp	$0x0, %rbx
0x408b91: 0F 85 87 08 00 00          jne	0x000000000040941e
0x408b97: B3 0C                      mov	$0xc, %bl
0x408b99: 48 39 C3                   cmp	%rax, %rbx
0x408b9c: 48 0F 42 D8                cmovb	%rax, %rbx
0x408ba0: 48 83 FB FF                cmp	$0xffffffffffffffff, %rbx
0x408ba4: 0F 84 2F FB FF FF          je	0x00000000004086d9
0x408baa: 4C 3B B5 A0 FC FF FF       cmp	-0x360(%rbp), %r14
0x408bb1: 0F 94 85 AC FC FF FF       sete	-0x354(%rbp)
0x408bb8: 4D 85 F6                   test	%r14, %r14
0x408bbb: 74 0D                      je	0x0000000000408bca
0x408bbd: 80 BD AC FC FF FF 00       cmpb	$0x0, -0x354(%rbp)
0x408bc4: 0F 84 62 08 00 00          je	0x000000000040942c
0x408bca: 48 89 DF                   mov	%rbx, %rdi
0x408bcd: 48 89 8D 28 FC FF FF       mov	%rcx, -0x3d8(%rbp)
0x408bd4: E8 87 89 FF FF             callq	0x0000000000401560
0x408bd9: 48 8B 8D 28 FC FF FF       mov	-0x3d8(%rbp), %rcx
0x408be0: 49 89 C0                   mov	%rax, %r8
0x408be3: 4D 85 C0                   test	%r8, %r8
0x408be6: 0F 84 ED FA FF FF          je	0x00000000004086d9
0x408bec: 4D 85 FF                   test	%r15, %r15
0x408bef: 0F 84 1B 07 00 00          je	0x0000000000409310
0x408bf5: 80 BD AC FC FF FF 00       cmpb	$0x0, -0x354(%rbp)
0x408bfc: 0F 84 0E 07 00 00          je	0x0000000000409310
0x408c02: 4C 89 F6                   mov	%r14, %rsi
0x408c05: 4C 89 C7                   mov	%r8, %rdi
0x408c08: 4C 89 FA                   mov	%r15, %rdx
0x408c0b: 48 89 8D 28 FC FF FF       mov	%rcx, -0x3d8(%rbp)
0x408c12: 4C 89 85 38 FC FF FF       mov	%r8, -0x3c8(%rbp)
0x408c19: E8 92 8A FF FF             callq	0x00000000004016b0
0x408c1e: 4C 8B 85 38 FC FF FF       mov	-0x3c8(%rbp), %r8
0x408c25: 48 8B 8D 28 FC FF FF       mov	-0x3d8(%rbp), %rcx
0x408c2c: 4D 89 C6                   mov	%r8, %r14
0x408c2f: 90                         nop	
0x408c30: 4B 8D 3C 3E                lea	(%r14,%r15,1), %rdi
0x408c34: 48 89 CA                   mov	%rcx, %rdx
0x408c37: 4C 89 EE                   mov	%r13, %rsi
0x408c3a: E8 71 8A FF FF             callq	0x00000000004016b0
0x408c3f: 4C 3B AD 18 FC FF FF       cmp	-0x3e8(%rbp), %r13
0x408c46: 74 08                      je	0x0000000000408c50
0x408c48: 4C 89 EF                   mov	%r13, %rdi
0x408c4b: E8 B0 89 FF FF             callq	0x0000000000401600
0x408c50: 4C 8B BD B0 FC FF FF       mov	-0x350(%rbp), %r15
0x408c57: E9 48 FB FF FF             jmpq	0x00000000004087a4
0x408c5c: 0F 1F 40 00                nopl	0x0(%rax)
0x408c60: 48 85 DB                   test	%rbx, %rbx
0x408c63: 0F 88 D7 02 00 00          js	0x0000000000408f40
0x408c69: 48 8D 04 1B                lea	(%rbx,%rbx,1), %rax
0x408c6d: 48 83 C0 0C                add	$0xc, %rax
0x408c71: 0F 82 C9 02 00 00          jb	0x0000000000408f40
0x408c77: 48 39 C3                   cmp	%rax, %rbx
0x408c7a: 0F 83 47 F4 FF FF          jae	0x00000000004080c7
0x408c80: 48 83 FB 00                cmp	$0x0, %rbx
0x408c84: 0F 85 69 05 00 00          jne	0x00000000004091f3
0x408c8a: B3 0C                      mov	$0xc, %bl
0x408c8c: 48 39 C3                   cmp	%rax, %rbx
0x408c8f: 48 0F 42 D8                cmovb	%rax, %rbx
0x408c93: 48 83 FB FF                cmp	$0xffffffffffffffff, %rbx
0x408c97: 0F 85 BE F6 FF FF          jne	0x000000000040835b
0x408c9d: E9 37 FA FF FF             jmpq	0x00000000004086d9
0x408ca2: 66 0F 1F 44 00 00          nopw	0x0(%rax,%rax,1)
0x408ca8: 48 89 CF                   mov	%rcx, %rdi
0x408cab: 4C 89 FA                   mov	%r15, %rdx
0x408cae: 4C 89 F6                   mov	%r14, %rsi
0x408cb1: 48 89 8D 28 FC FF FF       mov	%rcx, -0x3d8(%rbp)
0x408cb8: E8 F3 89 FF FF             callq	0x00000000004016b0
0x408cbd: 48 8B 8D 28 FC FF FF       mov	-0x3d8(%rbp), %rcx
0x408cc4: E9 D0 FA FF FF             jmpq	0x0000000000408799
0x408cc9: 0F 1F 80 00 00 00 00       nopl	0x0(%rax)
0x408cd0: D9 C0                      fld	%st(0)
0x408cd2: D8 C1                      fadd	%st(1), %st
0x408cd4: D9 C9                      fxch	%st(1)
0x408cd6: DF E9                      fucomip	%st(1), %st
0x408cd8: DD D8                      fstp	%st(0)
0x408cda: 7A 06                      jp	0x0000000000408ce2
0x408cdc: 0F 84 F1 FC FF FF          je	0x00000000004089d3
0x408ce2: 49 8B 44 24 50             mov	0x50(%r12), %rax
0x408ce7: 48 8B 95 E8 FC FF FF       mov	-0x318(%rbp), %rdx
0x408cee: 48 C1 E0 05                shl	$0x5, %rax
0x408cf2: 8B 04 10                   mov	(%rax,%rdx,1), %eax
0x408cf5: 89 85 AC FC FF FF          mov	%eax, -0x354(%rbp)
0x408cfb: E9 EF F1 FF FF             jmpq	0x0000000000407eef
0x408d00: 4F 8D 14 3E                lea	(%r14,%r15,1), %r10
0x408d04: 4C 8B 85 B8 FC FF FF       mov	-0x348(%rbp), %r8
0x408d0b: 4C 8D 8D F8 FC FF FF       lea	-0x308(%rbp), %r9
0x408d12: 48 89 04 24                mov	%rax, (%rsp)
0x408d16: 89 54 24 08                mov	%edx, 0x8(%rsp)
0x408d1a: 48 C7 C1 FF FF FF FF       mov	$0xffffffffffffffff, %rcx
0x408d21: 4C 89 D7                   mov	%r10, %rdi
0x408d24: BA 01 00 00 00             mov	$0x1, %edx
0x408d29: 4C 89 EE                   mov	%r13, %rsi
0x408d2c: 31 C0                      xor	%eax, %eax
0x408d2e: 4C 89 95 58 FC FF FF       mov	%r10, -0x3a8(%rbp)
0x408d35: E8 76 8A FF FF             callq	0x00000000004017b0
0x408d3a: 4C 8B 95 58 FC FF FF       mov	-0x3a8(%rbp), %r10
0x408d41: E9 84 F5 FF FF             jmpq	0x00000000004082ca
0x408d46: 66 2E 0F 1F 84 00 00 00    nopw	%cs:0x0(%rax,%rax,1)
          00 00
0x408d50: 4F 8D 14 3E                lea	(%r14,%r15,1), %r10
0x408d54: 4C 8B 85 B8 FC FF FF       mov	-0x348(%rbp), %r8
0x408d5b: 4C 8D 8D F8 FC FF FF       lea	-0x308(%rbp), %r9
0x408d62: 48 C7 C1 FF FF FF FF       mov	$0xffffffffffffffff, %rcx
0x408d69: BA 01 00 00 00             mov	$0x1, %edx
0x408d6e: 4C 89 EE                   mov	%r13, %rsi
0x408d71: 4C 89 D7                   mov	%r10, %rdi
0x408d74: B8 01 00 00 00             mov	$0x1, %eax
0x408d79: 4C 89 95 58 FC FF FF       mov	%r10, -0x3a8(%rbp)
0x408d80: E8 2B 8A FF FF             callq	0x00000000004017b0
0x408d85: 4C 8B 95 58 FC FF FF       mov	-0x3a8(%rbp), %r10
0x408d8c: E9 39 F5 FF FF             jmpq	0x00000000004082ca
0x408d91: 0F 1F 80 00 00 00 00       nopl	0x0(%rax)
0x408d98: 48 8B 42 10                mov	0x10(%rdx), %rax
0x408d9c: 44 89 38                   mov	%r15d, (%rax)
0x408d9f: E9 00 FA FF FF             jmpq	0x00000000004087a4
0x408da4: 0F 1F 40 00                nopl	0x0(%rax)
0x408da8: 48 8B 42 10                mov	0x10(%rdx), %rax
0x408dac: 66 44 89 38                mov	%r15w, (%rax)
0x408db0: E9 EF F9 FF FF             jmpq	0x00000000004087a4
0x408db5: 0F 1F 00                   nopl	(%rax)
0x408db8: 48 8B 42 10                mov	0x10(%rdx), %rax
0x408dbc: 44 88 38                   mov	%r15b, (%rax)
0x408dbf: E9 E0 F9 FF FF             jmpq	0x00000000004087a4
0x408dc4: 0F 1F 40 00                nopl	0x0(%rax)
0x408dc8: 48 C7 C0 FF FF FF FF       mov	$0xffffffffffffffff, %rax
0x408dcf: 4D 89 FC                   mov	%r15, %r12
0x408dd2: 4D 89 F5                   mov	%r14, %r13
0x408dd5: 49 83 C4 01                add	$0x1, %r12
0x408dd9: 48 89 C2                   mov	%rax, %rdx
0x408ddc: 49 0F 43 D4                cmovae	%r12, %rdx
0x408de0: 48 39 DA                   cmp	%rbx, %rdx
0x408de3: 0F 86 86 00 00 00          jbe	0x0000000000408e6f
0x408de9: 48 85 DB                   test	%rbx, %rbx
0x408dec: 0F 85 6B 06 00 00          jne	0x000000000040945d
0x408df2: B3 0C                      mov	$0xc, %bl
0x408df4: 4D 39 E7                   cmp	%r12, %r15
0x408df7: 48 C7 C0 FF FF FF FF       mov	$0xffffffffffffffff, %rax
0x408dfe: 49 0F 46 C4                cmovbe	%r12, %rax
0x408e02: 48 39 C3                   cmp	%rax, %rbx
0x408e05: 73 0C                      jae	0x0000000000408e13
0x408e07: 4D 39 E7                   cmp	%r12, %r15
0x408e0a: 0F 87 CC F8 FF FF          ja	0x00000000004086dc
0x408e10: 4C 89 E3                   mov	%r12, %rbx
0x408e13: 48 83 FB FF                cmp	$0xffffffffffffffff, %rbx
0x408e17: 0F 84 BF F8 FF FF          je	0x00000000004086dc
0x408e1d: 4C 3B AD A0 FC FF FF       cmp	-0x360(%rbp), %r13
0x408e24: 0F 94 C2                   sete	%dl
0x408e27: 4D 85 ED                   test	%r13, %r13
0x408e2a: 74 08                      je	0x0000000000408e34
0x408e2c: 84 D2                      test	%dl, %dl
0x408e2e: 0F 84 3C 06 00 00          je	0x0000000000409470
0x408e34: 48 89 DF                   mov	%rbx, %rdi
0x408e37: 88 95 30 FC FF FF          mov	%dl, -0x3d0(%rbp)
0x408e3d: E8 1E 87 FF FF             callq	0x0000000000401560
0x408e42: 0F B6 95 30 FC FF FF       movzbl	-0x3d0(%rbp), %edx
0x408e49: 49 89 C6                   mov	%rax, %r14
0x408e4c: 4D 85 F6                   test	%r14, %r14
0x408e4f: 0F 84 87 F8 FF FF          je	0x00000000004086dc
0x408e55: 4D 85 FF                   test	%r15, %r15
0x408e58: 74 12                      je	0x0000000000408e6c
0x408e5a: 84 D2                      test	%dl, %dl
0x408e5c: 74 0E                      je	0x0000000000408e6c
0x408e5e: 4C 89 FA                   mov	%r15, %rdx
0x408e61: 4C 89 EE                   mov	%r13, %rsi
0x408e64: 4C 89 F7                   mov	%r14, %rdi
0x408e67: E8 44 88 FF FF             callq	0x00000000004016b0
0x408e6c: 4D 89 F5                   mov	%r14, %r13
0x408e6f: 43 C6 44 3D 00 00          movb	$0x0, 0x0(%r13,%r15,1)
0x408e75: 4C 3B AD A0 FC FF FF       cmp	-0x360(%rbp), %r13
0x408e7c: 74 09                      je	0x0000000000408e87
0x408e7e: 4C 39 E3                   cmp	%r12, %rbx
0x408e81: 0F 87 49 06 00 00          ja	0x00000000004094d0
0x408e87: 48 83 BD 60 FC FF FF 00    cmpq	$0x0, -0x3a0(%rbp)
0x408e8f: 74 0C                      je	0x0000000000408e9d
0x408e91: 48 8B BD 60 FC FF FF       mov	-0x3a0(%rbp), %rdi
0x408e98: E8 63 87 FF FF             callq	0x0000000000401600
0x408e9d: 48 8B BD C8 FC FF FF       mov	-0x338(%rbp), %rdi
0x408ea4: E8 57 87 FF FF             callq	0x0000000000401600
0x408ea9: 48 8B BD E8 FC FF FF       mov	-0x318(%rbp), %rdi
0x408eb0: 48 85 FF                   test	%rdi, %rdi
0x408eb3: 74 05                      je	0x0000000000408eba
0x408eb5: E8 46 87 FF FF             callq	0x0000000000401600
0x408eba: 4C 8B 85 90 FC FF FF       mov	-0x370(%rbp), %r8
0x408ec1: 4D 89 38                   mov	%r15, (%r8)
0x408ec4: E9 9F ED FF FF             jmpq	0x0000000000407c68
0x408ec9: 0F 1F 80 00 00 00 00       nopl	0x0(%rax)
0x408ed0: 48 8D 8D F8 FC FF FF       lea	-0x308(%rbp), %rcx
0x408ed7: 4F 8D 14 3E                lea	(%r14,%r15,1), %r10
0x408edb: 48 89 04 24                mov	%rax, (%rsp)
0x408edf: 89 54 24 08                mov	%edx, 0x8(%rsp)
0x408ee3: 48 89 4C 24 10             mov	%rcx, 0x10(%rsp)
0x408ee8: E9 A8 F3 FF FF             jmpq	0x0000000000408295
0x408eed: 0F 1F 00                   nopl	(%rax)
0x408ef0: 4C 8D 8D F8 FC FF FF       lea	-0x308(%rbp), %r9
0x408ef7: 4F 8D 14 3E                lea	(%r14,%r15,1), %r10
0x408efb: 4C 8B 85 B8 FC FF FF       mov	-0x348(%rbp), %r8
0x408f02: 48 C7 C1 FF FF FF FF       mov	$0xffffffffffffffff, %rcx
0x408f09: BA 01 00 00 00             mov	$0x1, %edx
0x408f0e: 4C 89 EE                   mov	%r13, %rsi
0x408f11: 4C 89 0C 24                mov	%r9, (%rsp)
0x408f15: 44 8B 8D 7C FC FF FF       mov	-0x384(%rbp), %r9d
0x408f1c: 4C 89 D7                   mov	%r10, %rdi
0x408f1f: B8 01 00 00 00             mov	$0x1, %eax
0x408f24: 4C 89 95 58 FC FF FF       mov	%r10, -0x3a8(%rbp)
0x408f2b: E8 80 88 FF FF             callq	0x00000000004017b0
0x408f30: 4C 8B 95 58 FC FF FF       mov	-0x3a8(%rbp), %r10
0x408f37: E9 8E F3 FF FF             jmpq	0x00000000004082ca
0x408f3c: 0F 1F 40 00                nopl	0x0(%rax)
0x408f40: 48 C7 C0 FF FF FF FF       mov	$0xffffffffffffffff, %rax
0x408f47: E9 2B FD FF FF             jmpq	0x0000000000408c77
0x408f4c: 0F 1F 40 00                nopl	0x0(%rax)
0x408f50: 48 98                      cltq	
0x408f52: 49 01 C7                   add	%rax, %r15
0x408f55: E9 4A F8 FF FF             jmpq	0x00000000004087a4
0x408f5a: 66 0F 1F 44 00 00          nopw	0x0(%rax,%rax,1)
0x408f60: 48 89 F9                   mov	%rdi, %rcx
0x408f63: 4C 29 E9                   sub	%r13, %rcx
0x408f66: 48 39 CE                   cmp	%rcx, %rsi
0x408f69: 0F 86 E1 FB FF FF          jbe	0x0000000000408b50
0x408f6f: 4C 89 EA                   mov	%r13, %rdx
0x408f72: 48 29 FA                   sub	%rdi, %rdx
0x408f75: F6 85 80 FC FF FF 02       testb	$0x2, -0x380(%rbp)
0x408f7c: 48 8D 34 32                lea	(%rdx,%rsi,1), %rsi
0x408f80: 48 8D 0C 37                lea	(%rdi,%rsi,1), %rcx
0x408f84: 0F 84 5D 05 00 00          je	0x00000000004094e7
0x408f8a: 48 85 F6                   test	%rsi, %rsi
0x408f8d: 74 0E                      je	0x0000000000408f9d
0x408f8f: 90                         nop	
0x408f90: C6 07 20                   movb	$0x20, (%rdi)
0x408f93: 48 83 C7 01                add	$0x1, %rdi
0x408f97: 48 83 EE 01                sub	$0x1, %rsi
0x408f9b: 75 F3                      jne	0x0000000000408f90
0x408f9d: 4C 29 E9                   sub	%r13, %rcx
0x408fa0: E9 AB FB FF FF             jmpq	0x0000000000408b50
0x408fa5: 0F 1F 00                   nopl	(%rax)
0x408fa8: D9 BD FE FC FF FF          fnstcw	-0x302(%rbp)
0x408fae: 44 0F B7 85 FE FC FF FF    movzwl	-0x302(%rbp), %r8d
0x408fb6: 44 89 C0                   mov	%r8d, %eax
0x408fb9: 80 CC 03                   or	$0x3, %ah
0x408fbc: 66 89 85 FE FC FF FF       mov	%ax, -0x302(%rbp)
0x408fc3: D9 AD FE FC FF FF          fldcw	-0x302(%rbp)
0x408fc9: D9 E5                      fxam	
0x408fcb: DF E0                      fnstsw	%ax
0x408fcd: F6 C4 02                   test	$0x2, %ah
0x408fd0: 0F 84 69 02 00 00          je	0x000000000040923f
0x408fd6: D9 E0                      fchs	
0x408fd8: 49 8D 4D 01                lea	0x1(%r13), %rcx
0x408fdc: 41 C6 45 00 2D             movb	$0x2d, 0x0(%r13)
0x408fe1: D9 EE                      fldz	
0x408fe3: D9 C0                      fld	%st(0)
0x408fe5: D9 CA                      fxch	%st(2)
0x408fe7: DB EA                      fucomi	%st(2), %st
0x408fe9: DD DA                      fstp	%st(2)
0x408feb: 0F 86 B3 00 00 00          jbe	0x00000000004090a4
0x408ff1: D9 C1                      fld	%st(1)
0x408ff3: D8 C2                      fadd	%st(2), %st
0x408ff5: DF EA                      fucomip	%st(2), %st
0x408ff7: 0F 85 A7 00 00 00          jne	0x00000000004090a4
0x408ffd: 0F 8A A1 00 00 00          jp	0x00000000004090a4
0x409003: DD D8                      fstp	%st(0)
0x409005: DD D8                      fstp	%st(0)
0x409007: 41 0F B6 44 24 48          movzbl	0x48(%r12), %eax
0x40900d: 83 E8 41                   sub	$0x41, %eax
0x409010: 3C 19                      cmp	$0x19, %al
0x409012: 0F 87 1A 06 00 00          ja	0x0000000000409632
0x409018: 48 8D 79 03                lea	0x3(%rcx), %rdi
0x40901c: C6 01 49                   movb	$0x49, (%rcx)
0x40901f: C6 41 01 4E                movb	$0x4e, 0x1(%rcx)
0x409023: C6 41 02 46                movb	$0x46, 0x2(%rcx)
0x409027: 31 C0                      xor	%eax, %eax
0x409029: 0F 1F 80 00 00 00 00       nopl	0x0(%rax)
0x409030: 66 44 89 85 FE FC FF FF    mov	%r8w, -0x302(%rbp)
0x409038: D9 AD FE FC FF FF          fldcw	-0x302(%rbp)
0x40903e: E9 F9 FA FF FF             jmpq	0x0000000000408b3c
0x409043: 0F 1F 44 00 00             nopl	0x0(%rax,%rax,1)
0x409048: 4D 85 F6                   test	%r14, %r14
0x40904b: 74 11                      je	0x000000000040905e
0x40904d: 4C 3B B5 A0 FC FF FF       cmp	-0x360(%rbp), %r14
0x409054: 74 08                      je	0x000000000040905e
0x409056: 4C 89 F7                   mov	%r14, %rdi
0x409059: E8 A2 85 FF FF             callq	0x0000000000401600
0x40905e: 48 83 BD 60 FC FF FF 00    cmpq	$0x0, -0x3a0(%rbp)
0x409066: 74 0C                      je	0x0000000000409074
0x409068: 48 8B BD 60 FC FF FF       mov	-0x3a0(%rbp), %rdi
0x40906f: E8 8C 85 FF FF             callq	0x0000000000401600
0x409074: 48 8B BD C8 FC FF FF       mov	-0x338(%rbp), %rdi
0x40907b: E8 80 85 FF FF             callq	0x0000000000401600
0x409080: 48 8B BD E8 FC FF FF       mov	-0x318(%rbp), %rdi
0x409087: 48 85 FF                   test	%rdi, %rdi
0x40908a: 74 05                      je	0x0000000000409091
0x40908c: E8 6F 85 FF FF             callq	0x0000000000401600
0x409091: E8 8A 86 FF FF             callq	0x0000000000401720
0x409096: 45 31 ED                   xor	%r13d, %r13d
0x409099: C7 00 4B 00 00 00          movl	$0x4b, (%rax)
0x40909f: E9 C4 EB FF FF             jmpq	0x0000000000407c68
0x4090a4: D9 C9                      fxch	%st(1)
0x4090a6: DF E9                      fucomip	%st(1), %st
0x4090a8: DD D8                      fstp	%st(0)
0x4090aa: 0F 8A 41 F0 FF FF          jp	0x00000000004080f1
0x4090b0: 0F 85 3B F0 FF FF          jne	0x00000000004080f1
0x4090b6: 41 0F B6 44 24 48          movzbl	0x48(%r12), %eax
0x4090bc: 3C 46                      cmp	$0x46, %al
0x4090be: 66 90                      xchg	%ax, %ax
0x4090c0: 0F 84 9A 02 00 00          je	0x0000000000409360
0x4090c6: 3C 66                      cmp	$0x66, %al
0x4090c8: 0F 84 92 02 00 00          je	0x0000000000409360
0x4090ce: 3C 45                      cmp	$0x45, %al
0x4090d0: 0F 84 6C 04 00 00          je	0x0000000000409542
0x4090d6: 3C 65                      cmp	$0x65, %al
0x4090d8: 0F 84 64 04 00 00          je	0x0000000000409542
0x4090de: 3C 47                      cmp	$0x47, %al
0x4090e0: 0F 84 70 05 00 00          je	0x0000000000409656
0x4090e6: 3C 67                      cmp	$0x67, %al
0x4090e8: 0F 84 68 05 00 00          je	0x0000000000409656
0x4090ee: 3C 41                      cmp	$0x41, %al
0x4090f0: 74 08                      je	0x00000000004090fa
0x4090f2: 3C 61                      cmp	$0x61, %al
0x4090f4: 0F 85 F7 EF FF FF          jne	0x00000000004080f1
0x4090fa: C6 01 30                   movb	$0x30, (%rcx)
0x4090fd: 41 0F B6 44 24 48          movzbl	0x48(%r12), %eax
0x409103: 4C 8D 49 02                lea	0x2(%rcx), %r9
0x409107: 83 C0 17                   add	$0x17, %eax
0x40910a: 88 41 01                   mov	%al, 0x1(%rcx)
0x40910d: 4C 89 8D 70 FC FF FF       mov	%r9, -0x390(%rbp)
0x409114: C6 41 02 30                movb	$0x30, 0x2(%rcx)
0x409118: 48 83 C1 03                add	$0x3, %rcx
0x40911c: 48 85 D2                   test	%rdx, %rdx
0x40911f: 0F 95 85 7C FC FF FF       setne	-0x384(%rbp)
0x409126: 0F 84 D0 05 00 00          je	0x00000000004096fc
0x40912c: 31 C0                      xor	%eax, %eax
0x40912e: 48 89 95 30 FC FF FF       mov	%rdx, -0x3d0(%rbp)
0x409135: 48 89 8D 28 FC FF FF       mov	%rcx, -0x3d8(%rbp)
0x40913c: 48 89 B5 50 FC FF FF       mov	%rsi, -0x3b0(%rbp)
0x409143: 44 89 85 38 FC FF FF       mov	%r8d, -0x3c8(%rbp)
0x40914a: E8 41 EA FF FF             callq	0x0000000000407b90
0x40914f: 48 8B 8D 28 FC FF FF       mov	-0x3d8(%rbp), %rcx
0x409156: 88 01                      mov	%al, (%rcx)
0x409158: 48 83 C1 01                add	$0x1, %rcx
0x40915c: 80 BD 7C FC FF FF 00       cmpb	$0x0, -0x384(%rbp)
0x409163: 48 8B 95 30 FC FF FF       mov	-0x3d0(%rbp), %rdx
0x40916a: 48 8B B5 50 FC FF FF       mov	-0x3b0(%rbp), %rsi
0x409171: 44 8B 85 38 FC FF FF       mov	-0x3c8(%rbp), %r8d
0x409178: 74 16                      je	0x0000000000409190
0x40917a: 48 89 C8                   mov	%rcx, %rax
0x40917d: 48 89 D7                   mov	%rdx, %rdi
0x409180: C6 00 30                   movb	$0x30, (%rax)
0x409183: 48 83 C0 01                add	$0x1, %rax
0x409187: 48 83 EF 01                sub	$0x1, %rdi
0x40918b: 75 F3                      jne	0x0000000000409180
0x40918d: 48 01 D1                   add	%rdx, %rcx
0x409190: 41 0F B6 44 24 48          movzbl	0x48(%r12), %eax
0x409196: 48 8D 79 03                lea	0x3(%rcx), %rdi
0x40919a: C6 41 01 2B                movb	$0x2b, 0x1(%rcx)
0x40919e: C6 41 02 30                movb	$0x30, 0x2(%rcx)
0x4091a2: 83 C0 0F                   add	$0xf, %eax
0x4091a5: 88 01                      mov	%al, (%rcx)
0x4091a7: 48 8B 85 70 FC FF FF       mov	-0x390(%rbp), %rax
0x4091ae: E9 7D FE FF FF             jmpq	0x0000000000409030
0x4091b3: 48 8B BD C8 FC FF FF       mov	-0x338(%rbp), %rdi
0x4091ba: E8 41 84 FF FF             callq	0x0000000000401600
0x4091bf: 48 8B BD E8 FC FF FF       mov	-0x318(%rbp), %rdi
0x4091c6: 48 85 FF                   test	%rdi, %rdi
0x4091c9: 74 05                      je	0x00000000004091d0
0x4091cb: E8 30 84 FF FF             callq	0x0000000000401600
0x4091d0: E8 4B 85 FF FF             callq	0x0000000000401720
0x4091d5: 45 31 ED                   xor	%r13d, %r13d
0x4091d8: C7 00 16 00 00 00          movl	$0x16, (%rax)
0x4091de: E9 85 EA FF FF             jmpq	0x0000000000407c68
0x4091e3: 4A 8D 04 39                lea	(%rcx,%r15,1), %rax
0x4091e7: 48 89 85 B0 FC FF FF       mov	%rax, -0x350(%rbp)
0x4091ee: E9 3D FA FF FF             jmpq	0x0000000000408c30
0x4091f3: 0F 8C E0 F4 FF FF          jl	0x00000000004086d9
0x4091f9: 48 01 DB                   add	%rbx, %rbx
0x4091fc: E9 8B FA FF FF             jmpq	0x0000000000408c8c
0x409201: 48 89 D0                   mov	%rdx, %rax
0x409204: 48 83 C0 0C                add	$0xc, %rax
0x409208: 0F 83 7C F8 FF FF          jae	0x0000000000408a8a
0x40920e: 48 C7 85 B0 FC FF FF 00    movq	$0x0, -0x350(%rbp)
          00 00 00
0x409219: 48 C7 C0 FF FF FF FF       mov	$0xffffffffffffffff, %rax
0x409220: E9 7C F8 FF FF             jmpq	0x0000000000408aa1
0x409225: 41 C6 45 00 6E             movb	$0x6e, 0x0(%r13)
0x40922a: 41 C6 45 01 61             movb	$0x61, 0x1(%r13)
0x40922f: 49 8D 7D 03                lea	0x3(%r13), %rdi
0x409233: 41 C6 45 02 6E             movb	$0x6e, 0x2(%r13)
0x409238: 31 C0                      xor	%eax, %eax
0x40923a: E9 FD F8 FF FF             jmpq	0x0000000000408b3c
0x40923f: F6 85 80 FC FF FF 04       testb	$0x4, -0x380(%rbp)
0x409246: 0F 84 B4 01 00 00          je	0x0000000000409400
0x40924c: 41 C6 45 00 2B             movb	$0x2b, 0x0(%r13)
0x409251: 49 8D 4D 01                lea	0x1(%r13), %rcx
0x409255: E9 87 FD FF FF             jmpq	0x0000000000408fe1
0x40925a: 48 83 C1 01                add	$0x1, %rcx
0x40925e: 49 39 C8                   cmp	%rcx, %r8
0x409261: 0F 84 5C 02 00 00          je	0x00000000004094c3
0x409267: 31 D2                      xor	%edx, %edx
0x409269: 0F 1F 80 00 00 00 00       nopl	0x0(%rax)
0x409270: 49 B9 99 99 99 99 99 99    mov	$0x1999999999999999, %r9
          99 19
0x40927a: 0F B6 39                   movzbl	(%rcx), %edi
0x40927d: 48 83 C1 01                add	$0x1, %rcx
0x409281: 4C 39 CA                   cmp	%r9, %rdx
0x409284: 48 C7 C0 FF FF FF FF       mov	$0xffffffffffffffff, %rax
0x40928b: 77 07                      ja	0x0000000000409294
0x40928d: 48 8D 04 92                lea	(%rdx,%rdx,4), %rax
0x409291: 48 01 C0                   add	%rax, %rax
0x409294: 40 0F BE D7                movsbl	%dil, %edx
0x409298: 83 EA 30                   sub	$0x30, %edx
0x40929b: 48 63 D2                   movslq	%edx, %rdx
0x40929e: 48 01 C2                   add	%rax, %rdx
0x4092a1: 48 C7 C0 FF FF FF FF       mov	$0xffffffffffffffff, %rax
0x4092a8: 48 0F 42 D0                cmovb	%rax, %rdx
0x4092ac: 4C 39 C1                   cmp	%r8, %rcx
0x4092af: 75 BF                      jne	0x0000000000409270
0x4092b1: E9 C6 F7 FF FF             jmpq	0x0000000000408a7c
0x4092b6: 31 F6                      xor	%esi, %esi
0x4092b8: 0F 1F 84 00 00 00 00 00    nopl	0x0(%rax,%rax,1)
0x4092c0: 49 B8 99 99 99 99 99 99    mov	$0x1999999999999999, %r8
          99 19
0x4092ca: 0F B6 38                   movzbl	(%rax), %edi
0x4092cd: 48 83 C0 01                add	$0x1, %rax
0x4092d1: 4C 39 C6                   cmp	%r8, %rsi
0x4092d4: 48 C7 C2 FF FF FF FF       mov	$0xffffffffffffffff, %rdx
0x4092db: 77 07                      ja	0x00000000004092e4
0x4092dd: 48 8D 14 B6                lea	(%rsi,%rsi,4), %rdx
0x4092e1: 48 01 D2                   add	%rdx, %rdx
0x4092e4: 40 0F BE F7                movsbl	%dil, %esi
0x4092e8: 49 C7 C1 FF FF FF FF       mov	$0xffffffffffffffff, %r9
0x4092ef: 83 EE 30                   sub	$0x30, %esi
0x4092f2: 48 63 F6                   movslq	%esi, %rsi
0x4092f5: 48 01 D6                   add	%rdx, %rsi
0x4092f8: 49 0F 42 F1                cmovb	%r9, %rsi
0x4092fc: 48 39 C1                   cmp	%rax, %rcx
0x4092ff: 75 BF                      jne	0x00000000004092c0
0x409301: C7 85 AC FC FF FF 01 00    movl	$0x1, -0x354(%rbp)
          00 00
0x40930b: E9 28 F7 FF FF             jmpq	0x0000000000408a38
0x409310: 4D 89 C6                   mov	%r8, %r14
0x409313: E9 18 F9 FF FF             jmpq	0x0000000000408c30
0x409318: 48 83 BD B0 FC FF FF FF    cmpq	$0xffffffffffffffff, -0x350(%rbp)
0x409320: 0F 84 B3 F3 FF FF          je	0x00000000004086d9
0x409326: 48 8B BD B0 FC FF FF       mov	-0x350(%rbp), %rdi
0x40932d: 48 89 95 30 FC FF FF       mov	%rdx, -0x3d0(%rbp)
0x409334: 48 89 B5 50 FC FF FF       mov	%rsi, -0x3b0(%rbp)
0x40933b: E8 20 82 FF FF             callq	0x0000000000401560
0x409340: 48 85 C0                   test	%rax, %rax
0x409343: 49 89 C5                   mov	%rax, %r13
0x409346: 48 8B 95 30 FC FF FF       mov	-0x3d0(%rbp), %rdx
0x40934d: 48 8B B5 50 FC FF FF       mov	-0x3b0(%rbp), %rsi
0x409354: 0F 85 6C F7 FF FF          jne	0x0000000000408ac6
0x40935a: E9 7A F3 FF FF             jmpq	0x00000000004086d9
0x40935f: 90                         nop	
0x409360: 48 85 D2                   test	%rdx, %rdx
0x409363: C6 01 30                   movb	$0x30, (%rcx)
0x409366: 48 8D 79 01                lea	0x1(%rcx), %rdi
0x40936a: 41 0F 95 C1                setne	%r9b
0x40936e: 0F 84 1C 01 00 00          je	0x0000000000409490
0x409374: 31 C0                      xor	%eax, %eax
0x409376: 48 89 95 30 FC FF FF       mov	%rdx, -0x3d0(%rbp)
0x40937d: 48 89 8D 28 FC FF FF       mov	%rcx, -0x3d8(%rbp)
0x409384: 48 89 B5 50 FC FF FF       mov	%rsi, -0x3b0(%rbp)
0x40938b: 48 89 BD 58 FC FF FF       mov	%rdi, -0x3a8(%rbp)
0x409392: 44 89 85 38 FC FF FF       mov	%r8d, -0x3c8(%rbp)
0x409399: 44 88 8D 40 FC FF FF       mov	%r9b, -0x3c0(%rbp)
0x4093a0: E8 EB E7 FF FF             callq	0x0000000000407b90
0x4093a5: 48 8B BD 58 FC FF FF       mov	-0x3a8(%rbp), %rdi
0x4093ac: 88 07                      mov	%al, (%rdi)
0x4093ae: 44 0F B6 8D 40 FC FF FF    movzbl	-0x3c0(%rbp), %r9d
0x4093b6: 48 83 C7 01                add	$0x1, %rdi
0x4093ba: 48 8B 95 30 FC FF FF       mov	-0x3d0(%rbp), %rdx
0x4093c1: 48 8B 8D 28 FC FF FF       mov	-0x3d8(%rbp), %rcx
0x4093c8: 48 8B B5 50 FC FF FF       mov	-0x3b0(%rbp), %rsi
0x4093cf: 44 8B 85 38 FC FF FF       mov	-0x3c8(%rbp), %r8d
0x4093d6: 45 84 C9                   test	%r9b, %r9b
0x4093d9: 0F 84 BE 00 00 00          je	0x000000000040949d
0x4093df: 48 89 F8                   mov	%rdi, %rax
0x4093e2: 49 89 D1                   mov	%rdx, %r9
0x4093e5: 0F 1F 00                   nopl	(%rax)
0x4093e8: C6 00 30                   movb	$0x30, (%rax)
0x4093eb: 48 83 C0 01                add	$0x1, %rax
0x4093ef: 49 83 E9 01                sub	$0x1, %r9
0x4093f3: 75 F3                      jne	0x00000000004093e8
0x4093f5: 48 01 D7                   add	%rdx, %rdi
0x4093f8: 48 89 C8                   mov	%rcx, %rax
0x4093fb: E9 30 FC FF FF             jmpq	0x0000000000409030
0x409400: F6 85 80 FC FF FF 08       testb	$0x8, -0x380(%rbp)
0x409407: 4C 89 E9                   mov	%r13, %rcx
0x40940a: 0F 84 D1 FB FF FF          je	0x0000000000408fe1
0x409410: 41 C6 45 00 20             movb	$0x20, 0x0(%r13)
0x409415: 49 8D 4D 01                lea	0x1(%r13), %rcx
0x409419: E9 C3 FB FF FF             jmpq	0x0000000000408fe1
0x40941e: 0F 8C B5 F2 FF FF          jl	0x00000000004086d9
0x409424: 48 01 DB                   add	%rbx, %rbx
0x409427: E9 6D F7 FF FF             jmpq	0x0000000000408b99
0x40942c: 48 89 DE                   mov	%rbx, %rsi
0x40942f: 4C 89 F7                   mov	%r14, %rdi
0x409432: 48 89 8D 28 FC FF FF       mov	%rcx, -0x3d8(%rbp)
0x409439: E8 92 83 FF FF             callq	0x00000000004017d0
0x40943e: 48 8B 8D 28 FC FF FF       mov	-0x3d8(%rbp), %rcx
0x409445: 49 89 C0                   mov	%rax, %r8
0x409448: E9 96 F7 FF FF             jmpq	0x0000000000408be3
0x40944d: F7 D8                      neg	%eax
0x40944f: 83 8D 80 FC FF FF 02       orl	$0x2, -0x380(%rbp)
0x409456: 89 C6                      mov	%eax, %esi
0x409458: E9 DB F5 FF FF             jmpq	0x0000000000408a38
0x40945d: 48 8D 14 1B                lea	(%rbx,%rbx,1), %rdx
0x409461: 48 85 DB                   test	%rbx, %rbx
0x409464: 48 89 C3                   mov	%rax, %rbx
0x409467: 48 0F 49 DA                cmovns	%rdx, %rbx
0x40946b: E9 84 F9 FF FF             jmpq	0x0000000000408df4
0x409470: 48 89 DE                   mov	%rbx, %rsi
0x409473: 4C 89 EF                   mov	%r13, %rdi
0x409476: 88 95 30 FC FF FF          mov	%dl, -0x3d0(%rbp)
0x40947c: E8 4F 83 FF FF             callq	0x00000000004017d0
0x409481: 0F B6 95 30 FC FF FF       movzbl	-0x3d0(%rbp), %edx
0x409488: 49 89 C6                   mov	%rax, %r14
0x40948b: E9 BC F9 FF FF             jmpq	0x0000000000408e4c
0x409490: F6 85 80 FC FF FF 10       testb	$0x10, -0x380(%rbp)
0x409497: 0F 85 D7 FE FF FF          jne	0x0000000000409374
0x40949d: 48 89 C8                   mov	%rcx, %rax
0x4094a0: E9 8B FB FF FF             jmpq	0x0000000000409030
0x4094a5: 41 0F B6 4C 24 48          movzbl	0x48(%r12), %ecx
0x4094ab: 80 F9 41                   cmp	$0x41, %cl
0x4094ae: 74 13                      je	0x00000000004094c3
0x4094b0: 80 F9 61                   cmp	$0x61, %cl
0x4094b3: BA 06 00 00 00             mov	$0x6, %edx
0x4094b8: B8 12 00 00 00             mov	$0x12, %eax
0x4094bd: 0F 85 C7 F5 FF FF          jne	0x0000000000408a8a
0x4094c3: 31 D2                      xor	%edx, %edx
0x4094c5: B8 0C 00 00 00             mov	$0xc, %eax
0x4094ca: E9 BB F5 FF FF             jmpq	0x0000000000408a8a
0x4094cf: 90                         nop	
0x4094d0: 4C 89 EF                   mov	%r13, %rdi
0x4094d3: 4C 89 E6                   mov	%r12, %rsi
0x4094d6: E8 F5 82 FF FF             callq	0x00000000004017d0
0x4094db: 48 85 C0                   test	%rax, %rax
0x4094de: 4C 0F 45 E8                cmovne	%rax, %r13
0x4094e2: E9 A0 F9 FF FF             jmpq	0x0000000000408e87
0x4094e7: 48 85 C0                   test	%rax, %rax
0x4094ea: 74 0D                      je	0x00000000004094f9
0x4094ec: F6 85 80 FC FF FF 20       testb	$0x20, -0x380(%rbp)
0x4094f3: 0F 85 FA 00 00 00          jne	0x00000000004095f3
0x4094f9: 49 39 FD                   cmp	%rdi, %r13
0x4094fc: 48 89 CA                   mov	%rcx, %rdx
0x4094ff: 48 89 F8                   mov	%rdi, %rax
0x409502: 73 1A                      jae	0x000000000040951e
0x409504: 0F 1F 40 00                nopl	0x0(%rax)
0x409508: 48 83 E8 01                sub	$0x1, %rax
0x40950c: 48 83 EA 01                sub	$0x1, %rdx
0x409510: 0F B6 38                   movzbl	(%rax), %edi
0x409513: 49 39 C5                   cmp	%rax, %r13
0x409516: 40 88 3A                   mov	%dil, (%rdx)
0x409519: 72 ED                      jb	0x0000000000409508
0x40951b: 4C 89 EF                   mov	%r13, %rdi
0x40951e: 48 85 F6                   test	%rsi, %rsi
0x409521: 0F 84 76 FA FF FF          je	0x0000000000408f9d
0x409527: 66 0F 1F 84 00 00 00 00    nopw	0x0(%rax,%rax,1)
          00
0x409530: C6 07 20                   movb	$0x20, (%rdi)
0x409533: 48 83 C7 01                add	$0x1, %rdi
0x409537: 48 83 EE 01                sub	$0x1, %rsi
0x40953b: 75 F3                      jne	0x0000000000409530
0x40953d: E9 5B FA FF FF             jmpq	0x0000000000408f9d
0x409542: 48 85 D2                   test	%rdx, %rdx
0x409545: C6 01 30                   movb	$0x30, (%rcx)
0x409548: 48 8D 79 01                lea	0x1(%rcx), %rdi
0x40954c: 41 0F 95 C1                setne	%r9b
0x409550: 0F 84 F2 00 00 00          je	0x0000000000409648
0x409556: 31 C0                      xor	%eax, %eax
0x409558: 48 89 95 30 FC FF FF       mov	%rdx, -0x3d0(%rbp)
0x40955f: 48 89 8D 28 FC FF FF       mov	%rcx, -0x3d8(%rbp)
0x409566: 48 89 B5 50 FC FF FF       mov	%rsi, -0x3b0(%rbp)
0x40956d: 48 89 BD 58 FC FF FF       mov	%rdi, -0x3a8(%rbp)
0x409574: 44 89 85 38 FC FF FF       mov	%r8d, -0x3c8(%rbp)
0x40957b: 44 88 8D 40 FC FF FF       mov	%r9b, -0x3c0(%rbp)
0x409582: E8 09 E6 FF FF             callq	0x0000000000407b90
0x409587: 48 8B BD 58 FC FF FF       mov	-0x3a8(%rbp), %rdi
0x40958e: 88 07                      mov	%al, (%rdi)
0x409590: 44 0F B6 8D 40 FC FF FF    movzbl	-0x3c0(%rbp), %r9d
0x409598: 48 83 C7 01                add	$0x1, %rdi
0x40959c: 48 8B 95 30 FC FF FF       mov	-0x3d0(%rbp), %rdx
0x4095a3: 48 8B 8D 28 FC FF FF       mov	-0x3d8(%rbp), %rcx
0x4095aa: 48 8B B5 50 FC FF FF       mov	-0x3b0(%rbp), %rsi
0x4095b1: 44 8B 85 38 FC FF FF       mov	-0x3c8(%rbp), %r8d
0x4095b8: 45 84 C9                   test	%r9b, %r9b
0x4095bb: 74 16                      je	0x00000000004095d3
0x4095bd: 48 89 F8                   mov	%rdi, %rax
0x4095c0: 49 89 D1                   mov	%rdx, %r9
0x4095c3: C6 00 30                   movb	$0x30, (%rax)
0x4095c6: 48 83 C0 01                add	$0x1, %rax
0x4095ca: 49 83 E9 01                sub	$0x1, %r9
0x4095ce: 75 F3                      jne	0x00000000004095c3
0x4095d0: 48 01 D7                   add	%rdx, %rdi
0x4095d3: 41 0F B6 44 24 48          movzbl	0x48(%r12), %eax
0x4095d9: C6 47 01 2B                movb	$0x2b, 0x1(%rdi)
0x4095dd: C6 47 02 30                movb	$0x30, 0x2(%rdi)
0x4095e1: C6 47 03 30                movb	$0x30, 0x3(%rdi)
0x4095e5: 88 07                      mov	%al, (%rdi)
0x4095e7: 48 83 C7 04                add	$0x4, %rdi
0x4095eb: 48 89 C8                   mov	%rcx, %rax
0x4095ee: E9 3D FA FF FF             jmpq	0x0000000000409030
0x4095f3: 48 39 F8                   cmp	%rdi, %rax
0x4095f6: 73 1F                      jae	0x0000000000409617
0x4095f8: 48 89 CA                   mov	%rcx, %rdx
0x4095fb: 0F 1F 44 00 00             nopl	0x0(%rax,%rax,1)
0x409600: 48 83 EF 01                sub	$0x1, %rdi
0x409604: 48 83 EA 01                sub	$0x1, %rdx
0x409608: 44 0F B6 07                movzbl	(%rdi), %r8d
0x40960c: 48 39 F8                   cmp	%rdi, %rax
0x40960f: 44 88 02                   mov	%r8b, (%rdx)
0x409612: 72 EC                      jb	0x0000000000409600
0x409614: 48 89 C7                   mov	%rax, %rdi
0x409617: 48 85 F6                   test	%rsi, %rsi
0x40961a: 0F 84 7D F9 FF FF          je	0x0000000000408f9d
0x409620: C6 07 30                   movb	$0x30, (%rdi)
0x409623: 48 83 C7 01                add	$0x1, %rdi
0x409627: 48 83 EE 01                sub	$0x1, %rsi
0x40962b: 75 F3                      jne	0x0000000000409620
0x40962d: E9 6B F9 FF FF             jmpq	0x0000000000408f9d
0x409632: C6 01 69                   movb	$0x69, (%rcx)
0x409635: C6 41 01 6E                movb	$0x6e, 0x1(%rcx)
0x409639: 48 8D 79 03                lea	0x3(%rcx), %rdi
0x40963d: C6 41 02 66                movb	$0x66, 0x2(%rcx)
0x409641: 31 C0                      xor	%eax, %eax
0x409643: E9 E8 F9 FF FF             jmpq	0x0000000000409030
0x409648: F6 85 80 FC FF FF 10       testb	$0x10, -0x380(%rbp)
0x40964f: 74 82                      je	0x00000000004095d3
0x409651: E9 00 FF FF FF             jmpq	0x0000000000409556
0x409656: C6 01 30                   movb	$0x30, (%rcx)
0x409659: F6 85 80 FC FF FF 10       testb	$0x10, -0x380(%rbp)
0x409660: 48 8D 79 01                lea	0x1(%rcx), %rdi
0x409664: 0F 84 33 FE FF FF          je	0x000000000040949d
0x40966a: 48 85 D2                   test	%rdx, %rdx
0x40966d: 0F 84 A2 00 00 00          je	0x0000000000409715
0x409673: 4C 8D 4A FF                lea	-0x1(%rdx), %r9
0x409677: 31 C0                      xor	%eax, %eax
0x409679: 48 89 8D 28 FC FF FF       mov	%rcx, -0x3d8(%rbp)
0x409680: 48 89 B5 50 FC FF FF       mov	%rsi, -0x3b0(%rbp)
0x409687: 48 89 BD 58 FC FF FF       mov	%rdi, -0x3a8(%rbp)
0x40968e: 4C 89 8D 30 FC FF FF       mov	%r9, -0x3d0(%rbp)
0x409695: 44 89 85 38 FC FF FF       mov	%r8d, -0x3c8(%rbp)
0x40969c: 4C 89 8D 40 FC FF FF       mov	%r9, -0x3c0(%rbp)
0x4096a3: E8 E8 E4 FF FF             callq	0x0000000000407b90
0x4096a8: 48 8B BD 58 FC FF FF       mov	-0x3a8(%rbp), %rdi
0x4096af: 88 07                      mov	%al, (%rdi)
0x4096b1: 4C 8B 8D 40 FC FF FF       mov	-0x3c0(%rbp), %r9
0x4096b8: 48 8B 8D 28 FC FF FF       mov	-0x3d8(%rbp), %rcx
0x4096bf: 48 8B 95 30 FC FF FF       mov	-0x3d0(%rbp), %rdx
0x4096c6: 48 8B B5 50 FC FF FF       mov	-0x3b0(%rbp), %rsi
0x4096cd: 44 8B 85 38 FC FF FF       mov	-0x3c8(%rbp), %r8d
0x4096d4: 4D 85 C9                   test	%r9, %r9
0x4096d7: 48 8D 79 02                lea	0x2(%rcx), %rdi
0x4096db: 0F 84 BC FD FF FF          je	0x000000000040949d
0x4096e1: 48 89 F8                   mov	%rdi, %rax
0x4096e4: C6 00 30                   movb	$0x30, (%rax)
0x4096e7: 48 83 C0 01                add	$0x1, %rax
0x4096eb: 48 83 EA 01                sub	$0x1, %rdx
0x4096ef: 75 F3                      jne	0x00000000004096e4
0x4096f1: 4C 01 CF                   add	%r9, %rdi
0x4096f4: 48 89 C8                   mov	%rcx, %rax
0x4096f7: E9 34 F9 FF FF             jmpq	0x0000000000409030
0x4096fc: F6 85 80 FC FF FF 10       testb	$0x10, -0x380(%rbp)
0x409703: 0F 84 87 FA FF FF          je	0x0000000000409190
0x409709: E9 1E FA FF FF             jmpq	0x000000000040912c
0x40970e: 66 90                      xchg	%ax, %ax
0x409710: E8 2B 80 FF FF             callq	0x0000000000401740
0x409715: 31 C0                      xor	%eax, %eax
0x409717: 48 89 8D 28 FC FF FF       mov	%rcx, -0x3d8(%rbp)
0x40971e: 48 89 B5 50 FC FF FF       mov	%rsi, -0x3b0(%rbp)
0x409725: 48 89 BD 58 FC FF FF       mov	%rdi, -0x3a8(%rbp)
0x40972c: 44 89 85 38 FC FF FF       mov	%r8d, -0x3c8(%rbp)
0x409733: E8 58 E4 FF FF             callq	0x0000000000407b90
0x409738: 48 8B BD 58 FC FF FF       mov	-0x3a8(%rbp), %rdi
0x40973f: 88 07                      mov	%al, (%rdi)
0x409741: 48 8B 8D 28 FC FF FF       mov	-0x3d8(%rbp), %rcx
0x409748: 48 8B B5 50 FC FF FF       mov	-0x3b0(%rbp), %rsi
0x40974f: 44 8B 85 38 FC FF FF       mov	-0x3c8(%rbp), %r8d
0x409756: 48 8D 79 02                lea	0x2(%rcx), %rdi
0x40975a: 48 89 C8                   mov	%rcx, %rax
0x40975d: E9 CE F8 FF FF             jmpq	0x0000000000409030
0x409762: 4C 8D 40 01                lea	0x1(%rax), %r8
0x409766: 4C 89 85 B0 FC FF FF       mov	%r8, -0x350(%rbp)
0x40976d: E9 2F F3 FF FF             jmpq	0x0000000000408aa1
0x409772: 90                         nop	
0x409773: 90                         nop	
0x409774: 90                         nop	
0x409775: 90                         nop	
0x409776: 90                         nop	
0x409777: 90                         nop	
0x409778: 90                         nop	
0x409779: 90                         nop	
0x40977a: 90                         nop	
0x40977b: 90                         nop	
0x40977c: 90                         nop	
0x40977d: 90                         nop	
0x40977e: 90                         nop	
0x40977f: 90                         nop	
0x409780: 48 85 FF                   test	%rdi, %rdi
0x409783: 74 09                      je	0x000000000040978e
0x409785: 81 7F FC 4A FB 15 14       cmpl	$0x1415fb4a, -0x4(%rdi)
0x40978c: 74 02                      je	0x0000000000409790
0x40978e: F3 C3                      repz  retq	
0x409790: 48 89 F8                   mov	%rdi, %rax
0x409793: 48 BA 01 FF 00 FF 00 FF    mov	$0xff00ff00ff00ff01, %rdx
          00 FF
0x40979d: 48 F7 E2                   mul	%rdx
0x4097a0: 48 C1 EA 08                shr	$0x8, %rdx
0x4097a4: 48 89 D0                   mov	%rdx, %rax
0x4097a7: 48 C1 E0 08                shl	$0x8, %rax
0x4097ab: 48 8D 14 10                lea	(%rax,%rdx,1), %rdx
0x4097af: 48 89 F8                   mov	%rdi, %rax
0x4097b2: 48 29 D0                   sub	%rdx, %rax
0x4097b5: 48 8D 0C C5 20 D4 60 00    lea	0x60d420(,%rax,8), %rcx
0x4097bd: 48 8B 04 C5 20 D4 60 00    mov	0x60d420(,%rax,8), %rax
0x4097c5: 48 85 C0                   test	%rax, %rax
0x4097c8: 75 13                      jne	0x00000000004097dd
0x4097ca: EB C2                      jmp	0x000000000040978e
0x4097cc: 0F 1F 40 00                nopl	0x0(%rax)
0x4097d0: 48 8D 48 F0                lea	-0x10(%rax), %rcx
0x4097d4: 48 8B 40 F0                mov	-0x10(%rax), %rax
0x4097d8: 48 85 C0                   test	%rax, %rax
0x4097db: 74 B1                      je	0x000000000040978e
0x4097dd: 48 39 C7                   cmp	%rax, %rdi
0x4097e0: 75 EE                      jne	0x00000000004097d0
0x4097e2: 48 8B 57 F0                mov	-0x10(%rdi), %rdx
0x4097e6: 48 8D 47 F0                lea	-0x10(%rdi), %rax
0x4097ea: 48 89 C7                   mov	%rax, %rdi
0x4097ed: 48 89 11                   mov	%rdx, (%rcx)
0x4097f0: E9 0B 7E FF FF             jmpq	0x0000000000401600
0x4097f5: 66 66 2E 0F 1F 84 00 00    nopw	%cs:0x0(%rax,%rax,1)
          00 00 00
0x409800: 48 83 EC 08                sub	$0x8, %rsp
0x409804: 48 83 C7 10                add	$0x10, %rdi
0x409808: 73 0E                      jae	0x0000000000409818
0x40980a: 31 C0                      xor	%eax, %eax
0x40980c: 48 83 C4 08                add	$0x8, %rsp
0x409810: C3                         retq	
0x409811: 0F 1F 80 00 00 00 00       nopl	0x0(%rax)
0x409818: E8 43 7D FF FF             callq	0x0000000000401560
0x40981d: 48 85 C0                   test	%rax, %rax
0x409820: 74 E8                      je	0x000000000040980a
0x409822: 48 8D 48 10                lea	0x10(%rax), %rcx
0x409826: 48 BA 01 FF 00 FF 00 FF    mov	$0xff00ff00ff00ff01, %rdx
          00 FF
0x409830: 48 89 C8                   mov	%rcx, %rax
0x409833: C7 41 FC 4A FB 15 14       movl	$0x1415fb4a, -0x4(%rcx)
0x40983a: 48 F7 E2                   mul	%rdx
0x40983d: 48 C1 EA 08                shr	$0x8, %rdx
0x409841: 48 89 D0                   mov	%rdx, %rax
0x409844: 48 C1 E0 08                shl	$0x8, %rax
0x409848: 48 8D 14 10                lea	(%rax,%rdx,1), %rdx
0x40984c: 48 89 C8                   mov	%rcx, %rax
0x40984f: 48 29 D0                   sub	%rdx, %rax
0x409852: 48 89 C2                   mov	%rax, %rdx
0x409855: 48 8B 04 C5 20 D4 60 00    mov	0x60d420(,%rax,8), %rax
0x40985d: 48 89 41 F0                mov	%rax, -0x10(%rcx)
0x409861: 48 89 0C D5 20 D4 60 00    mov	%rcx, 0x60d420(,%rdx,8)
0x409869: 48 89 C8                   mov	%rcx, %rax
0x40986c: EB 9E                      jmp	0x000000000040980c
0x40986e: 90                         nop	
0x40986f: 90                         nop	
0x409870: 41 54                      push	%r12
0x409872: 55                         push	%rbp
0x409873: 53                         push	%rbx
0x409874: 48 89 FB                   mov	%rdi, %rbx
0x409877: 48 83 EC 50                sub	$0x50, %rsp
0x40987b: 64 48 8B 04 25 28 00 00    mov	%fs:0x28, %rax
          00
0x409884: 48 89 44 24 48             mov	%rax, 0x48(%rsp)
0x409889: 31 C0                      xor	%eax, %eax
0x40988b: E8 90 7D FF FF             callq	0x0000000000401620
0x409890: 48 83 F8 01                cmp	$0x1, %rax
0x409894: 0F 86 A6 01 00 00          jbe	0x0000000000409a40
0x40989a: C6 04 24 00                movb	$0x0, (%rsp)
0x40989e: 31 ED                      xor	%ebp, %ebp
0x4098a0: 80 3C 24 00                cmpb	$0x0, (%rsp)
0x4098a4: 48 89 5C 24 10             mov	%rbx, 0x10(%rsp)
0x4098a9: 48 C7 44 24 04 00 00 00    movq	$0x0, 0x4(%rsp)
          00
0x4098b2: 48 89 E3                   mov	%rsp, %rbx
0x4098b5: C6 44 24 0C 00             movb	$0x0, 0xc(%rsp)
0x4098ba: 4C 8D 64 24 04             lea	0x4(%rsp), %r12
0x4098bf: 75 65                      jne	0x0000000000409926
0x4098c1: 0F 1F 80 00 00 00 00       nopl	0x0(%rax)
0x4098c8: 48 8B 54 24 10             mov	0x10(%rsp), %rdx
0x4098cd: 0F B6 02                   movzbl	(%rdx), %eax
0x4098d0: 89 C1                      mov	%eax, %ecx
0x4098d2: C0 E9 05                   shr	$0x5, %cl
0x4098d5: 0F B6 C9                   movzbl	%cl, %ecx
0x4098d8: 8B 0C 8D A0 BA 40 00       mov	0x40baa0(,%rcx,4), %ecx
0x4098df: 0F A3 C1                   bt	%eax, %ecx
0x4098e2: 0F 83 08 01 00 00          jae	0x00000000004099f0
0x4098e8: 48 C7 44 24 18 01 00 00    movq	$0x1, 0x18(%rsp)
          00
0x4098f1: 0F BE 02                   movsbl	(%rdx), %eax
0x4098f4: C6 44 24 20 01             movb	$0x1, 0x20(%rsp)
0x4098f9: 89 44 24 24                mov	%eax, 0x24(%rsp)
0x4098fd: 80 7C 24 20 00             cmpb	$0x0, 0x20(%rsp)
0x409902: C6 44 24 0C 01             movb	$0x1, 0xc(%rsp)
0x409907: 0F 85 B3 00 00 00          jne	0x00000000004099c0
0x40990d: 48 83 C5 01                add	$0x1, %rbp
0x409911: 48 8B 44 24 18             mov	0x18(%rsp), %rax
0x409916: 48 01 44 24 10             add	%rax, 0x10(%rsp)
0x40991b: 80 3C 24 00                cmpb	$0x0, (%rsp)
0x40991f: C6 44 24 0C 00             movb	$0x0, 0xc(%rsp)
0x409924: 74 A2                      je	0x00000000004098c8
0x409926: E8 F5 7C FF FF             callq	0x0000000000401620
0x40992b: 48 8B 7C 24 10             mov	0x10(%rsp), %rdi
0x409930: 48 89 C6                   mov	%rax, %rsi
0x409933: E8 78 9D FF FF             callq	0x00000000004036b0
0x409938: 48 8B 74 24 10             mov	0x10(%rsp), %rsi
0x40993d: 48 8D 4B 04                lea	0x4(%rbx), %rcx
0x409941: 48 8D 7B 24                lea	0x24(%rbx), %rdi
0x409945: 48 89 C2                   mov	%rax, %rdx
0x409948: E8 33 7B FF FF             callq	0x0000000000401480
0x40994d: 48 83 F8 FF                cmp	$0xffffffffffffffff, %rax
0x409951: 48 89 44 24 18             mov	%rax, 0x18(%rsp)
0x409956: 0F 84 AC 00 00 00          je	0x0000000000409a08
0x40995c: 48 83 F8 FE                cmp	$0xfffffffffffffffe, %rax
0x409960: 0F 84 BA 00 00 00          je	0x0000000000409a20
0x409966: 48 85 C0                   test	%rax, %rax
0x409969: 75 23                      jne	0x000000000040998e
0x40996b: 48 8B 44 24 10             mov	0x10(%rsp), %rax
0x409970: 48 C7 44 24 18 01 00 00    movq	$0x1, 0x18(%rsp)
          00
0x409979: 80 38 00                   cmpb	$0x0, (%rax)
0x40997c: 0F 85 05 01 00 00          jne	0x0000000000409a87
0x409982: 8B 54 24 24                mov	0x24(%rsp), %edx
0x409986: 85 D2                      test	%edx, %edx
0x409988: 0F 85 E0 00 00 00          jne	0x0000000000409a6e
0x40998e: 48 8D 7B 04                lea	0x4(%rbx), %rdi
0x409992: C6 44 24 20 01             movb	$0x1, 0x20(%rsp)
0x409997: E8 74 7D FF FF             callq	0x0000000000401710
0x40999c: 85 C0                      test	%eax, %eax
0x40999e: 0F 84 59 FF FF FF          je	0x00000000004098fd
0x4099a4: 80 7C 24 20 00             cmpb	$0x0, 0x20(%rsp)
0x4099a9: C6 04 24 00                movb	$0x0, (%rsp)
0x4099ad: C6 44 24 0C 01             movb	$0x1, 0xc(%rsp)
0x4099b2: 0F 84 55 FF FF FF          je	0x000000000040990d
0x4099b8: 0F 1F 84 00 00 00 00 00    nopl	0x0(%rax,%rax,1)
0x4099c0: 8B 44 24 24                mov	0x24(%rsp), %eax
0x4099c4: 85 C0                      test	%eax, %eax
0x4099c6: 0F 85 41 FF FF FF          jne	0x000000000040990d
0x4099cc: 48 8B 54 24 48             mov	0x48(%rsp), %rdx
0x4099d1: 64 48 33 14 25 28 00 00    xor	%fs:0x28, %rdx
          00
0x4099da: 48 89 E8                   mov	%rbp, %rax
0x4099dd: 0F 85 86 00 00 00          jne	0x0000000000409a69
0x4099e3: 48 83 C4 50                add	$0x50, %rsp
0x4099e7: 5B                         pop	%rbx
0x4099e8: 5D                         pop	%rbp
0x4099e9: 41 5C                      pop	%r12
0x4099eb: C3                         retq	
0x4099ec: 0F 1F 40 00                nopl	0x0(%rax)
0x4099f0: 4C 89 E7                   mov	%r12, %rdi
0x4099f3: E8 18 7D FF FF             callq	0x0000000000401710
0x4099f8: 85 C0                      test	%eax, %eax
0x4099fa: 74 54                      je	0x0000000000409a50
0x4099fc: C6 04 24 01                movb	$0x1, (%rsp)
0x409a00: E9 21 FF FF FF             jmpq	0x0000000000409926
0x409a05: 0F 1F 00                   nopl	(%rax)
0x409a08: 48 C7 44 24 18 01 00 00    movq	$0x1, 0x18(%rsp)
          00
0x409a11: C6 44 24 20 00             movb	$0x0, 0x20(%rsp)
0x409a16: E9 E2 FE FF FF             jmpq	0x00000000004098fd
0x409a1b: 0F 1F 44 00 00             nopl	0x0(%rax,%rax,1)
0x409a20: 48 8B 7C 24 10             mov	0x10(%rsp), %rdi
0x409a25: E8 E6 7B FF FF             callq	0x0000000000401610
0x409a2a: C6 44 24 20 00             movb	$0x0, 0x20(%rsp)
0x409a2f: 48 89 44 24 18             mov	%rax, 0x18(%rsp)
0x409a34: E9 C4 FE FF FF             jmpq	0x00000000004098fd
0x409a39: 0F 1F 80 00 00 00 00       nopl	0x0(%rax)
0x409a40: 48 89 DF                   mov	%rbx, %rdi
0x409a43: E8 C8 7B FF FF             callq	0x0000000000401610
0x409a48: 48 89 C5                   mov	%rax, %rbp
0x409a4b: E9 7C FF FF FF             jmpq	0x00000000004099cc
0x409a50: B9 90 BB 40 00             mov	$0x40bb90, %ecx
0x409a55: BA 8E 00 00 00             mov	$0x8e, %edx
0x409a5a: BE 18 B1 40 00             mov	$0x40b118, %esi
0x409a5f: BF 22 B1 40 00             mov	$0x40b122, %edi
0x409a64: E8 B7 7A FF FF             callq	0x0000000000401520
0x409a69: E8 D2 7C FF FF             callq	0x0000000000401740
0x409a6e: B9 90 BB 40 00             mov	$0x40bb90, %ecx
0x409a73: BA AB 00 00 00             mov	$0xab, %edx
0x409a78: BE 18 B1 40 00             mov	$0x40b118, %esi
0x409a7d: BF 50 B1 40 00             mov	$0x40b150, %edi
0x409a82: E8 99 7A FF FF             callq	0x0000000000401520
0x409a87: B9 90 BB 40 00             mov	$0x40bb90, %ecx
0x409a8c: BA AA 00 00 00             mov	$0xaa, %edx
0x409a91: BE 18 B1 40 00             mov	$0x40b118, %esi
0x409a96: BF 39 B1 40 00             mov	$0x40b139, %edi
0x409a9b: E8 80 7A FF FF             callq	0x0000000000401520
0x409aa0: 48 8B 44 24 08             mov	0x8(%rsp), %rax
0x409aa5: 8B 54 24 10                mov	0x10(%rsp), %edx
0x409aa9: 48 89 44 24 E8             mov	%rax, -0x18(%rsp)
0x409aae: 89 54 24 F0                mov	%edx, -0x10(%rsp)
0x409ab2: 8B 44 24 F0                mov	-0x10(%rsp), %eax
0x409ab6: 25 FF 7F 00 00             and	$0x7fff, %eax
0x409abb: 74 13                      je	0x0000000000409ad0
0x409abd: 3D FF 7F 00 00             cmp	$0x7fff, %eax
0x409ac2: 74 1C                      je	0x0000000000409ae0
0x409ac4: 8B 44 24 EC                mov	-0x14(%rsp), %eax
0x409ac8: C1 E8 1F                   shr	$0x1f, %eax
0x409acb: 83 F0 01                   xor	$0x1, %eax
0x409ace: C3                         retq	
0x409acf: 90                         nop	
0x409ad0: 8B 44 24 EC                mov	-0x14(%rsp), %eax
0x409ad4: C1 E8 1F                   shr	$0x1f, %eax
0x409ad7: C3                         retq	
0x409ad8: 0F 1F 84 00 00 00 00 00    nopl	0x0(%rax,%rax,1)
0x409ae0: 8B 44 24 EC                mov	-0x14(%rsp), %eax
0x409ae4: 2D 00 00 00 80             sub	$0x80000000, %eax
0x409ae9: 0B 44 24 E8                or	-0x18(%rsp), %eax
0x409aed: 0F 95 C0                   setne	%al
0x409af0: 0F B6 C0                   movzbl	%al, %eax
0x409af3: C3                         retq	
0x409af4: 90                         nop	
0x409af5: 90                         nop	
0x409af6: 90                         nop	
0x409af7: 90                         nop	
0x409af8: 90                         nop	
0x409af9: 90                         nop	
0x409afa: 90                         nop	
0x409afb: 90                         nop	
0x409afc: 90                         nop	
0x409afd: 90                         nop	
0x409afe: 90                         nop	
0x409aff: 90                         nop	
0x409b00: 48 83 3E 00                cmpq	$0x0, (%rsi)
0x409b04: 53                         push	%rbx
0x409b05: 48 8B 46 08                mov	0x8(%rsi), %rax
0x409b09: 0F 84 99 00 00 00          je	0x0000000000409ba8
0x409b0f: 31 D2                      xor	%edx, %edx
0x409b11: 41 B9 70 BC 40 00          mov	$0x40bc70, %r9d
0x409b17: 41 B8 A3 BB 40 00          mov	$0x40bba3, %r8d
0x409b1d: 0F 1F 00                   nopl	(%rax)
0x409b20: 83 38 16                   cmpl	$0x16, (%rax)
0x409b23: 76 0B                      jbe	0x0000000000409b30
0x409b25: B8 FF FF FF FF             mov	$0xffffffff, %eax
0x409b2a: 5B                         pop	%rbx
0x409b2b: C3                         retq	
0x409b2c: 0F 1F 40 00                nopl	0x0(%rax)
0x409b30: 8B 08                      mov	(%rax), %ecx
0x409b32: FF 24 CD B0 BB 40 00       jmpq	*0x40bbb0(,%rcx,8)
0x409b39: 0F 1F 80 00 00 00 00       nopl	0x0(%rax)
0x409b40: 44 8B 17                   mov	(%rdi), %r10d
0x409b43: 41 83 FA 2F                cmp	$0x2f, %r10d
0x409b47: 0F 87 B3 00 00 00          ja	0x0000000000409c00
0x409b4d: 44 89 D1                   mov	%r10d, %ecx
0x409b50: 48 03 4F 10                add	0x10(%rdi), %rcx
0x409b54: 41 83 C2 08                add	$0x8, %r10d
0x409b58: 44 89 17                   mov	%r10d, (%rdi)
0x409b5b: 48 8B 09                   mov	(%rcx), %rcx
0x409b5e: 48 89 48 10                mov	%rcx, 0x10(%rax)
0x409b62: 48 83 C2 01                add	$0x1, %rdx
0x409b66: 48 39 16                   cmp	%rdx, (%rsi)
0x409b69: 76 3D                      jbe	0x0000000000409ba8
0x409b6b: 48 83 C0 20                add	$0x20, %rax
0x409b6f: EB AF                      jmp	0x0000000000409b20
0x409b71: 0F 1F 80 00 00 00 00       nopl	0x0(%rax)
0x409b78: 44 8B 17                   mov	(%rdi), %r10d
0x409b7b: 41 83 FA 2F                cmp	$0x2f, %r10d
0x409b7f: 0F 87 93 00 00 00          ja	0x0000000000409c18
0x409b85: 44 89 D1                   mov	%r10d, %ecx
0x409b88: 48 03 4F 10                add	0x10(%rdi), %rcx
0x409b8c: 41 83 C2 08                add	$0x8, %r10d
0x409b90: 44 89 17                   mov	%r10d, (%rdi)
0x409b93: 8B 09                      mov	(%rcx), %ecx
0x409b95: 48 83 C2 01                add	$0x1, %rdx
0x409b99: 89 48 10                   mov	%ecx, 0x10(%rax)
0x409b9c: 48 39 16                   cmp	%rdx, (%rsi)
0x409b9f: 77 CA                      ja	0x0000000000409b6b
0x409ba1: 0F 1F 80 00 00 00 00       nopl	0x0(%rax)
0x409ba8: 31 C0                      xor	%eax, %eax
0x409baa: 5B                         pop	%rbx
0x409bab: C3                         retq	
0x409bac: 0F 1F 40 00                nopl	0x0(%rax)
0x409bb0: 44 8B 17                   mov	(%rdi), %r10d
0x409bb3: 41 83 FA 2F                cmp	$0x2f, %r10d
0x409bb7: 0F 87 83 00 00 00          ja	0x0000000000409c40
0x409bbd: 44 89 D1                   mov	%r10d, %ecx
0x409bc0: 48 03 4F 10                add	0x10(%rdi), %rcx
0x409bc4: 41 83 C2 08                add	$0x8, %r10d
0x409bc8: 44 89 17                   mov	%r10d, (%rdi)
0x409bcb: 8B 09                      mov	(%rcx), %ecx
0x409bcd: 66 89 48 10                mov	%cx, 0x10(%rax)
0x409bd1: EB 8F                      jmp	0x0000000000409b62
0x409bd3: 0F 1F 44 00 00             nopl	0x0(%rax,%rax,1)
0x409bd8: 44 8B 17                   mov	(%rdi), %r10d
0x409bdb: 41 83 FA 2F                cmp	$0x2f, %r10d
0x409bdf: 77 4F                      ja	0x0000000000409c30
0x409be1: 44 89 D1                   mov	%r10d, %ecx
0x409be4: 48 03 4F 10                add	0x10(%rdi), %rcx
0x409be8: 41 83 C2 08                add	$0x8, %r10d
0x409bec: 44 89 17                   mov	%r10d, (%rdi)
0x409bef: 8B 09                      mov	(%rcx), %ecx
0x409bf1: 88 48 10                   mov	%cl, 0x10(%rax)
0x409bf4: E9 69 FF FF FF             jmpq	0x0000000000409b62
0x409bf9: 0F 1F 80 00 00 00 00       nopl	0x0(%rax)
0x409c00: 48 8B 4F 08                mov	0x8(%rdi), %rcx
0x409c04: 4C 8D 51 08                lea	0x8(%rcx), %r10
0x409c08: 4C 89 57 08                mov	%r10, 0x8(%rdi)
0x409c0c: E9 4A FF FF FF             jmpq	0x0000000000409b5b
0x409c11: 0F 1F 80 00 00 00 00       nopl	0x0(%rax)
0x409c18: 48 8B 4F 08                mov	0x8(%rdi), %rcx
0x409c1c: 4C 8D 51 08                lea	0x8(%rcx), %r10
0x409c20: 4C 89 57 08                mov	%r10, 0x8(%rdi)
0x409c24: E9 6A FF FF FF             jmpq	0x0000000000409b93
0x409c29: 0F 1F 80 00 00 00 00       nopl	0x0(%rax)
0x409c30: 48 8B 4F 08                mov	0x8(%rdi), %rcx
0x409c34: 4C 8D 51 08                lea	0x8(%rcx), %r10
0x409c38: 4C 89 57 08                mov	%r10, 0x8(%rdi)
0x409c3c: EB B1                      jmp	0x0000000000409bef
0x409c3e: 66 90                      xchg	%ax, %ax
0x409c40: 48 8B 4F 08                mov	0x8(%rdi), %rcx
0x409c44: 4C 8D 51 08                lea	0x8(%rcx), %r10
0x409c48: 4C 89 57 08                mov	%r10, 0x8(%rdi)
0x409c4c: E9 7A FF FF FF             jmpq	0x0000000000409bcb
0x409c51: 0F 1F 80 00 00 00 00       nopl	0x0(%rax)
0x409c58: 44 8B 57 04                mov	0x4(%rdi), %r10d
0x409c5c: 41 81 FA AF 00 00 00       cmp	$0xaf, %r10d
0x409c63: 77 9B                      ja	0x0000000000409c00
0x409c65: 44 89 D1                   mov	%r10d, %ecx
0x409c68: 41 83 C2 10                add	$0x10, %r10d
0x409c6c: 48 03 4F 10                add	0x10(%rdi), %rcx
0x409c70: 44 89 57 04                mov	%r10d, 0x4(%rdi)
0x409c74: E9 E2 FE FF FF             jmpq	0x0000000000409b5b
0x409c79: 0F 1F 80 00 00 00 00       nopl	0x0(%rax)
0x409c80: 48 8B 4F 08                mov	0x8(%rdi), %rcx
0x409c84: 48 83 C1 0F                add	$0xf, %rcx
0x409c88: 48 83 E1 F0                and	$0xfffffffffffffff0, %rcx
0x409c8c: 4C 8D 51 10                lea	0x10(%rcx), %r10
0x409c90: 4C 89 57 08                mov	%r10, 0x8(%rdi)
0x409c94: 8B 59 08                   mov	0x8(%rcx), %ebx
0x409c97: 48 8B 09                   mov	(%rcx), %rcx
0x409c9a: 89 58 18                   mov	%ebx, 0x18(%rax)
0x409c9d: 48 89 48 10                mov	%rcx, 0x10(%rax)
0x409ca1: E9 BC FE FF FF             jmpq	0x0000000000409b62
0x409ca6: 66 2E 0F 1F 84 00 00 00    nopw	%cs:0x0(%rax,%rax,1)
          00 00
0x409cb0: 44 8B 17                   mov	(%rdi), %r10d
0x409cb3: 41 83 FA 2F                cmp	$0x2f, %r10d
0x409cb7: 77 57                      ja	0x0000000000409d10
0x409cb9: 44 89 D1                   mov	%r10d, %ecx
0x409cbc: 48 03 4F 10                add	0x10(%rdi), %rcx
0x409cc0: 41 83 C2 08                add	$0x8, %r10d
0x409cc4: 44 89 17                   mov	%r10d, (%rdi)
0x409cc7: 48 8B 09                   mov	(%rcx), %rcx
0x409cca: 48 85 C9                   test	%rcx, %rcx
0x409ccd: 49 0F 44 C8                cmove	%r8, %rcx
0x409cd1: 48 89 48 10                mov	%rcx, 0x10(%rax)
0x409cd5: E9 88 FE FF FF             jmpq	0x0000000000409b62
0x409cda: 66 0F 1F 44 00 00          nopw	0x0(%rax,%rax,1)
0x409ce0: 44 8B 17                   mov	(%rdi), %r10d
0x409ce3: 41 83 FA 2F                cmp	$0x2f, %r10d
0x409ce7: 77 37                      ja	0x0000000000409d20
0x409ce9: 44 89 D1                   mov	%r10d, %ecx
0x409cec: 48 03 4F 10                add	0x10(%rdi), %rcx
0x409cf0: 41 83 C2 08                add	$0x8, %r10d
0x409cf4: 44 89 17                   mov	%r10d, (%rdi)
0x409cf7: 48 8B 09                   mov	(%rcx), %rcx
0x409cfa: 48 85 C9                   test	%rcx, %rcx
0x409cfd: 49 0F 44 C9                cmove	%r9, %rcx
0x409d01: 48 89 48 10                mov	%rcx, 0x10(%rax)
0x409d05: E9 58 FE FF FF             jmpq	0x0000000000409b62
0x409d0a: 66 0F 1F 44 00 00          nopw	0x0(%rax,%rax,1)
0x409d10: 48 8B 4F 08                mov	0x8(%rdi), %rcx
0x409d14: 4C 8D 51 08                lea	0x8(%rcx), %r10
0x409d18: 4C 89 57 08                mov	%r10, 0x8(%rdi)
0x409d1c: EB A9                      jmp	0x0000000000409cc7
0x409d1e: 66 90                      xchg	%ax, %ax
0x409d20: 48 8B 4F 08                mov	0x8(%rdi), %rcx
0x409d24: 4C 8D 51 08                lea	0x8(%rcx), %r10
0x409d28: 4C 89 57 08                mov	%r10, 0x8(%rdi)
0x409d2c: EB C9                      jmp	0x0000000000409cf7
0x409d2e: 90                         nop	
0x409d2f: 90                         nop	
0x409d30: 41 57                      push	%r15
0x409d32: 49 89 D7                   mov	%rdx, %r15
0x409d35: 41 56                      push	%r14
0x409d37: 41 55                      push	%r13
0x409d39: 49 89 FD                   mov	%rdi, %r13
0x409d3c: BF 58 00 00 00             mov	$0x58, %edi
0x409d41: 41 54                      push	%r12
0x409d43: 55                         push	%rbp
0x409d44: 53                         push	%rbx
0x409d45: 48 89 F3                   mov	%rsi, %rbx
0x409d48: 48 83 EC 48                sub	$0x48, %rsp
0x409d4c: 48 C7 06 00 00 00 00       movq	$0x0, (%rsi)
0x409d53: E8 08 78 FF FF             callq	0x0000000000401560
0x409d58: 48 85 C0                   test	%rax, %rax
0x409d5b: 48 89 43 08                mov	%rax, 0x8(%rbx)
0x409d5f: 0F 84 FF 06 00 00          je	0x000000000040a464
0x409d65: 49 C7 07 00 00 00 00       movq	$0x0, (%r15)
0x409d6c: 49 C7 47 08 00 00 00 00    movq	$0x0, 0x8(%r15)
0x409d74: 45 31 C0                   xor	%r8d, %r8d
0x409d77: 48 8B 13                   mov	(%rbx), %rdx
0x409d7a: 48 C7 44 24 38 00 00 00    movq	$0x0, 0x38(%rsp)
          00
0x409d83: 45 31 D2                   xor	%r10d, %r10d
0x409d86: 41 BB 01 00 00 00          mov	$0x1, %r11d
0x409d8c: 45 31 F6                   xor	%r14d, %r14d
0x409d8f: 41 BC 01 00 00 00          mov	$0x1, %r12d
0x409d95: EB 0C                      jmp	0x0000000000409da3
0x409d97: 66 0F 1F 84 00 00 00 00    nopw	0x0(%rax,%rax,1)
          00
0x409da0: 49 89 F5                   mov	%rsi, %r13
0x409da3: 41 0F B6 4D 00             movzbl	0x0(%r13), %ecx
0x409da8: 84 C9                      test	%cl, %cl
0x409daa: 0F 84 53 03 00 00          je	0x000000000040a103
0x409db0: 80 F9 25                   cmp	$0x25, %cl
0x409db3: 49 8D 75 01                lea	0x1(%r13), %rsi
0x409db7: 75 E7                      jne	0x0000000000409da0
0x409db9: 48 8D 0C 92                lea	(%rdx,%rdx,4), %rcx
0x409dbd: 48 8D 14 4A                lea	(%rdx,%rcx,2), %rdx
0x409dc1: 48 8D 2C D0                lea	(%rax,%rdx,8), %rbp
0x409dc5: 4C 89 6D 00                mov	%r13, 0x0(%rbp)
0x409dc9: C7 45 10 00 00 00 00       movl	$0x0, 0x10(%rbp)
0x409dd0: 48 C7 45 18 00 00 00 00    movq	$0x0, 0x18(%rbp)
0x409dd8: 48 C7 45 20 00 00 00 00    movq	$0x0, 0x20(%rbp)
0x409de0: 48 C7 45 28 FF FF FF FF    movq	$0xffffffffffffffff, 0x28(%rbp)
0x409de8: 48 C7 45 30 00 00 00 00    movq	$0x0, 0x30(%rbp)
0x409df0: 48 C7 45 38 00 00 00 00    movq	$0x0, 0x38(%rbp)
0x409df8: 48 C7 45 40 FF FF FF FF    movq	$0xffffffffffffffff, 0x40(%rbp)
0x409e00: 48 C7 45 50 FF FF FF FF    movq	$0xffffffffffffffff, 0x50(%rbp)
0x409e08: 41 0F B6 55 01             movzbl	0x1(%r13), %edx
0x409e0d: 8D 42 D0                   lea	-0x30(%rdx), %eax
0x409e10: 3C 09                      cmp	$0x9, %al
0x409e12: 77 24                      ja	0x0000000000409e38
0x409e14: 48 89 F1                   mov	%rsi, %rcx
0x409e17: 66 0F 1F 84 00 00 00 00    nopw	0x0(%rax,%rax,1)
          00
0x409e20: 48 83 C1 01                add	$0x1, %rcx
0x409e24: 0F B6 01                   movzbl	(%rcx), %eax
0x409e27: 8D 78 D0                   lea	-0x30(%rax), %edi
0x409e2a: 40 80 FF 09                cmp	$0x9, %dil
0x409e2e: 76 F0                      jbe	0x0000000000409e20
0x409e30: 3C 24                      cmp	$0x24, %al
0x409e32: 0F 84 A2 06 00 00          je	0x000000000040a4da
0x409e38: 49 C7 C1 FF FF FF FF       mov	$0xffffffffffffffff, %r9
0x409e3f: 48 8D 46 01                lea	0x1(%rsi), %rax
0x409e43: EB 32                      jmp	0x0000000000409e77
0x409e45: 0F 1F 00                   nopl	(%rax)
0x409e48: 80 FA 2D                   cmp	$0x2d, %dl
0x409e4b: 74 43                      je	0x0000000000409e90
0x409e4d: 80 FA 2B                   cmp	$0x2b, %dl
0x409e50: 74 4E                      je	0x0000000000409ea0
0x409e52: 80 FA 20                   cmp	$0x20, %dl
0x409e55: 74 59                      je	0x0000000000409eb0
0x409e57: 80 FA 23                   cmp	$0x23, %dl
0x409e5a: 74 64                      je	0x0000000000409ec0
0x409e5c: 80 FA 30                   cmp	$0x30, %dl
0x409e5f: 90                         nop	
0x409e60: 75 6E                      jne	0x0000000000409ed0
0x409e62: 83 4D 10 20                orl	$0x20, 0x10(%rbp)
0x409e66: 66 2E 0F 1F 84 00 00 00    nopw	%cs:0x0(%rax,%rax,1)
          00 00
0x409e70: 0F B6 10                   movzbl	(%rax), %edx
0x409e73: 48 83 C0 01                add	$0x1, %rax
0x409e77: 80 FA 27                   cmp	$0x27, %dl
0x409e7a: 48 8D 48 FF                lea	-0x1(%rax), %rcx
0x409e7e: 75 C8                      jne	0x0000000000409e48
0x409e80: 83 4D 10 01                orl	$0x1, 0x10(%rbp)
0x409e84: EB EA                      jmp	0x0000000000409e70
0x409e86: 66 2E 0F 1F 84 00 00 00    nopw	%cs:0x0(%rax,%rax,1)
          00 00
0x409e90: 83 4D 10 02                orl	$0x2, 0x10(%rbp)
0x409e94: EB DA                      jmp	0x0000000000409e70
0x409e96: 66 2E 0F 1F 84 00 00 00    nopw	%cs:0x0(%rax,%rax,1)
          00 00
0x409ea0: 83 4D 10 04                orl	$0x4, 0x10(%rbp)
0x409ea4: EB CA                      jmp	0x0000000000409e70
0x409ea6: 66 2E 0F 1F 84 00 00 00    nopw	%cs:0x0(%rax,%rax,1)
          00 00
0x409eb0: 83 4D 10 08                orl	$0x8, 0x10(%rbp)
0x409eb4: EB BA                      jmp	0x0000000000409e70
0x409eb6: 66 2E 0F 1F 84 00 00 00    nopw	%cs:0x0(%rax,%rax,1)
          00 00
0x409ec0: 83 4D 10 10                orl	$0x10, 0x10(%rbp)
0x409ec4: EB AA                      jmp	0x0000000000409e70
0x409ec6: 66 2E 0F 1F 84 00 00 00    nopw	%cs:0x0(%rax,%rax,1)
          00 00
0x409ed0: 80 FA 2A                   cmp	$0x2a, %dl
0x409ed3: 0F 84 AC 02 00 00          je	0x000000000040a185
0x409ed9: 8D 42 D0                   lea	-0x30(%rdx), %eax
0x409edc: 3C 09                      cmp	$0x9, %al
0x409ede: 66 90                      xchg	%ax, %ax
0x409ee0: 77 54                      ja	0x0000000000409f36
0x409ee2: 48 89 4D 18                mov	%rcx, 0x18(%rbp)
0x409ee6: 0F B6 01                   movzbl	(%rcx), %eax
0x409ee9: 83 E8 30                   sub	$0x30, %eax
0x409eec: 3C 09                      cmp	$0x9, %al
0x409eee: 0F 87 A2 08 00 00          ja	0x000000000040a796
0x409ef4: 49 89 CD                   mov	%rcx, %r13
0x409ef7: 66 0F 1F 84 00 00 00 00    nopw	0x0(%rax,%rax,1)
          00
0x409f00: 49 83 C5 01                add	$0x1, %r13
0x409f04: 41 0F B6 45 00             movzbl	0x0(%r13), %eax
0x409f09: 83 E8 30                   sub	$0x30, %eax
0x409f0c: 3C 09                      cmp	$0x9, %al
0x409f0e: 76 F0                      jbe	0x0000000000409f00
0x409f10: 4C 89 EE                   mov	%r13, %rsi
0x409f13: 4C 89 6D 20                mov	%r13, 0x20(%rbp)
0x409f17: 48 29 CE                   sub	%rcx, %rsi
0x409f1a: 4C 39 C6                   cmp	%r8, %rsi
0x409f1d: 48 89 74 24 30             mov	%rsi, 0x30(%rsp)
0x409f22: 76 0C                      jbe	0x0000000000409f30
0x409f24: 41 0F B6 55 00             movzbl	0x0(%r13), %edx
0x409f29: 4C 89 74 24 28             mov	%r14, 0x28(%rsp)
0x409f2e: EB 13                      jmp	0x0000000000409f43
0x409f30: 4C 89 E9                   mov	%r13, %rcx
0x409f33: 0F B6 11                   movzbl	(%rcx), %edx
0x409f36: 4C 89 44 24 30             mov	%r8, 0x30(%rsp)
0x409f3b: 4C 89 74 24 28             mov	%r14, 0x28(%rsp)
0x409f40: 49 89 CD                   mov	%rcx, %r13
0x409f43: 80 FA 2E                   cmp	$0x2e, %dl
0x409f46: 4C 8B 74 24 28             mov	0x28(%rsp), %r14
0x409f4b: 4C 89 E9                   mov	%r13, %rcx
0x409f4e: 0F 84 D9 01 00 00          je	0x000000000040a12d
0x409f54: 48 8D 71 01                lea	0x1(%rcx), %rsi
0x409f58: 31 C0                      xor	%eax, %eax
0x409f5a: EB 30                      jmp	0x0000000000409f8c
0x409f5c: 0F 1F 40 00                nopl	0x0(%rax)
0x409f60: 80 FA 4C                   cmp	$0x4c, %dl
0x409f63: 74 43                      je	0x0000000000409fa8
0x409f65: 80 FA 6C                   cmp	$0x6c, %dl
0x409f68: 74 18                      je	0x0000000000409f82
0x409f6a: 80 FA 6A                   cmp	$0x6a, %dl
0x409f6d: 0F 1F 00                   nopl	(%rax)
0x409f70: 74 10                      je	0x0000000000409f82
0x409f72: 80 FA 5A                   cmp	$0x5a, %dl
0x409f75: 74 0B                      je	0x0000000000409f82
0x409f77: 80 FA 7A                   cmp	$0x7a, %dl
0x409f7a: 74 06                      je	0x0000000000409f82
0x409f7c: 80 FA 74                   cmp	$0x74, %dl
0x409f7f: 90                         nop	
0x409f80: 75 2E                      jne	0x0000000000409fb0
0x409f82: 83 C0 08                   add	$0x8, %eax
0x409f85: 0F B6 16                   movzbl	(%rsi), %edx
0x409f88: 48 83 C6 01                add	$0x1, %rsi
0x409f8c: 80 FA 68                   cmp	$0x68, %dl
0x409f8f: 4C 8D 6E FF                lea	-0x1(%rsi), %r13
0x409f93: 75 CB                      jne	0x0000000000409f60
0x409f95: 89 C1                      mov	%eax, %ecx
0x409f97: 44 89 E2                   mov	%r12d, %edx
0x409f9a: 83 E1 01                   and	$0x1, %ecx
0x409f9d: D3 E2                      shl	%cl, %edx
0x409f9f: 09 D0                      or	%edx, %eax
0x409fa1: EB E2                      jmp	0x0000000000409f85
0x409fa3: 0F 1F 44 00 00             nopl	0x0(%rax,%rax,1)
0x409fa8: 83 C8 04                   or	$0x4, %eax
0x409fab: EB D8                      jmp	0x0000000000409f85
0x409fad: 0F 1F 00                   nopl	(%rax)
0x409fb0: 8D 4A DB                   lea	-0x25(%rdx), %ecx
0x409fb3: 80 F9 53                   cmp	$0x53, %cl
0x409fb6: 76 3B                      jbe	0x0000000000409ff3
0x409fb8: 49 8B 7F 08                mov	0x8(%r15), %rdi
0x409fbc: 48 85 FF                   test	%rdi, %rdi
0x409fbf: 74 05                      je	0x0000000000409fc6
0x409fc1: E8 3A 76 FF FF             callq	0x0000000000401600
0x409fc6: 48 8B 7B 08                mov	0x8(%rbx), %rdi
0x409fca: 48 85 FF                   test	%rdi, %rdi
0x409fcd: 74 05                      je	0x0000000000409fd4
0x409fcf: E8 2C 76 FF FF             callq	0x0000000000401600
0x409fd4: E8 47 77 FF FF             callq	0x0000000000401720
0x409fd9: C7 00 16 00 00 00          movl	$0x16, (%rax)
0x409fdf: 48 83 C4 48                add	$0x48, %rsp
0x409fe3: B8 FF FF FF FF             mov	$0xffffffff, %eax
0x409fe8: 5B                         pop	%rbx
0x409fe9: 5D                         pop	%rbp
0x409fea: 41 5C                      pop	%r12
0x409fec: 41 5D                      pop	%r13
0x409fee: 41 5E                      pop	%r14
0x409ff0: 41 5F                      pop	%r15
0x409ff2: C3                         retq	
0x409ff3: 0F B6 C9                   movzbl	%cl, %ecx
0x409ff6: FF 24 CD 90 BC 40 00       jmpq	*0x40bc90(,%rcx,8)
0x409ffd: 31 C9                      xor	%ecx, %ecx
0x409fff: 83 F8 07                   cmp	$0x7, %eax
0x40a002: 0F 9F C1                   setg	%cl
0x40a005: 83 C1 0F                   add	$0xf, %ecx
0x40a008: 49 83 F9 FF                cmp	$0xffffffffffffffff, %r9
0x40a00c: 4C 89 4D 50                mov	%r9, 0x50(%rbp)
0x40a010: 75 11                      jne	0x000000000040a023
0x40a012: 49 83 FE FF                cmp	$0xffffffffffffffff, %r14
0x40a016: 4C 89 75 50                mov	%r14, 0x50(%rbp)
0x40a01a: 74 9C                      je	0x0000000000409fb8
0x40a01c: 4D 89 F1                   mov	%r14, %r9
0x40a01f: 49 83 C6 01                add	$0x1, %r14
0x40a023: 4D 39 CA                   cmp	%r9, %r10
0x40a026: 0F 86 42 03 00 00          jbe	0x000000000040a36e
0x40a02c: 4D 8B 47 08                mov	0x8(%r15), %r8
0x40a030: 49 8B 37                   mov	(%r15), %rsi
0x40a033: 4C 39 CE                   cmp	%r9, %rsi
0x40a036: 77 2E                      ja	0x000000000040a066
0x40a038: 48 89 F7                   mov	%rsi, %rdi
0x40a03b: 49 8B 47 08                mov	0x8(%r15), %rax
0x40a03f: 48 C1 E7 05                shl	$0x5, %rdi
0x40a043: EB 06                      jmp	0x000000000040a04b
0x40a045: 0F 1F 00                   nopl	(%rax)
0x40a048: 49 89 C0                   mov	%rax, %r8
0x40a04b: 48 83 C6 01                add	$0x1, %rsi
0x40a04f: 41 C7 04 38 00 00 00 00    movl	$0x0, (%r8,%rdi,1)
0x40a057: 48 83 C7 20                add	$0x20, %rdi
0x40a05b: 4C 39 CE                   cmp	%r9, %rsi
0x40a05e: 76 E8                      jbe	0x000000000040a048
0x40a060: 49 89 37                   mov	%rsi, (%r15)
0x40a063: 49 89 C0                   mov	%rax, %r8
0x40a066: 4C 89 CE                   mov	%r9, %rsi
0x40a069: 48 C1 E6 05                shl	$0x5, %rsi
0x40a06d: 49 8D 34 30                lea	(%r8,%rsi,1), %rsi
0x40a071: 8B 06                      mov	(%rsi), %eax
0x40a073: 85 C0                      test	%eax, %eax
0x40a075: 0F 85 81 03 00 00          jne	0x000000000040a3fc
0x40a07b: 89 0E                      mov	%ecx, (%rsi)
0x40a07d: 88 55 48                   mov	%dl, 0x48(%rbp)
0x40a080: 48 8B 13                   mov	(%rbx), %rdx
0x40a083: 49 83 C5 01                add	$0x1, %r13
0x40a087: 4C 89 6D 08                mov	%r13, 0x8(%rbp)
0x40a08b: 48 83 C2 01                add	$0x1, %rdx
0x40a08f: 49 39 D3                   cmp	%rdx, %r11
0x40a092: 48 89 13                   mov	%rdx, (%rbx)
0x40a095: 77 56                      ja	0x000000000040a0ed
0x40a097: 4D 85 DB                   test	%r11, %r11
0x40a09a: 0F 88 A8 03 00 00          js	0x000000000040a448
0x40a0a0: 4D 01 DB                   add	%r11, %r11
0x40a0a3: 48 BF BA E8 A2 8B 2E BA    mov	$0x2e8ba2e8ba2e8ba, %rdi
          E8 02
0x40a0ad: 49 39 FB                   cmp	%rdi, %r11
0x40a0b0: 0F 87 92 03 00 00          ja	0x000000000040a448
0x40a0b6: 4B 8D 04 9B                lea	(%r11,%r11,4), %rax
0x40a0ba: 48 8B 7B 08                mov	0x8(%rbx), %rdi
0x40a0be: 4C 89 54 24 08             mov	%r10, 0x8(%rsp)
0x40a0c3: 4C 89 1C 24                mov	%r11, (%rsp)
0x40a0c7: 49 8D 34 43                lea	(%r11,%rax,2), %rsi
0x40a0cb: 48 C1 E6 03                shl	$0x3, %rsi
0x40a0cf: E8 FC 76 FF FF             callq	0x00000000004017d0
0x40a0d4: 48 85 C0                   test	%rax, %rax
0x40a0d7: 4C 8B 54 24 08             mov	0x8(%rsp), %r10
0x40a0dc: 4C 8B 1C 24                mov	(%rsp), %r11
0x40a0e0: 0F 84 62 03 00 00          je	0x000000000040a448
0x40a0e6: 48 8B 13                   mov	(%rbx), %rdx
0x40a0e9: 48 89 43 08                mov	%rax, 0x8(%rbx)
0x40a0ed: 41 0F B6 4D 00             movzbl	0x0(%r13), %ecx
0x40a0f2: 48 8B 43 08                mov	0x8(%rbx), %rax
0x40a0f6: 4C 8B 44 24 30             mov	0x30(%rsp), %r8
0x40a0fb: 84 C9                      test	%cl, %cl
0x40a0fd: 0F 85 AD FC FF FF          jne	0x0000000000409db0
0x40a103: 48 8D 0C 92                lea	(%rdx,%rdx,4), %rcx
0x40a107: 4C 89 43 10                mov	%r8, 0x10(%rbx)
0x40a10b: 48 8D 14 4A                lea	(%rdx,%rcx,2), %rdx
0x40a10f: 4C 89 2C D0                mov	%r13, (%rax,%rdx,8)
0x40a113: 48 8B 44 24 38             mov	0x38(%rsp), %rax
0x40a118: 48 89 43 18                mov	%rax, 0x18(%rbx)
0x40a11c: 31 C0                      xor	%eax, %eax
0x40a11e: 48 83 C4 48                add	$0x48, %rsp
0x40a122: 5B                         pop	%rbx
0x40a123: 5D                         pop	%rbp
0x40a124: 41 5C                      pop	%r12
0x40a126: 41 5D                      pop	%r13
0x40a128: 41 5E                      pop	%r14
0x40a12a: 41 5F                      pop	%r15
0x40a12c: C3                         retq	
0x40a12d: 41 80 7D 01 2A             cmpb	$0x2a, 0x1(%r13)
0x40a132: 49 8D 4D 01                lea	0x1(%r13), %rcx
0x40a136: 0F 84 35 04 00 00          je	0x000000000040a571
0x40a13c: 4C 89 6D 30                mov	%r13, 0x30(%rbp)
0x40a140: 41 0F B6 45 01             movzbl	0x1(%r13), %eax
0x40a145: 83 E8 30                   sub	$0x30, %eax
0x40a148: 3C 09                      cmp	$0x9, %al
0x40a14a: 77 12                      ja	0x000000000040a15e
0x40a14c: 0F 1F 40 00                nopl	0x0(%rax)
0x40a150: 48 83 C1 01                add	$0x1, %rcx
0x40a154: 0F B6 01                   movzbl	(%rcx), %eax
0x40a157: 83 E8 30                   sub	$0x30, %eax
0x40a15a: 3C 09                      cmp	$0x9, %al
0x40a15c: 76 F2                      jbe	0x000000000040a150
0x40a15e: 48 89 C8                   mov	%rcx, %rax
0x40a161: 48 89 4D 38                mov	%rcx, 0x38(%rbp)
0x40a165: 4C 29 E8                   sub	%r13, %rax
0x40a168: 48 3B 44 24 38             cmp	0x38(%rsp), %rax
0x40a16d: 0F 86 D5 03 00 00          jbe	0x000000000040a548
0x40a173: 0F B6 11                   movzbl	(%rcx), %edx
0x40a176: 4C 8B 74 24 28             mov	0x28(%rsp), %r14
0x40a17b: 48 89 44 24 38             mov	%rax, 0x38(%rsp)
0x40a180: E9 CF FD FF FF             jmpq	0x0000000000409f54
0x40a185: 48 89 4D 18                mov	%rcx, 0x18(%rbp)
0x40a189: 48 89 45 20                mov	%rax, 0x20(%rbp)
0x40a18d: 4D 85 C0                   test	%r8, %r8
0x40a190: 0F B6 38                   movzbl	(%rax), %edi
0x40a193: BA 01 00 00 00             mov	$0x1, %edx
0x40a198: 49 89 C5                   mov	%rax, %r13
0x40a19b: 4C 0F 44 C2                cmove	%rdx, %r8
0x40a19f: 48 89 C2                   mov	%rax, %rdx
0x40a1a2: 8D 4F D0                   lea	-0x30(%rdi), %ecx
0x40a1a5: 80 F9 09                   cmp	$0x9, %cl
0x40a1a8: 0F 86 92 00 00 00          jbe	0x000000000040a240
0x40a1ae: 48 8B 55 28                mov	0x28(%rbp), %rdx
0x40a1b2: 48 83 FA FF                cmp	$0xffffffffffffffff, %rdx
0x40a1b6: 0F 84 99 03 00 00          je	0x000000000040a555
0x40a1bc: 4C 89 74 24 28             mov	%r14, 0x28(%rsp)
0x40a1c1: 49 89 D6                   mov	%rdx, %r14
0x40a1c4: 4D 39 F2                   cmp	%r14, %r10
0x40a1c7: 0F 86 5B 02 00 00          jbe	0x000000000040a428
0x40a1cd: 49 8B 7F 08                mov	0x8(%r15), %rdi
0x40a1d1: 49 8B 17                   mov	(%r15), %rdx
0x40a1d4: 4C 39 F2                   cmp	%r14, %rdx
0x40a1d7: 77 34                      ja	0x000000000040a20d
0x40a1d9: 48 89 D1                   mov	%rdx, %rcx
0x40a1dc: 49 8B 47 08                mov	0x8(%r15), %rax
0x40a1e0: 48 C1 E1 05                shl	$0x5, %rcx
0x40a1e4: EB 0D                      jmp	0x000000000040a1f3
0x40a1e6: 66 2E 0F 1F 84 00 00 00    nopw	%cs:0x0(%rax,%rax,1)
          00 00
0x40a1f0: 48 89 C7                   mov	%rax, %rdi
0x40a1f3: 48 83 C2 01                add	$0x1, %rdx
0x40a1f7: C7 04 0F 00 00 00 00       movl	$0x0, (%rdi,%rcx,1)
0x40a1fe: 48 83 C1 20                add	$0x20, %rcx
0x40a202: 4C 39 F2                   cmp	%r14, %rdx
0x40a205: 76 E9                      jbe	0x000000000040a1f0
0x40a207: 49 89 17                   mov	%rdx, (%r15)
0x40a20a: 48 89 C7                   mov	%rax, %rdi
0x40a20d: 4C 89 F2                   mov	%r14, %rdx
0x40a210: 48 C1 E2 05                shl	$0x5, %rdx
0x40a214: 48 8D 14 17                lea	(%rdi,%rdx,1), %rdx
0x40a218: 8B 02                      mov	(%rdx), %eax
0x40a21a: 85 C0                      test	%eax, %eax
0x40a21c: 0F 85 EE 01 00 00          jne	0x000000000040a410
0x40a222: C7 02 05 00 00 00          movl	$0x5, (%rdx)
0x40a228: 41 0F B6 55 00             movzbl	0x0(%r13), %edx
0x40a22d: 4C 89 44 24 30             mov	%r8, 0x30(%rsp)
0x40a232: E9 0C FD FF FF             jmpq	0x0000000000409f43
0x40a237: 66 0F 1F 84 00 00 00 00    nopw	0x0(%rax,%rax,1)
          00
0x40a240: 48 83 C2 01                add	$0x1, %rdx
0x40a244: 0F B6 0A                   movzbl	(%rdx), %ecx
0x40a247: 8D 71 D0                   lea	-0x30(%rcx), %esi
0x40a24a: 40 80 FE 09                cmp	$0x9, %sil
0x40a24e: 76 F0                      jbe	0x000000000040a240
0x40a250: 80 F9 24                   cmp	$0x24, %cl
0x40a253: 0F 85 55 FF FF FF          jne	0x000000000040a1ae
0x40a259: 31 D2                      xor	%edx, %edx
0x40a25b: 48 BE 99 99 99 99 99 99    mov	$0x1999999999999999, %rsi
          99 19
0x40a265: 48 C7 C1 FF FF FF FF       mov	$0xffffffffffffffff, %rcx
0x40a26c: 48 39 F2                   cmp	%rsi, %rdx
0x40a26f: 77 07                      ja	0x000000000040a278
0x40a271: 48 8D 0C 92                lea	(%rdx,%rdx,4), %rcx
0x40a275: 48 01 C9                   add	%rcx, %rcx
0x40a278: 40 0F BE D7                movsbl	%dil, %edx
0x40a27c: 48 C7 C7 FF FF FF FF       mov	$0xffffffffffffffff, %rdi
0x40a283: 83 EA 30                   sub	$0x30, %edx
0x40a286: 48 63 D2                   movslq	%edx, %rdx
0x40a289: 48 01 CA                   add	%rcx, %rdx
0x40a28c: 48 0F 42 D7                cmovb	%rdi, %rdx
0x40a290: 48 83 C0 01                add	$0x1, %rax
0x40a294: 0F B6 38                   movzbl	(%rax), %edi
0x40a297: 8D 4F D0                   lea	-0x30(%rdi), %ecx
0x40a29a: 80 F9 09                   cmp	$0x9, %cl
0x40a29d: 76 BC                      jbe	0x000000000040a25b
0x40a29f: 48 85 D2                   test	%rdx, %rdx
0x40a2a2: 0F 84 10 FD FF FF          je	0x0000000000409fb8
0x40a2a8: 48 83 FA FF                cmp	$0xffffffffffffffff, %rdx
0x40a2ac: 0F 84 06 FD FF FF          je	0x0000000000409fb8
0x40a2b2: 48 83 EA 01                sub	$0x1, %rdx
0x40a2b6: 4C 8D 68 01                lea	0x1(%rax), %r13
0x40a2ba: 48 89 55 28                mov	%rdx, 0x28(%rbp)
0x40a2be: E9 EF FE FF FF             jmpq	0x000000000040a1b2
0x40a2c3: 83 F8 0F                   cmp	$0xf, %eax
0x40a2c6: 7F 0D                      jg	0x000000000040a2d5
0x40a2c8: A8 04                      test	$0x4, %al
0x40a2ca: B9 0B 00 00 00             mov	$0xb, %ecx
0x40a2cf: 0F 84 33 FD FF FF          je	0x000000000040a008
0x40a2d5: B9 0C 00 00 00             mov	$0xc, %ecx
0x40a2da: E9 29 FD FF FF             jmpq	0x000000000040a008
0x40a2df: 90                         nop	
0x40a2e0: B9 11 00 00 00             mov	$0x11, %ecx
0x40a2e5: E9 1E FD FF FF             jmpq	0x000000000040a008
0x40a2ea: 83 F8 0F                   cmp	$0xf, %eax
0x40a2ed: 0F 1F 00                   nopl	(%rax)
0x40a2f0: 7F 08                      jg	0x000000000040a2fa
0x40a2f2: A8 04                      test	$0x4, %al
0x40a2f4: 0F 84 FB 04 00 00          je	0x000000000040a7f5
0x40a2fa: B9 16 00 00 00             mov	$0x16, %ecx
0x40a2ff: 90                         nop	
0x40a300: E9 03 FD FF FF             jmpq	0x000000000040a008
0x40a305: 0F 1F 00                   nopl	(%rax)
0x40a308: 83 F8 0F                   cmp	$0xf, %eax
0x40a30b: 0F 1F 44 00 00             nopl	0x0(%rax,%rax,1)
0x40a310: 7F 08                      jg	0x000000000040a31a
0x40a312: A8 04                      test	$0x4, %al
0x40a314: 0F 84 85 04 00 00          je	0x000000000040a79f
0x40a31a: B9 09 00 00 00             mov	$0x9, %ecx
0x40a31f: 90                         nop	
0x40a320: E9 E3 FC FF FF             jmpq	0x000000000040a008
0x40a325: 0F 1F 00                   nopl	(%rax)
0x40a328: 31 C9                      xor	%ecx, %ecx
0x40a32a: 83 F8 07                   cmp	$0x7, %eax
0x40a32d: 0F 9F C1                   setg	%cl
0x40a330: 83 C1 0D                   add	$0xd, %ecx
0x40a333: E9 D0 FC FF FF             jmpq	0x000000000040a008
0x40a338: 83 F8 0F                   cmp	$0xf, %eax
0x40a33b: 7F 08                      jg	0x000000000040a345
0x40a33d: A8 04                      test	$0x4, %al
0x40a33f: 0F 84 85 04 00 00          je	0x000000000040a7ca
0x40a345: B9 0A 00 00 00             mov	$0xa, %ecx
0x40a34a: E9 B9 FC FF FF             jmpq	0x000000000040a008
0x40a34f: 90                         nop	
0x40a350: BA 73 00 00 00             mov	$0x73, %edx
0x40a355: B9 10 00 00 00             mov	$0x10, %ecx
0x40a35a: E9 A9 FC FF FF             jmpq	0x000000000040a008
0x40a35f: BA 63 00 00 00             mov	$0x63, %edx
0x40a364: B9 0E 00 00 00             mov	$0xe, %ecx
0x40a369: E9 9A FC FF FF             jmpq	0x000000000040a008
0x40a36e: 4B 8D 04 12                lea	(%r10,%r10,1), %rax
0x40a372: 4D 85 D2                   test	%r10, %r10
0x40a375: 49 C7 C2 FF FF FF FF       mov	$0xffffffffffffffff, %r10
0x40a37c: 4C 0F 49 D0                cmovns	%rax, %r10
0x40a380: 4D 39 CA                   cmp	%r9, %r10
0x40a383: 77 0D                      ja	0x000000000040a392
0x40a385: 4D 89 CA                   mov	%r9, %r10
0x40a388: 49 83 C2 01                add	$0x1, %r10
0x40a38c: 0F 82 B6 00 00 00          jb	0x000000000040a448
0x40a392: 48 BE FF FF FF FF FF FF    mov	$0x7ffffffffffffff, %rsi
          FF 07
0x40a39c: 49 39 F2                   cmp	%rsi, %r10
0x40a39f: 0F 87 A3 00 00 00          ja	0x000000000040a448
0x40a3a5: 49 8B 7F 08                mov	0x8(%r15), %rdi
0x40a3a9: 4C 89 D6                   mov	%r10, %rsi
0x40a3ac: 48 C1 E6 05                shl	$0x5, %rsi
0x40a3b0: 48 85 FF                   test	%rdi, %rdi
0x40a3b3: 0F 84 A3 03 00 00          je	0x000000000040a75c
0x40a3b9: 88 54 24 20                mov	%dl, 0x20(%rsp)
0x40a3bd: 89 4C 24 18                mov	%ecx, 0x18(%rsp)
0x40a3c1: 4C 89 4C 24 10             mov	%r9, 0x10(%rsp)
0x40a3c6: 4C 89 54 24 08             mov	%r10, 0x8(%rsp)
0x40a3cb: 4C 89 1C 24                mov	%r11, (%rsp)
0x40a3cf: E8 FC 73 FF FF             callq	0x00000000004017d0
0x40a3d4: 0F B6 54 24 20             movzbl	0x20(%rsp), %edx
0x40a3d9: 8B 4C 24 18                mov	0x18(%rsp), %ecx
0x40a3dd: 4C 8B 4C 24 10             mov	0x10(%rsp), %r9
0x40a3e2: 4C 8B 54 24 08             mov	0x8(%rsp), %r10
0x40a3e7: 4C 8B 1C 24                mov	(%rsp), %r11
0x40a3eb: 48 85 C0                   test	%rax, %rax
0x40a3ee: 49 89 C0                   mov	%rax, %r8
0x40a3f1: 74 55                      je	0x000000000040a448
0x40a3f3: 49 89 47 08                mov	%rax, 0x8(%r15)
0x40a3f7: E9 34 FC FF FF             jmpq	0x000000000040a030
0x40a3fc: 39 C1                      cmp	%eax, %ecx
0x40a3fe: 0F 84 79 FC FF FF          je	0x000000000040a07d
0x40a404: 4C 89 C7                   mov	%r8, %rdi
0x40a407: E9 B0 FB FF FF             jmpq	0x0000000000409fbc
0x40a40c: 0F 1F 40 00                nopl	0x0(%rax)
0x40a410: 83 F8 05                   cmp	$0x5, %eax
0x40a413: 0F 85 A3 FB FF FF          jne	0x0000000000409fbc
0x40a419: 41 0F B6 55 00             movzbl	0x0(%r13), %edx
0x40a41e: 4C 89 44 24 30             mov	%r8, 0x30(%rsp)
0x40a423: E9 1B FB FF FF             jmpq	0x0000000000409f43
0x40a428: 4B 8D 04 12                lea	(%r10,%r10,1), %rax
0x40a42c: 4D 85 D2                   test	%r10, %r10
0x40a42f: 49 C7 C2 FF FF FF FF       mov	$0xffffffffffffffff, %r10
0x40a436: 4C 0F 49 D0                cmovns	%rax, %r10
0x40a43a: 4D 39 F2                   cmp	%r14, %r10
0x40a43d: 77 38                      ja	0x000000000040a477
0x40a43f: 4D 89 F2                   mov	%r14, %r10
0x40a442: 49 83 C2 01                add	$0x1, %r10
0x40a446: 73 2F                      jae	0x000000000040a477
0x40a448: 49 8B 7F 08                mov	0x8(%r15), %rdi
0x40a44c: 48 85 FF                   test	%rdi, %rdi
0x40a44f: 74 05                      je	0x000000000040a456
0x40a451: E8 AA 71 FF FF             callq	0x0000000000401600
0x40a456: 48 8B 7B 08                mov	0x8(%rbx), %rdi
0x40a45a: 48 85 FF                   test	%rdi, %rdi
0x40a45d: 74 05                      je	0x000000000040a464
0x40a45f: E8 9C 71 FF FF             callq	0x0000000000401600
0x40a464: E8 B7 72 FF FF             callq	0x0000000000401720
0x40a469: C7 00 0C 00 00 00          movl	$0xc, (%rax)
0x40a46f: 83 C8 FF                   or	$0xffffffffffffffff, %eax
0x40a472: E9 A7 FC FF FF             jmpq	0x000000000040a11e
0x40a477: 48 BA FF FF FF FF FF FF    mov	$0x7ffffffffffffff, %rdx
          FF 07
0x40a481: 49 39 D2                   cmp	%rdx, %r10
0x40a484: 77 C2                      ja	0x000000000040a448
0x40a486: 49 8B 7F 08                mov	0x8(%r15), %rdi
0x40a48a: 4C 89 D6                   mov	%r10, %rsi
0x40a48d: 48 C1 E6 05                shl	$0x5, %rsi
0x40a491: 48 85 FF                   test	%rdi, %rdi
0x40a494: 0F 84 A3 03 00 00          je	0x000000000040a83d
0x40a49a: 4C 89 44 24 20             mov	%r8, 0x20(%rsp)
0x40a49f: 4C 89 4C 24 10             mov	%r9, 0x10(%rsp)
0x40a4a4: 4C 89 54 24 08             mov	%r10, 0x8(%rsp)
0x40a4a9: 4C 89 1C 24                mov	%r11, (%rsp)
0x40a4ad: E8 1E 73 FF FF             callq	0x00000000004017d0
0x40a4b2: 4C 8B 44 24 20             mov	0x20(%rsp), %r8
0x40a4b7: 4C 8B 4C 24 10             mov	0x10(%rsp), %r9
0x40a4bc: 4C 8B 54 24 08             mov	0x8(%rsp), %r10
0x40a4c1: 4C 8B 1C 24                mov	(%rsp), %r11
0x40a4c5: 48 85 C0                   test	%rax, %rax
0x40a4c8: 48 89 C7                   mov	%rax, %rdi
0x40a4cb: 0F 84 77 FF FF FF          je	0x000000000040a448
0x40a4d1: 49 89 47 08                mov	%rax, 0x8(%r15)
0x40a4d5: E9 F7 FC FF FF             jmpq	0x000000000040a1d1
0x40a4da: 48 89 F1                   mov	%rsi, %rcx
0x40a4dd: 45 31 C9                   xor	%r9d, %r9d
0x40a4e0: 48 BE 99 99 99 99 99 99    mov	$0x1999999999999999, %rsi
          99 19
0x40a4ea: 48 C7 C0 FF FF FF FF       mov	$0xffffffffffffffff, %rax
0x40a4f1: 49 39 F1                   cmp	%rsi, %r9
0x40a4f4: 77 07                      ja	0x000000000040a4fd
0x40a4f6: 4B 8D 04 89                lea	(%r9,%r9,4), %rax
0x40a4fa: 48 01 C0                   add	%rax, %rax
0x40a4fd: 44 0F BE CA                movsbl	%dl, %r9d
0x40a501: 48 C7 C7 FF FF FF FF       mov	$0xffffffffffffffff, %rdi
0x40a508: 41 83 E9 30                sub	$0x30, %r9d
0x40a50c: 4D 63 C9                   movslq	%r9d, %r9
0x40a50f: 49 01 C1                   add	%rax, %r9
0x40a512: 4C 0F 42 CF                cmovb	%rdi, %r9
0x40a516: 48 83 C1 01                add	$0x1, %rcx
0x40a51a: 0F B6 11                   movzbl	(%rcx), %edx
0x40a51d: 8D 42 D0                   lea	-0x30(%rdx), %eax
0x40a520: 3C 09                      cmp	$0x9, %al
0x40a522: 76 BC                      jbe	0x000000000040a4e0
0x40a524: 4D 85 C9                   test	%r9, %r9
0x40a527: 0F 84 8B FA FF FF          je	0x0000000000409fb8
0x40a52d: 49 83 F9 FF                cmp	$0xffffffffffffffff, %r9
0x40a531: 0F 84 81 FA FF FF          je	0x0000000000409fb8
0x40a537: 49 83 E9 01                sub	$0x1, %r9
0x40a53b: 48 8D 71 01                lea	0x1(%rcx), %rsi
0x40a53f: 0F B6 51 01                movzbl	0x1(%rcx), %edx
0x40a543: E9 F7 F8 FF FF             jmpq	0x0000000000409e3f
0x40a548: 0F B6 11                   movzbl	(%rcx), %edx
0x40a54b: 4C 8B 74 24 28             mov	0x28(%rsp), %r14
0x40a550: E9 FF F9 FF FF             jmpq	0x0000000000409f54
0x40a555: 49 83 FE FF                cmp	$0xffffffffffffffff, %r14
0x40a559: 4C 89 75 28                mov	%r14, 0x28(%rbp)
0x40a55d: 0F 84 55 FA FF FF          je	0x0000000000409fb8
0x40a563: 49 8D 46 01                lea	0x1(%r14), %rax
0x40a567: 48 89 44 24 28             mov	%rax, 0x28(%rsp)
0x40a56c: E9 53 FC FF FF             jmpq	0x000000000040a1c4
0x40a571: 48 83 7C 24 38 01          cmpq	$0x1, 0x38(%rsp)
0x40a577: B8 02 00 00 00             mov	$0x2, %eax
0x40a57c: 49 8D 4D 02                lea	0x2(%r13), %rcx
0x40a580: 48 0F 47 44 24 38          cmova	0x38(%rsp), %rax
0x40a586: 4C 89 6D 30                mov	%r13, 0x30(%rbp)
0x40a58a: 48 89 4D 38                mov	%rcx, 0x38(%rbp)
0x40a58e: 48 89 44 24 38             mov	%rax, 0x38(%rsp)
0x40a593: 41 0F B6 75 02             movzbl	0x2(%r13), %esi
0x40a598: 48 89 C8                   mov	%rcx, %rax
0x40a59b: 8D 56 D0                   lea	-0x30(%rsi), %edx
0x40a59e: 80 FA 09                   cmp	$0x9, %dl
0x40a5a1: 0F 86 8B 00 00 00          jbe	0x000000000040a632
0x40a5a7: 48 8B 45 40                mov	0x40(%rbp), %rax
0x40a5ab: 48 83 F8 FF                cmp	$0xffffffffffffffff, %rax
0x40a5af: 0F 84 67 02 00 00          je	0x000000000040a81c
0x40a5b5: 4C 8B 74 24 28             mov	0x28(%rsp), %r14
0x40a5ba: 48 89 44 24 28             mov	%rax, 0x28(%rsp)
0x40a5bf: 4C 3B 54 24 28             cmp	0x28(%rsp), %r10
0x40a5c4: 0F 86 F2 00 00 00          jbe	0x000000000040a6bc
0x40a5ca: 49 8B 7F 08                mov	0x8(%r15), %rdi
0x40a5ce: 49 8B 17                   mov	(%r15), %rdx
0x40a5d1: 48 3B 54 24 28             cmp	0x28(%rsp), %rdx
0x40a5d6: 77 35                      ja	0x000000000040a60d
0x40a5d8: 48 89 D6                   mov	%rdx, %rsi
0x40a5db: 49 8B 47 08                mov	0x8(%r15), %rax
0x40a5df: 4C 8B 44 24 28             mov	0x28(%rsp), %r8
0x40a5e4: 48 C1 E6 05                shl	$0x5, %rsi
0x40a5e8: EB 09                      jmp	0x000000000040a5f3
0x40a5ea: 66 0F 1F 44 00 00          nopw	0x0(%rax,%rax,1)
0x40a5f0: 48 89 C7                   mov	%rax, %rdi
0x40a5f3: 48 83 C2 01                add	$0x1, %rdx
0x40a5f7: C7 04 37 00 00 00 00       movl	$0x0, (%rdi,%rsi,1)
0x40a5fe: 48 83 C6 20                add	$0x20, %rsi
0x40a602: 4C 39 C2                   cmp	%r8, %rdx
0x40a605: 76 E9                      jbe	0x000000000040a5f0
0x40a607: 49 89 17                   mov	%rdx, (%r15)
0x40a60a: 48 89 C7                   mov	%rax, %rdi
0x40a60d: 48 8B 54 24 28             mov	0x28(%rsp), %rdx
0x40a612: 48 C1 E2 05                shl	$0x5, %rdx
0x40a616: 48 8D 14 17                lea	(%rdi,%rdx,1), %rdx
0x40a61a: 8B 02                      mov	(%rdx), %eax
0x40a61c: 85 C0                      test	%eax, %eax
0x40a61e: 0F 85 27 01 00 00          jne	0x000000000040a74b
0x40a624: C7 02 05 00 00 00          movl	$0x5, (%rdx)
0x40a62a: 0F B6 11                   movzbl	(%rcx), %edx
0x40a62d: E9 22 F9 FF FF             jmpq	0x0000000000409f54
0x40a632: 48 83 C0 01                add	$0x1, %rax
0x40a636: 0F B6 10                   movzbl	(%rax), %edx
0x40a639: 8D 7A D0                   lea	-0x30(%rdx), %edi
0x40a63c: 40 80 FF 09                cmp	$0x9, %dil
0x40a640: 76 F0                      jbe	0x000000000040a632
0x40a642: 80 FA 24                   cmp	$0x24, %dl
0x40a645: 0F 85 5C FF FF FF          jne	0x000000000040a5a7
0x40a64b: 31 C0                      xor	%eax, %eax
0x40a64d: 48 89 C2                   mov	%rax, %rdx
0x40a650: BF 0A 00 00 00             mov	$0xa, %edi
0x40a655: 48 0F AF D7                imul	%rdi, %rdx
0x40a659: 48 BF 99 99 99 99 99 99    mov	$0x1999999999999999, %rdi
          99 19
0x40a663: 48 39 F8                   cmp	%rdi, %rax
0x40a666: 48 C7 C0 FF FF FF FF       mov	$0xffffffffffffffff, %rax
0x40a66d: 48 0F 46 C2                cmovbe	%rdx, %rax
0x40a671: 40 0F BE D6                movsbl	%sil, %edx
0x40a675: 83 EA 30                   sub	$0x30, %edx
0x40a678: 48 63 D2                   movslq	%edx, %rdx
0x40a67b: 48 01 D0                   add	%rdx, %rax
0x40a67e: 48 C7 C2 FF FF FF FF       mov	$0xffffffffffffffff, %rdx
0x40a685: 48 0F 42 C2                cmovb	%rdx, %rax
0x40a689: 48 83 C1 01                add	$0x1, %rcx
0x40a68d: 0F B6 31                   movzbl	(%rcx), %esi
0x40a690: 8D 56 D0                   lea	-0x30(%rsi), %edx
0x40a693: 80 FA 09                   cmp	$0x9, %dl
0x40a696: 76 B5                      jbe	0x000000000040a64d
0x40a698: 48 85 C0                   test	%rax, %rax
0x40a69b: 0F 84 17 F9 FF FF          je	0x0000000000409fb8
0x40a6a1: 48 83 F8 FF                cmp	$0xffffffffffffffff, %rax
0x40a6a5: 0F 84 0D F9 FF FF          je	0x0000000000409fb8
0x40a6ab: 48 83 E8 01                sub	$0x1, %rax
0x40a6af: 48 83 C1 01                add	$0x1, %rcx
0x40a6b3: 48 89 45 40                mov	%rax, 0x40(%rbp)
0x40a6b7: E9 EF FE FF FF             jmpq	0x000000000040a5ab
0x40a6bc: 4B 8D 04 12                lea	(%r10,%r10,1), %rax
0x40a6c0: 4D 85 D2                   test	%r10, %r10
0x40a6c3: 49 C7 C2 FF FF FF FF       mov	$0xffffffffffffffff, %r10
0x40a6ca: 4C 0F 49 D0                cmovns	%rax, %r10
0x40a6ce: 4C 3B 54 24 28             cmp	0x28(%rsp), %r10
0x40a6d3: 77 0F                      ja	0x000000000040a6e4
0x40a6d5: 4C 8B 54 24 28             mov	0x28(%rsp), %r10
0x40a6da: 49 83 C2 01                add	$0x1, %r10
0x40a6de: 0F 82 64 FD FF FF          jb	0x000000000040a448
0x40a6e4: 48 BF FF FF FF FF FF FF    mov	$0x7ffffffffffffff, %rdi
          FF 07
0x40a6ee: 49 39 FA                   cmp	%rdi, %r10
0x40a6f1: 0F 87 51 FD FF FF          ja	0x000000000040a448
0x40a6f7: 49 8B 7F 08                mov	0x8(%r15), %rdi
0x40a6fb: 4C 89 D6                   mov	%r10, %rsi
0x40a6fe: 48 C1 E6 05                shl	$0x5, %rsi
0x40a702: 48 85 FF                   test	%rdi, %rdi
0x40a705: 0F 84 65 01 00 00          je	0x000000000040a870
0x40a70b: 48 89 4C 24 18             mov	%rcx, 0x18(%rsp)
0x40a710: 4C 89 4C 24 10             mov	%r9, 0x10(%rsp)
0x40a715: 4C 89 54 24 08             mov	%r10, 0x8(%rsp)
0x40a71a: 4C 89 1C 24                mov	%r11, (%rsp)
0x40a71e: E8 AD 70 FF FF             callq	0x00000000004017d0
0x40a723: 48 8B 4C 24 18             mov	0x18(%rsp), %rcx
0x40a728: 4C 8B 4C 24 10             mov	0x10(%rsp), %r9
0x40a72d: 4C 8B 54 24 08             mov	0x8(%rsp), %r10
0x40a732: 4C 8B 1C 24                mov	(%rsp), %r11
0x40a736: 48 85 C0                   test	%rax, %rax
0x40a739: 48 89 C7                   mov	%rax, %rdi
0x40a73c: 0F 84 06 FD FF FF          je	0x000000000040a448
0x40a742: 49 89 47 08                mov	%rax, 0x8(%r15)
0x40a746: E9 83 FE FF FF             jmpq	0x000000000040a5ce
0x40a74b: 83 F8 05                   cmp	$0x5, %eax
0x40a74e: 0F 85 68 F8 FF FF          jne	0x0000000000409fbc
0x40a754: 0F B6 11                   movzbl	(%rcx), %edx
0x40a757: E9 F8 F7 FF FF             jmpq	0x0000000000409f54
0x40a75c: 48 89 F7                   mov	%rsi, %rdi
0x40a75f: 88 54 24 20                mov	%dl, 0x20(%rsp)
0x40a763: 89 4C 24 18                mov	%ecx, 0x18(%rsp)
0x40a767: 4C 89 4C 24 10             mov	%r9, 0x10(%rsp)
0x40a76c: 4C 89 54 24 08             mov	%r10, 0x8(%rsp)
0x40a771: 4C 89 1C 24                mov	%r11, (%rsp)
0x40a775: E8 E6 6D FF FF             callq	0x0000000000401560
0x40a77a: 4C 8B 1C 24                mov	(%rsp), %r11
0x40a77e: 4C 8B 54 24 08             mov	0x8(%rsp), %r10
0x40a783: 4C 8B 4C 24 10             mov	0x10(%rsp), %r9
0x40a788: 8B 4C 24 18                mov	0x18(%rsp), %ecx
0x40a78c: 0F B6 54 24 20             movzbl	0x20(%rsp), %edx
0x40a791: E9 55 FC FF FF             jmpq	0x000000000040a3eb
0x40a796: 48 89 4D 20                mov	%rcx, 0x20(%rbp)
0x40a79a: E9 94 F7 FF FF             jmpq	0x0000000000409f33
0x40a79f: 83 F8 07                   cmp	$0x7, %eax
0x40a7a2: B9 07 00 00 00             mov	$0x7, %ecx
0x40a7a7: 0F 8F 5B F8 FF FF          jg	0x000000000040a008
0x40a7ad: A8 02                      test	$0x2, %al
0x40a7af: B1 01                      mov	$0x1, %cl
0x40a7b1: 0F 85 51 F8 FF FF          jne	0x000000000040a008
0x40a7b7: 83 E0 01                   and	$0x1, %eax
0x40a7ba: 83 F8 01                   cmp	$0x1, %eax
0x40a7bd: 19 C9                      sbb	%ecx, %ecx
0x40a7bf: 83 E1 02                   and	$0x2, %ecx
0x40a7c2: 83 C1 03                   add	$0x3, %ecx
0x40a7c5: E9 3E F8 FF FF             jmpq	0x000000000040a008
0x40a7ca: 83 F8 07                   cmp	$0x7, %eax
0x40a7cd: B9 08 00 00 00             mov	$0x8, %ecx
0x40a7d2: 0F 8F 30 F8 FF FF          jg	0x000000000040a008
0x40a7d8: A8 02                      test	$0x2, %al
0x40a7da: B1 02                      mov	$0x2, %cl
0x40a7dc: 0F 85 26 F8 FF FF          jne	0x000000000040a008
0x40a7e2: 83 E0 01                   and	$0x1, %eax
0x40a7e5: 83 F8 01                   cmp	$0x1, %eax
0x40a7e8: 19 C9                      sbb	%ecx, %ecx
0x40a7ea: 83 E1 02                   and	$0x2, %ecx
0x40a7ed: 83 C1 04                   add	$0x4, %ecx
0x40a7f0: E9 13 F8 FF FF             jmpq	0x000000000040a008
0x40a7f5: 83 F8 07                   cmp	$0x7, %eax
0x40a7f8: B9 15 00 00 00             mov	$0x15, %ecx
0x40a7fd: 0F 8F 05 F8 FF FF          jg	0x000000000040a008
0x40a803: A8 02                      test	$0x2, %al
0x40a805: B1 12                      mov	$0x12, %cl
0x40a807: 0F 85 FB F7 FF FF          jne	0x000000000040a008
0x40a80d: 89 C1                      mov	%eax, %ecx
0x40a80f: 83 E1 01                   and	$0x1, %ecx
0x40a812: F7 D9                      neg	%ecx
0x40a814: 83 C1 14                   add	$0x14, %ecx
0x40a817: E9 EC F7 FF FF             jmpq	0x000000000040a008
0x40a81c: 48 8B 74 24 28             mov	0x28(%rsp), %rsi
0x40a821: 48 83 FE FF                cmp	$0xffffffffffffffff, %rsi
0x40a825: 48 89 75 40                mov	%rsi, 0x40(%rbp)
0x40a829: 0F 84 89 F7 FF FF          je	0x0000000000409fb8
0x40a82f: 4C 8B 74 24 28             mov	0x28(%rsp), %r14
0x40a834: 49 83 C6 01                add	$0x1, %r14
0x40a838: E9 82 FD FF FF             jmpq	0x000000000040a5bf
0x40a83d: 48 89 F7                   mov	%rsi, %rdi
0x40a840: 4C 89 44 24 20             mov	%r8, 0x20(%rsp)
0x40a845: 4C 89 4C 24 10             mov	%r9, 0x10(%rsp)
0x40a84a: 4C 89 54 24 08             mov	%r10, 0x8(%rsp)
0x40a84f: 4C 89 1C 24                mov	%r11, (%rsp)
0x40a853: E8 08 6D FF FF             callq	0x0000000000401560
0x40a858: 4C 8B 1C 24                mov	(%rsp), %r11
0x40a85c: 4C 8B 54 24 08             mov	0x8(%rsp), %r10
0x40a861: 4C 8B 4C 24 10             mov	0x10(%rsp), %r9
0x40a866: 4C 8B 44 24 20             mov	0x20(%rsp), %r8
0x40a86b: E9 55 FC FF FF             jmpq	0x000000000040a4c5
0x40a870: 48 89 F7                   mov	%rsi, %rdi
0x40a873: 48 89 4C 24 18             mov	%rcx, 0x18(%rsp)
0x40a878: 4C 89 4C 24 10             mov	%r9, 0x10(%rsp)
0x40a87d: 4C 89 54 24 08             mov	%r10, 0x8(%rsp)
0x40a882: 4C 89 1C 24                mov	%r11, (%rsp)
0x40a886: E8 D5 6C FF FF             callq	0x0000000000401560
0x40a88b: 4C 8B 1C 24                mov	(%rsp), %r11
0x40a88f: 4C 8B 54 24 08             mov	0x8(%rsp), %r10
0x40a894: 4C 8B 4C 24 10             mov	0x10(%rsp), %r9
0x40a899: 48 8B 4C 24 18             mov	0x18(%rsp), %rcx
0x40a89e: E9 93 FE FF FF             jmpq	0x000000000040a736
0x40a8a3: 90                         nop	
0x40a8a4: 90                         nop	
0x40a8a5: 90                         nop	
0x40a8a6: 90                         nop	
0x40a8a7: 90                         nop	
0x40a8a8: 90                         nop	
0x40a8a9: 90                         nop	
0x40a8aa: 90                         nop	
0x40a8ab: 90                         nop	
0x40a8ac: 90                         nop	
0x40a8ad: 90                         nop	
0x40a8ae: 90                         nop	
0x40a8af: 90                         nop	
0x40a8b0: F3 C3                      repz  retq	
0x40a8b2: 66 66 66 66 66 2E 0F 1F    nopw	%cs:0x0(%rax,%rax,1)
          84 00 00 00 00 00
0x40a8c0: 48 89 6C 24 D8             mov	%rbp, -0x28(%rsp)
0x40a8c5: 4C 89 64 24 E0             mov	%r12, -0x20(%rsp)
0x40a8ca: 48 8D 2D 3B 25 20 00       lea	0x20253b(%rip), %rbp	#  0x000000000060ce0c
0x40a8d1: 4C 8D 25 34 25 20 00       lea	0x202534(%rip), %r12	#  0x000000000060ce0c
0x40a8d8: 4C 89 6C 24 E8             mov	%r13, -0x18(%rsp)
0x40a8dd: 4C 89 74 24 F0             mov	%r14, -0x10(%rsp)
0x40a8e2: 4C 89 7C 24 F8             mov	%r15, -0x8(%rsp)
0x40a8e7: 48 89 5C 24 D0             mov	%rbx, -0x30(%rsp)
0x40a8ec: 48 83 EC 38                sub	$0x38, %rsp
0x40a8f0: 4C 29 E5                   sub	%r12, %rbp
0x40a8f3: 41 89 FD                   mov	%edi, %r13d
0x40a8f6: 49 89 F6                   mov	%rsi, %r14
0x40a8f9: 48 C1 FD 03                sar	$0x3, %rbp
0x40a8fd: 49 89 D7                   mov	%rdx, %r15
0x40a900: E8 43 6B FF FF             callq	0x0000000000401448
0x40a905: 48 85 ED                   test	%rbp, %rbp
0x40a908: 74 1C                      je	0x000000000040a926
0x40a90a: 31 DB                      xor	%ebx, %ebx
0x40a90c: 0F 1F 40 00                nopl	0x0(%rax)
0x40a910: 4C 89 FA                   mov	%r15, %rdx
0x40a913: 4C 89 F6                   mov	%r14, %rsi
0x40a916: 44 89 EF                   mov	%r13d, %edi
0x40a919: 41 FF 14 DC                callq	*(%r12,%rbx,8)
0x40a91d: 48 83 C3 01                add	$0x1, %rbx
0x40a921: 48 39 EB                   cmp	%rbp, %rbx
0x40a924: 72 EA                      jb	0x000000000040a910
0x40a926: 48 8B 5C 24 08             mov	0x8(%rsp), %rbx
0x40a92b: 48 8B 6C 24 10             mov	0x10(%rsp), %rbp
0x40a930: 4C 8B 64 24 18             mov	0x18(%rsp), %r12
0x40a935: 4C 8B 6C 24 20             mov	0x20(%rsp), %r13
0x40a93a: 4C 8B 74 24 28             mov	0x28(%rsp), %r14
0x40a93f: 4C 8B 7C 24 30             mov	0x30(%rsp), %r15
0x40a944: 48 83 C4 38                add	$0x38, %rsp
0x40a948: C3                         retq	
0x40a949: 90                         nop	
0x40a94a: 90                         nop	
0x40a94b: 90                         nop	
0x40a94c: 90                         nop	
0x40a94d: 90                         nop	
0x40a94e: 90                         nop	
0x40a94f: 90                         nop	
0x40a950: 48 8B 05 89 26 20 00       mov	0x202689(%rip), %rax	#  0x000000000060cfe0
0x40a957: 48 85 C0                   test	%rax, %rax
0x40a95a: 74 0A                      je	0x000000000040a966
0x40a95c: 48 8B 10                   mov	(%rax), %rdx
0x40a95f: 31 F6                      xor	%esi, %esi
0x40a961: E9 4A 6C FF FF             jmpq	0x00000000004015b0
0x40a966: 31 D2                      xor	%edx, %edx
0x40a968: EB F5                      jmp	0x000000000040a95f
0x40a96a: 90                         nop	
0x40a96b: 90                         nop	
0x40a96c: 90                         nop	
0x40a96d: 90                         nop	
0x40a96e: 90                         nop	
0x40a96f: 90                         nop	
0x40a970: 55                         push	%rbp
0x40a971: 48 89 E5                   mov	%rsp, %rbp
0x40a974: 53                         push	%rbx
0x40a975: 48 83 EC 08                sub	$0x8, %rsp
0x40a979: 48 8B 05 90 24 20 00       mov	0x202490(%rip), %rax	#  0x000000000060ce10
0x40a980: 48 83 F8 FF                cmp	$0xffffffffffffffff, %rax
0x40a984: 74 19                      je	0x000000000040a99f
0x40a986: BB 10 CE 60 00             mov	$0x60ce10, %ebx
0x40a98b: 0F 1F 44 00 00             nopl	0x0(%rax,%rax,1)
0x40a990: 48 83 EB 08                sub	$0x8, %rbx
0x40a994: FF D0                      callq	*%rax
0x40a996: 48 8B 03                   mov	(%rbx), %rax
0x40a999: 48 83 F8 FF                cmp	$0xffffffffffffffff, %rax
0x40a99d: 75 F1                      jne	0x000000000040a990
0x40a99f: 48 83 C4 08                add	$0x8, %rsp
0x40a9a3: 5B                         pop	%rbx
0x40a9a4: C9                         leaveq	
0x40a9a5: C3                         retq	
0x40a9a6: 90                         nop	
0x40a9a7: 90                         nop	
